PC     Output            Line Source
040000                   0001 ; macros, macro include files, globals and constants can go here
040000                   0002 ; but anything which will generate bytes must go below MOS initialization
040000                   0003     ; include "src/asm/agon_api/asm/macros.asm"
040000                   0004 
040000                   0005 ; MOS INITIALIATION MUST GO HERE BEFORE ANY OTHER CODE
040000                   0006     .assume adl=1
040000                   0007     .org 0x040000
040000                   0008 
040000 C3 78 A4 04       0009     jp start
040004                   0010 
040004 FF FF FF FF FF FF 0011     .align 64
       FF FF FF FF FF FF 
       FF FF FF FF FF FF 
       FF FF FF FF FF FF 
       FF FF FF FF FF FF 
       FF FF FF FF FF FF 
       FF FF FF FF FF FF 
       FF FF FF FF FF FF 
       FF FF FF FF FF FF 
       FF FF FF FF FF FF 
040040 4D 4F 53          0012     .db "MOS"
040043 00                0013     .db 00h
040044 01                0014     .db 01h
040045                   0015 ; END OF MOS INITIALIZATION
040045                   0016 
040045                   0017 ; include files can go here
040045                   0018 	include "src/asm/images.asm"
040045                   0001 ; This file is created by build_91_asm_img_looad.py, do not edit it!
040045                   0002 
040045                   0003 ; cube buffer ids:
040045                   0004 BUF_10_004: equ 0x0100
040045                   0005 BUF_10_009: equ 0x0101
040045                   0006 BUF_10_010: equ 0x0102
040045                   0007 BUF_10_011: equ 0x0103
040045                   0008 BUF_10_012: equ 0x0104
040045                   0009 BUF_10_013: equ 0x0105
040045                   0010 BUF_10_014: equ 0x0106
040045                   0011 BUF_10_015: equ 0x0107
040045                   0012 BUF_10_016: equ 0x0108
040045                   0013 BUF_10_020: equ 0x0109
040045                   0014 BUF_10_024: equ 0x010A
040045                   0015 BUF_10_025: equ 0x010B
040045                   0016 BUF_10_026: equ 0x010C
040045                   0017 BUF_10_027: equ 0x010D
040045                   0018 BUF_10_028: equ 0x010E
040045                   0019 BUF_10_029: equ 0x010F
040045                   0020 BUF_10_032: equ 0x0110
040045                   0021 BUF_10_035: equ 0x0111
040045                   0022 BUF_10_036: equ 0x0112
040045                   0023 BUF_10_037: equ 0x0113
040045                   0024 BUF_10_038: equ 0x0114
040045                   0025 BUF_10_040: equ 0x0115
040045                   0026 BUF_10_042: equ 0x0116
040045                   0027 BUF_10_043: equ 0x0117
040045                   0028 BUF_10_044: equ 0x0118
040045                   0029 BUF_11_004: equ 0x0119
040045                   0030 BUF_11_009: equ 0x011A
040045                   0031 BUF_11_010: equ 0x011B
040045                   0032 BUF_11_011: equ 0x011C
040045                   0033 BUF_11_012: equ 0x011D
040045                   0034 BUF_11_013: equ 0x011E
040045                   0035 BUF_11_014: equ 0x011F
040045                   0036 BUF_11_015: equ 0x0120
040045                   0037 BUF_11_016: equ 0x0121
040045                   0038 BUF_11_020: equ 0x0122
040045                   0039 BUF_11_024: equ 0x0123
040045                   0040 BUF_11_025: equ 0x0124
040045                   0041 BUF_11_026: equ 0x0125
040045                   0042 BUF_11_027: equ 0x0126
040045                   0043 BUF_11_028: equ 0x0127
040045                   0044 BUF_11_029: equ 0x0128
040045                   0045 BUF_11_032: equ 0x0129
040045                   0046 BUF_11_035: equ 0x012A
040045                   0047 BUF_11_036: equ 0x012B
040045                   0048 BUF_11_037: equ 0x012C
040045                   0049 BUF_11_038: equ 0x012D
040045                   0050 BUF_11_040: equ 0x012E
040045                   0051 BUF_11_042: equ 0x012F
040045                   0052 BUF_11_043: equ 0x0130
040045                   0053 BUF_11_044: equ 0x0131
040045                   0054 BUF_12_004: equ 0x0132
040045                   0055 BUF_12_009: equ 0x0133
040045                   0056 BUF_12_010: equ 0x0134
040045                   0057 BUF_12_011: equ 0x0135
040045                   0058 BUF_12_012: equ 0x0136
040045                   0059 BUF_12_013: equ 0x0137
040045                   0060 BUF_12_014: equ 0x0138
040045                   0061 BUF_12_015: equ 0x0139
040045                   0062 BUF_12_016: equ 0x013A
040045                   0063 BUF_12_020: equ 0x013B
040045                   0064 BUF_12_024: equ 0x013C
040045                   0065 BUF_12_025: equ 0x013D
040045                   0066 BUF_12_026: equ 0x013E
040045                   0067 BUF_12_027: equ 0x013F
040045                   0068 BUF_12_028: equ 0x0140
040045                   0069 BUF_12_029: equ 0x0141
040045                   0070 BUF_12_032: equ 0x0142
040045                   0071 BUF_12_035: equ 0x0143
040045                   0072 BUF_12_036: equ 0x0144
040045                   0073 BUF_12_037: equ 0x0145
040045                   0074 BUF_12_038: equ 0x0146
040045                   0075 BUF_12_040: equ 0x0147
040045                   0076 BUF_12_042: equ 0x0148
040045                   0077 BUF_12_043: equ 0x0149
040045                   0078 BUF_12_044: equ 0x014A
040045                   0079 BUF_13_004: equ 0x014B
040045                   0080 BUF_13_009: equ 0x014C
040045                   0081 BUF_13_010: equ 0x014D
040045                   0082 BUF_13_011: equ 0x014E
040045                   0083 BUF_13_012: equ 0x014F
040045                   0084 BUF_13_013: equ 0x0150
040045                   0085 BUF_13_014: equ 0x0151
040045                   0086 BUF_13_015: equ 0x0152
040045                   0087 BUF_13_016: equ 0x0153
040045                   0088 BUF_13_020: equ 0x0154
040045                   0089 BUF_13_024: equ 0x0155
040045                   0090 BUF_13_025: equ 0x0156
040045                   0091 BUF_13_026: equ 0x0157
040045                   0092 BUF_13_027: equ 0x0158
040045                   0093 BUF_13_028: equ 0x0159
040045                   0094 BUF_13_029: equ 0x015A
040045                   0095 BUF_13_032: equ 0x015B
040045                   0096 BUF_13_035: equ 0x015C
040045                   0097 BUF_13_036: equ 0x015D
040045                   0098 BUF_13_037: equ 0x015E
040045                   0099 BUF_13_038: equ 0x015F
040045                   0100 BUF_13_040: equ 0x0160
040045                   0101 BUF_13_042: equ 0x0161
040045                   0102 BUF_13_043: equ 0x0162
040045                   0103 BUF_13_044: equ 0x0163
040045                   0104 BUF_14_004: equ 0x0164
040045                   0105 BUF_14_009: equ 0x0165
040045                   0106 BUF_14_010: equ 0x0166
040045                   0107 BUF_14_011: equ 0x0167
040045                   0108 BUF_14_012: equ 0x0168
040045                   0109 BUF_14_013: equ 0x0169
040045                   0110 BUF_14_014: equ 0x016A
040045                   0111 BUF_14_015: equ 0x016B
040045                   0112 BUF_14_016: equ 0x016C
040045                   0113 BUF_14_020: equ 0x016D
040045                   0114 BUF_14_024: equ 0x016E
040045                   0115 BUF_14_025: equ 0x016F
040045                   0116 BUF_14_026: equ 0x0170
040045                   0117 BUF_14_027: equ 0x0171
040045                   0118 BUF_14_028: equ 0x0172
040045                   0119 BUF_14_029: equ 0x0173
040045                   0120 BUF_14_032: equ 0x0174
040045                   0121 BUF_14_035: equ 0x0175
040045                   0122 BUF_14_036: equ 0x0176
040045                   0123 BUF_14_037: equ 0x0177
040045                   0124 BUF_14_038: equ 0x0178
040045                   0125 BUF_14_040: equ 0x0179
040045                   0126 BUF_14_042: equ 0x017A
040045                   0127 BUF_14_043: equ 0x017B
040045                   0128 BUF_14_044: equ 0x017C
040045                   0129 BUF_15_004: equ 0x017D
040045                   0130 BUF_15_009: equ 0x017E
040045                   0131 BUF_15_010: equ 0x017F
040045                   0132 BUF_15_011: equ 0x0180
040045                   0133 BUF_15_012: equ 0x0181
040045                   0134 BUF_15_013: equ 0x0182
040045                   0135 BUF_15_014: equ 0x0183
040045                   0136 BUF_15_015: equ 0x0184
040045                   0137 BUF_15_016: equ 0x0185
040045                   0138 BUF_15_020: equ 0x0186
040045                   0139 BUF_15_024: equ 0x0187
040045                   0140 BUF_15_025: equ 0x0188
040045                   0141 BUF_15_026: equ 0x0189
040045                   0142 BUF_15_027: equ 0x018A
040045                   0143 BUF_15_028: equ 0x018B
040045                   0144 BUF_15_029: equ 0x018C
040045                   0145 BUF_15_032: equ 0x018D
040045                   0146 BUF_15_035: equ 0x018E
040045                   0147 BUF_15_036: equ 0x018F
040045                   0148 BUF_15_037: equ 0x0190
040045                   0149 BUF_15_038: equ 0x0191
040045                   0150 BUF_15_040: equ 0x0192
040045                   0151 BUF_15_042: equ 0x0193
040045                   0152 BUF_15_043: equ 0x0194
040045                   0153 BUF_15_044: equ 0x0195
040045                   0154 BUF_16_004: equ 0x0196
040045                   0155 BUF_16_009: equ 0x0197
040045                   0156 BUF_16_010: equ 0x0198
040045                   0157 BUF_16_011: equ 0x0199
040045                   0158 BUF_16_012: equ 0x019A
040045                   0159 BUF_16_013: equ 0x019B
040045                   0160 BUF_16_014: equ 0x019C
040045                   0161 BUF_16_015: equ 0x019D
040045                   0162 BUF_16_016: equ 0x019E
040045                   0163 BUF_16_020: equ 0x019F
040045                   0164 BUF_16_024: equ 0x01A0
040045                   0165 BUF_16_025: equ 0x01A1
040045                   0166 BUF_16_026: equ 0x01A2
040045                   0167 BUF_16_027: equ 0x01A3
040045                   0168 BUF_16_028: equ 0x01A4
040045                   0169 BUF_16_029: equ 0x01A5
040045                   0170 BUF_16_032: equ 0x01A6
040045                   0171 BUF_16_035: equ 0x01A7
040045                   0172 BUF_16_036: equ 0x01A8
040045                   0173 BUF_16_037: equ 0x01A9
040045                   0174 BUF_16_038: equ 0x01AA
040045                   0175 BUF_16_040: equ 0x01AB
040045                   0176 BUF_16_042: equ 0x01AC
040045                   0177 BUF_16_043: equ 0x01AD
040045                   0178 BUF_16_044: equ 0x01AE
040045                   0179 BUF_17_004: equ 0x01AF
040045                   0180 BUF_17_009: equ 0x01B0
040045                   0181 BUF_17_010: equ 0x01B1
040045                   0182 BUF_17_011: equ 0x01B2
040045                   0183 BUF_17_012: equ 0x01B3
040045                   0184 BUF_17_013: equ 0x01B4
040045                   0185 BUF_17_014: equ 0x01B5
040045                   0186 BUF_17_015: equ 0x01B6
040045                   0187 BUF_17_016: equ 0x01B7
040045                   0188 BUF_17_020: equ 0x01B8
040045                   0189 BUF_17_024: equ 0x01B9
040045                   0190 BUF_17_025: equ 0x01BA
040045                   0191 BUF_17_026: equ 0x01BB
040045                   0192 BUF_17_027: equ 0x01BC
040045                   0193 BUF_17_028: equ 0x01BD
040045                   0194 BUF_17_029: equ 0x01BE
040045                   0195 BUF_17_032: equ 0x01BF
040045                   0196 BUF_17_035: equ 0x01C0
040045                   0197 BUF_17_036: equ 0x01C1
040045                   0198 BUF_17_037: equ 0x01C2
040045                   0199 BUF_17_038: equ 0x01C3
040045                   0200 BUF_17_040: equ 0x01C4
040045                   0201 BUF_17_042: equ 0x01C5
040045                   0202 BUF_17_043: equ 0x01C6
040045                   0203 BUF_17_044: equ 0x01C7
040045                   0204 BUF_57_004: equ 0x01C8
040045                   0205 BUF_57_009: equ 0x01C9
040045                   0206 BUF_57_010: equ 0x01CA
040045                   0207 BUF_57_011: equ 0x01CB
040045                   0208 BUF_57_012: equ 0x01CC
040045                   0209 BUF_57_013: equ 0x01CD
040045                   0210 BUF_57_014: equ 0x01CE
040045                   0211 BUF_57_015: equ 0x01CF
040045                   0212 BUF_57_016: equ 0x01D0
040045                   0213 BUF_57_020: equ 0x01D1
040045                   0214 BUF_57_024: equ 0x01D2
040045                   0215 BUF_57_025: equ 0x01D3
040045                   0216 BUF_57_026: equ 0x01D4
040045                   0217 BUF_57_027: equ 0x01D5
040045                   0218 BUF_57_028: equ 0x01D6
040045                   0219 BUF_57_029: equ 0x01D7
040045                   0220 BUF_57_032: equ 0x01D8
040045                   0221 BUF_57_035: equ 0x01D9
040045                   0222 BUF_57_036: equ 0x01DA
040045                   0223 BUF_57_037: equ 0x01DB
040045                   0224 BUF_57_038: equ 0x01DC
040045                   0225 BUF_57_040: equ 0x01DD
040045                   0226 BUF_57_042: equ 0x01DE
040045                   0227 BUF_57_043: equ 0x01DF
040045                   0228 BUF_57_044: equ 0x01E0
040045                   0229 BUF_58_004: equ 0x01E1
040045                   0230 BUF_58_009: equ 0x01E2
040045                   0231 BUF_58_010: equ 0x01E3
040045                   0232 BUF_58_011: equ 0x01E4
040045                   0233 BUF_58_012: equ 0x01E5
040045                   0234 BUF_58_013: equ 0x01E6
040045                   0235 BUF_58_014: equ 0x01E7
040045                   0236 BUF_58_015: equ 0x01E8
040045                   0237 BUF_58_016: equ 0x01E9
040045                   0238 BUF_58_020: equ 0x01EA
040045                   0239 BUF_58_024: equ 0x01EB
040045                   0240 BUF_58_025: equ 0x01EC
040045                   0241 BUF_58_026: equ 0x01ED
040045                   0242 BUF_58_027: equ 0x01EE
040045                   0243 BUF_58_028: equ 0x01EF
040045                   0244 BUF_58_029: equ 0x01F0
040045                   0245 BUF_58_032: equ 0x01F1
040045                   0246 BUF_58_035: equ 0x01F2
040045                   0247 BUF_58_036: equ 0x01F3
040045                   0248 BUF_58_037: equ 0x01F4
040045                   0249 BUF_58_038: equ 0x01F5
040045                   0250 BUF_58_040: equ 0x01F6
040045                   0251 BUF_58_042: equ 0x01F7
040045                   0252 BUF_58_043: equ 0x01F8
040045                   0253 BUF_58_044: equ 0x01F9
040045                   0254 BUF_59_004: equ 0x01FA
040045                   0255 BUF_59_009: equ 0x01FB
040045                   0256 BUF_59_010: equ 0x01FC
040045                   0257 BUF_59_011: equ 0x01FD
040045                   0258 BUF_59_012: equ 0x01FE
040045                   0259 BUF_59_013: equ 0x01FF
040045                   0260 BUF_59_014: equ 0x0200
040045                   0261 BUF_59_015: equ 0x0201
040045                   0262 BUF_59_016: equ 0x0202
040045                   0263 BUF_59_020: equ 0x0203
040045                   0264 BUF_59_024: equ 0x0204
040045                   0265 BUF_59_025: equ 0x0205
040045                   0266 BUF_59_026: equ 0x0206
040045                   0267 BUF_59_027: equ 0x0207
040045                   0268 BUF_59_028: equ 0x0208
040045                   0269 BUF_59_029: equ 0x0209
040045                   0270 BUF_59_032: equ 0x020A
040045                   0271 BUF_59_035: equ 0x020B
040045                   0272 BUF_59_036: equ 0x020C
040045                   0273 BUF_59_037: equ 0x020D
040045                   0274 BUF_59_038: equ 0x020E
040045                   0275 BUF_59_040: equ 0x020F
040045                   0276 BUF_59_042: equ 0x0210
040045                   0277 BUF_59_043: equ 0x0211
040045                   0278 BUF_59_044: equ 0x0212
040045                   0279 
040045                   0280 cube_num_panels: equ 275
040045                   0281 
040045                   0282 ; cube buffer id reverse lookup:
040045                   0283 cube_buffer_id_lut:
040045 00 01 00          0284 	dl BUF_10_004
040048 01 01 00          0285 	dl BUF_10_009
04004B 02 01 00          0286 	dl BUF_10_010
04004E 03 01 00          0287 	dl BUF_10_011
040051 04 01 00          0288 	dl BUF_10_012
040054 05 01 00          0289 	dl BUF_10_013
040057 06 01 00          0290 	dl BUF_10_014
04005A 07 01 00          0291 	dl BUF_10_015
04005D 08 01 00          0292 	dl BUF_10_016
040060 09 01 00          0293 	dl BUF_10_020
040063 0A 01 00          0294 	dl BUF_10_024
040066 0B 01 00          0295 	dl BUF_10_025
040069 0C 01 00          0296 	dl BUF_10_026
04006C 0D 01 00          0297 	dl BUF_10_027
04006F 0E 01 00          0298 	dl BUF_10_028
040072 0F 01 00          0299 	dl BUF_10_029
040075 10 01 00          0300 	dl BUF_10_032
040078 11 01 00          0301 	dl BUF_10_035
04007B 12 01 00          0302 	dl BUF_10_036
04007E 13 01 00          0303 	dl BUF_10_037
040081 14 01 00          0304 	dl BUF_10_038
040084 15 01 00          0305 	dl BUF_10_040
040087 16 01 00          0306 	dl BUF_10_042
04008A 17 01 00          0307 	dl BUF_10_043
04008D 18 01 00          0308 	dl BUF_10_044
040090 19 01 00          0309 	dl BUF_11_004
040093 1A 01 00          0310 	dl BUF_11_009
040096 1B 01 00          0311 	dl BUF_11_010
040099 1C 01 00          0312 	dl BUF_11_011
04009C 1D 01 00          0313 	dl BUF_11_012
04009F 1E 01 00          0314 	dl BUF_11_013
0400A2 1F 01 00          0315 	dl BUF_11_014
0400A5 20 01 00          0316 	dl BUF_11_015
0400A8 21 01 00          0317 	dl BUF_11_016
0400AB 22 01 00          0318 	dl BUF_11_020
0400AE 23 01 00          0319 	dl BUF_11_024
0400B1 24 01 00          0320 	dl BUF_11_025
0400B4 25 01 00          0321 	dl BUF_11_026
0400B7 26 01 00          0322 	dl BUF_11_027
0400BA 27 01 00          0323 	dl BUF_11_028
0400BD 28 01 00          0324 	dl BUF_11_029
0400C0 29 01 00          0325 	dl BUF_11_032
0400C3 2A 01 00          0326 	dl BUF_11_035
0400C6 2B 01 00          0327 	dl BUF_11_036
0400C9 2C 01 00          0328 	dl BUF_11_037
0400CC 2D 01 00          0329 	dl BUF_11_038
0400CF 2E 01 00          0330 	dl BUF_11_040
0400D2 2F 01 00          0331 	dl BUF_11_042
0400D5 30 01 00          0332 	dl BUF_11_043
0400D8 31 01 00          0333 	dl BUF_11_044
0400DB 32 01 00          0334 	dl BUF_12_004
0400DE 33 01 00          0335 	dl BUF_12_009
0400E1 34 01 00          0336 	dl BUF_12_010
0400E4 35 01 00          0337 	dl BUF_12_011
0400E7 36 01 00          0338 	dl BUF_12_012
0400EA 37 01 00          0339 	dl BUF_12_013
0400ED 38 01 00          0340 	dl BUF_12_014
0400F0 39 01 00          0341 	dl BUF_12_015
0400F3 3A 01 00          0342 	dl BUF_12_016
0400F6 3B 01 00          0343 	dl BUF_12_020
0400F9 3C 01 00          0344 	dl BUF_12_024
0400FC 3D 01 00          0345 	dl BUF_12_025
0400FF 3E 01 00          0346 	dl BUF_12_026
040102 3F 01 00          0347 	dl BUF_12_027
040105 40 01 00          0348 	dl BUF_12_028
040108 41 01 00          0349 	dl BUF_12_029
04010B 42 01 00          0350 	dl BUF_12_032
04010E 43 01 00          0351 	dl BUF_12_035
040111 44 01 00          0352 	dl BUF_12_036
040114 45 01 00          0353 	dl BUF_12_037
040117 46 01 00          0354 	dl BUF_12_038
04011A 47 01 00          0355 	dl BUF_12_040
04011D 48 01 00          0356 	dl BUF_12_042
040120 49 01 00          0357 	dl BUF_12_043
040123 4A 01 00          0358 	dl BUF_12_044
040126 4B 01 00          0359 	dl BUF_13_004
040129 4C 01 00          0360 	dl BUF_13_009
04012C 4D 01 00          0361 	dl BUF_13_010
04012F 4E 01 00          0362 	dl BUF_13_011
040132 4F 01 00          0363 	dl BUF_13_012
040135 50 01 00          0364 	dl BUF_13_013
040138 51 01 00          0365 	dl BUF_13_014
04013B 52 01 00          0366 	dl BUF_13_015
04013E 53 01 00          0367 	dl BUF_13_016
040141 54 01 00          0368 	dl BUF_13_020
040144 55 01 00          0369 	dl BUF_13_024
040147 56 01 00          0370 	dl BUF_13_025
04014A 57 01 00          0371 	dl BUF_13_026
04014D 58 01 00          0372 	dl BUF_13_027
040150 59 01 00          0373 	dl BUF_13_028
040153 5A 01 00          0374 	dl BUF_13_029
040156 5B 01 00          0375 	dl BUF_13_032
040159 5C 01 00          0376 	dl BUF_13_035
04015C 5D 01 00          0377 	dl BUF_13_036
04015F 5E 01 00          0378 	dl BUF_13_037
040162 5F 01 00          0379 	dl BUF_13_038
040165 60 01 00          0380 	dl BUF_13_040
040168 61 01 00          0381 	dl BUF_13_042
04016B 62 01 00          0382 	dl BUF_13_043
04016E 63 01 00          0383 	dl BUF_13_044
040171 64 01 00          0384 	dl BUF_14_004
040174 65 01 00          0385 	dl BUF_14_009
040177 66 01 00          0386 	dl BUF_14_010
04017A 67 01 00          0387 	dl BUF_14_011
04017D 68 01 00          0388 	dl BUF_14_012
040180 69 01 00          0389 	dl BUF_14_013
040183 6A 01 00          0390 	dl BUF_14_014
040186 6B 01 00          0391 	dl BUF_14_015
040189 6C 01 00          0392 	dl BUF_14_016
04018C 6D 01 00          0393 	dl BUF_14_020
04018F 6E 01 00          0394 	dl BUF_14_024
040192 6F 01 00          0395 	dl BUF_14_025
040195 70 01 00          0396 	dl BUF_14_026
040198 71 01 00          0397 	dl BUF_14_027
04019B 72 01 00          0398 	dl BUF_14_028
04019E 73 01 00          0399 	dl BUF_14_029
0401A1 74 01 00          0400 	dl BUF_14_032
0401A4 75 01 00          0401 	dl BUF_14_035
0401A7 76 01 00          0402 	dl BUF_14_036
0401AA 77 01 00          0403 	dl BUF_14_037
0401AD 78 01 00          0404 	dl BUF_14_038
0401B0 79 01 00          0405 	dl BUF_14_040
0401B3 7A 01 00          0406 	dl BUF_14_042
0401B6 7B 01 00          0407 	dl BUF_14_043
0401B9 7C 01 00          0408 	dl BUF_14_044
0401BC 7D 01 00          0409 	dl BUF_15_004
0401BF 7E 01 00          0410 	dl BUF_15_009
0401C2 7F 01 00          0411 	dl BUF_15_010
0401C5 80 01 00          0412 	dl BUF_15_011
0401C8 81 01 00          0413 	dl BUF_15_012
0401CB 82 01 00          0414 	dl BUF_15_013
0401CE 83 01 00          0415 	dl BUF_15_014
0401D1 84 01 00          0416 	dl BUF_15_015
0401D4 85 01 00          0417 	dl BUF_15_016
0401D7 86 01 00          0418 	dl BUF_15_020
0401DA 87 01 00          0419 	dl BUF_15_024
0401DD 88 01 00          0420 	dl BUF_15_025
0401E0 89 01 00          0421 	dl BUF_15_026
0401E3 8A 01 00          0422 	dl BUF_15_027
0401E6 8B 01 00          0423 	dl BUF_15_028
0401E9 8C 01 00          0424 	dl BUF_15_029
0401EC 8D 01 00          0425 	dl BUF_15_032
0401EF 8E 01 00          0426 	dl BUF_15_035
0401F2 8F 01 00          0427 	dl BUF_15_036
0401F5 90 01 00          0428 	dl BUF_15_037
0401F8 91 01 00          0429 	dl BUF_15_038
0401FB 92 01 00          0430 	dl BUF_15_040
0401FE 93 01 00          0431 	dl BUF_15_042
040201 94 01 00          0432 	dl BUF_15_043
040204 95 01 00          0433 	dl BUF_15_044
040207 96 01 00          0434 	dl BUF_16_004
04020A 97 01 00          0435 	dl BUF_16_009
04020D 98 01 00          0436 	dl BUF_16_010
040210 99 01 00          0437 	dl BUF_16_011
040213 9A 01 00          0438 	dl BUF_16_012
040216 9B 01 00          0439 	dl BUF_16_013
040219 9C 01 00          0440 	dl BUF_16_014
04021C 9D 01 00          0441 	dl BUF_16_015
04021F 9E 01 00          0442 	dl BUF_16_016
040222 9F 01 00          0443 	dl BUF_16_020
040225 A0 01 00          0444 	dl BUF_16_024
040228 A1 01 00          0445 	dl BUF_16_025
04022B A2 01 00          0446 	dl BUF_16_026
04022E A3 01 00          0447 	dl BUF_16_027
040231 A4 01 00          0448 	dl BUF_16_028
040234 A5 01 00          0449 	dl BUF_16_029
040237 A6 01 00          0450 	dl BUF_16_032
04023A A7 01 00          0451 	dl BUF_16_035
04023D A8 01 00          0452 	dl BUF_16_036
040240 A9 01 00          0453 	dl BUF_16_037
040243 AA 01 00          0454 	dl BUF_16_038
040246 AB 01 00          0455 	dl BUF_16_040
040249 AC 01 00          0456 	dl BUF_16_042
04024C AD 01 00          0457 	dl BUF_16_043
04024F AE 01 00          0458 	dl BUF_16_044
040252 AF 01 00          0459 	dl BUF_17_004
040255 B0 01 00          0460 	dl BUF_17_009
040258 B1 01 00          0461 	dl BUF_17_010
04025B B2 01 00          0462 	dl BUF_17_011
04025E B3 01 00          0463 	dl BUF_17_012
040261 B4 01 00          0464 	dl BUF_17_013
040264 B5 01 00          0465 	dl BUF_17_014
040267 B6 01 00          0466 	dl BUF_17_015
04026A B7 01 00          0467 	dl BUF_17_016
04026D B8 01 00          0468 	dl BUF_17_020
040270 B9 01 00          0469 	dl BUF_17_024
040273 BA 01 00          0470 	dl BUF_17_025
040276 BB 01 00          0471 	dl BUF_17_026
040279 BC 01 00          0472 	dl BUF_17_027
04027C BD 01 00          0473 	dl BUF_17_028
04027F BE 01 00          0474 	dl BUF_17_029
040282 BF 01 00          0475 	dl BUF_17_032
040285 C0 01 00          0476 	dl BUF_17_035
040288 C1 01 00          0477 	dl BUF_17_036
04028B C2 01 00          0478 	dl BUF_17_037
04028E C3 01 00          0479 	dl BUF_17_038
040291 C4 01 00          0480 	dl BUF_17_040
040294 C5 01 00          0481 	dl BUF_17_042
040297 C6 01 00          0482 	dl BUF_17_043
04029A C7 01 00          0483 	dl BUF_17_044
04029D C8 01 00          0484 	dl BUF_57_004
0402A0 C9 01 00          0485 	dl BUF_57_009
0402A3 CA 01 00          0486 	dl BUF_57_010
0402A6 CB 01 00          0487 	dl BUF_57_011
0402A9 CC 01 00          0488 	dl BUF_57_012
0402AC CD 01 00          0489 	dl BUF_57_013
0402AF CE 01 00          0490 	dl BUF_57_014
0402B2 CF 01 00          0491 	dl BUF_57_015
0402B5 D0 01 00          0492 	dl BUF_57_016
0402B8 D1 01 00          0493 	dl BUF_57_020
0402BB D2 01 00          0494 	dl BUF_57_024
0402BE D3 01 00          0495 	dl BUF_57_025
0402C1 D4 01 00          0496 	dl BUF_57_026
0402C4 D5 01 00          0497 	dl BUF_57_027
0402C7 D6 01 00          0498 	dl BUF_57_028
0402CA D7 01 00          0499 	dl BUF_57_029
0402CD D8 01 00          0500 	dl BUF_57_032
0402D0 D9 01 00          0501 	dl BUF_57_035
0402D3 DA 01 00          0502 	dl BUF_57_036
0402D6 DB 01 00          0503 	dl BUF_57_037
0402D9 DC 01 00          0504 	dl BUF_57_038
0402DC DD 01 00          0505 	dl BUF_57_040
0402DF DE 01 00          0506 	dl BUF_57_042
0402E2 DF 01 00          0507 	dl BUF_57_043
0402E5 E0 01 00          0508 	dl BUF_57_044
0402E8 E1 01 00          0509 	dl BUF_58_004
0402EB E2 01 00          0510 	dl BUF_58_009
0402EE E3 01 00          0511 	dl BUF_58_010
0402F1 E4 01 00          0512 	dl BUF_58_011
0402F4 E5 01 00          0513 	dl BUF_58_012
0402F7 E6 01 00          0514 	dl BUF_58_013
0402FA E7 01 00          0515 	dl BUF_58_014
0402FD E8 01 00          0516 	dl BUF_58_015
040300 E9 01 00          0517 	dl BUF_58_016
040303 EA 01 00          0518 	dl BUF_58_020
040306 EB 01 00          0519 	dl BUF_58_024
040309 EC 01 00          0520 	dl BUF_58_025
04030C ED 01 00          0521 	dl BUF_58_026
04030F EE 01 00          0522 	dl BUF_58_027
040312 EF 01 00          0523 	dl BUF_58_028
040315 F0 01 00          0524 	dl BUF_58_029
040318 F1 01 00          0525 	dl BUF_58_032
04031B F2 01 00          0526 	dl BUF_58_035
04031E F3 01 00          0527 	dl BUF_58_036
040321 F4 01 00          0528 	dl BUF_58_037
040324 F5 01 00          0529 	dl BUF_58_038
040327 F6 01 00          0530 	dl BUF_58_040
04032A F7 01 00          0531 	dl BUF_58_042
04032D F8 01 00          0532 	dl BUF_58_043
040330 F9 01 00          0533 	dl BUF_58_044
040333 FA 01 00          0534 	dl BUF_59_004
040336 FB 01 00          0535 	dl BUF_59_009
040339 FC 01 00          0536 	dl BUF_59_010
04033C FD 01 00          0537 	dl BUF_59_011
04033F FE 01 00          0538 	dl BUF_59_012
040342 FF 01 00          0539 	dl BUF_59_013
040345 00 02 00          0540 	dl BUF_59_014
040348 01 02 00          0541 	dl BUF_59_015
04034B 02 02 00          0542 	dl BUF_59_016
04034E 03 02 00          0543 	dl BUF_59_020
040351 04 02 00          0544 	dl BUF_59_024
040354 05 02 00          0545 	dl BUF_59_025
040357 06 02 00          0546 	dl BUF_59_026
04035A 07 02 00          0547 	dl BUF_59_027
04035D 08 02 00          0548 	dl BUF_59_028
040360 09 02 00          0549 	dl BUF_59_029
040363 0A 02 00          0550 	dl BUF_59_032
040366 0B 02 00          0551 	dl BUF_59_035
040369 0C 02 00          0552 	dl BUF_59_036
04036C 0D 02 00          0553 	dl BUF_59_037
04036F 0E 02 00          0554 	dl BUF_59_038
040372 0F 02 00          0555 	dl BUF_59_040
040375 10 02 00          0556 	dl BUF_59_042
040378 11 02 00          0557 	dl BUF_59_043
04037B 12 02 00          0558 	dl BUF_59_044
04037E                   0559 
04037E                   0560 ; cube load routines jump table:
04037E                   0561 cube_load_panels_table:
04037E B7 06 04          0562 	dl ld_10_004
040381 E1 06 04          0563 	dl ld_10_009
040384 0B 07 04          0564 	dl ld_10_010
040387 35 07 04          0565 	dl ld_10_011
04038A 5F 07 04          0566 	dl ld_10_012
04038D 89 07 04          0567 	dl ld_10_013
040390 B3 07 04          0568 	dl ld_10_014
040393 DD 07 04          0569 	dl ld_10_015
040396 07 08 04          0570 	dl ld_10_016
040399 31 08 04          0571 	dl ld_10_020
04039C 5B 08 04          0572 	dl ld_10_024
04039F 85 08 04          0573 	dl ld_10_025
0403A2 AF 08 04          0574 	dl ld_10_026
0403A5 D9 08 04          0575 	dl ld_10_027
0403A8 03 09 04          0576 	dl ld_10_028
0403AB 2D 09 04          0577 	dl ld_10_029
0403AE 57 09 04          0578 	dl ld_10_032
0403B1 81 09 04          0579 	dl ld_10_035
0403B4 AB 09 04          0580 	dl ld_10_036
0403B7 D5 09 04          0581 	dl ld_10_037
0403BA FF 09 04          0582 	dl ld_10_038
0403BD 29 0A 04          0583 	dl ld_10_040
0403C0 53 0A 04          0584 	dl ld_10_042
0403C3 7D 0A 04          0585 	dl ld_10_043
0403C6 A7 0A 04          0586 	dl ld_10_044
0403C9 D1 0A 04          0587 	dl ld_11_004
0403CC FB 0A 04          0588 	dl ld_11_009
0403CF 25 0B 04          0589 	dl ld_11_010
0403D2 4F 0B 04          0590 	dl ld_11_011
0403D5 79 0B 04          0591 	dl ld_11_012
0403D8 A3 0B 04          0592 	dl ld_11_013
0403DB CD 0B 04          0593 	dl ld_11_014
0403DE F7 0B 04          0594 	dl ld_11_015
0403E1 21 0C 04          0595 	dl ld_11_016
0403E4 4B 0C 04          0596 	dl ld_11_020
0403E7 75 0C 04          0597 	dl ld_11_024
0403EA 9F 0C 04          0598 	dl ld_11_025
0403ED C9 0C 04          0599 	dl ld_11_026
0403F0 F3 0C 04          0600 	dl ld_11_027
0403F3 1D 0D 04          0601 	dl ld_11_028
0403F6 47 0D 04          0602 	dl ld_11_029
0403F9 71 0D 04          0603 	dl ld_11_032
0403FC 9B 0D 04          0604 	dl ld_11_035
0403FF C5 0D 04          0605 	dl ld_11_036
040402 EF 0D 04          0606 	dl ld_11_037
040405 19 0E 04          0607 	dl ld_11_038
040408 43 0E 04          0608 	dl ld_11_040
04040B 6D 0E 04          0609 	dl ld_11_042
04040E 97 0E 04          0610 	dl ld_11_043
040411 C1 0E 04          0611 	dl ld_11_044
040414 EB 0E 04          0612 	dl ld_12_004
040417 15 0F 04          0613 	dl ld_12_009
04041A 3F 0F 04          0614 	dl ld_12_010
04041D 69 0F 04          0615 	dl ld_12_011
040420 93 0F 04          0616 	dl ld_12_012
040423 BD 0F 04          0617 	dl ld_12_013
040426 E7 0F 04          0618 	dl ld_12_014
040429 11 10 04          0619 	dl ld_12_015
04042C 3B 10 04          0620 	dl ld_12_016
04042F 65 10 04          0621 	dl ld_12_020
040432 8F 10 04          0622 	dl ld_12_024
040435 B9 10 04          0623 	dl ld_12_025
040438 E3 10 04          0624 	dl ld_12_026
04043B 0D 11 04          0625 	dl ld_12_027
04043E 37 11 04          0626 	dl ld_12_028
040441 61 11 04          0627 	dl ld_12_029
040444 8B 11 04          0628 	dl ld_12_032
040447 B5 11 04          0629 	dl ld_12_035
04044A DF 11 04          0630 	dl ld_12_036
04044D 09 12 04          0631 	dl ld_12_037
040450 33 12 04          0632 	dl ld_12_038
040453 5D 12 04          0633 	dl ld_12_040
040456 87 12 04          0634 	dl ld_12_042
040459 B1 12 04          0635 	dl ld_12_043
04045C DB 12 04          0636 	dl ld_12_044
04045F 05 13 04          0637 	dl ld_13_004
040462 2F 13 04          0638 	dl ld_13_009
040465 59 13 04          0639 	dl ld_13_010
040468 83 13 04          0640 	dl ld_13_011
04046B AD 13 04          0641 	dl ld_13_012
04046E D7 13 04          0642 	dl ld_13_013
040471 01 14 04          0643 	dl ld_13_014
040474 2B 14 04          0644 	dl ld_13_015
040477 55 14 04          0645 	dl ld_13_016
04047A 7F 14 04          0646 	dl ld_13_020
04047D A9 14 04          0647 	dl ld_13_024
040480 D3 14 04          0648 	dl ld_13_025
040483 FD 14 04          0649 	dl ld_13_026
040486 27 15 04          0650 	dl ld_13_027
040489 51 15 04          0651 	dl ld_13_028
04048C 7B 15 04          0652 	dl ld_13_029
04048F A5 15 04          0653 	dl ld_13_032
040492 CF 15 04          0654 	dl ld_13_035
040495 F9 15 04          0655 	dl ld_13_036
040498 23 16 04          0656 	dl ld_13_037
04049B 4D 16 04          0657 	dl ld_13_038
04049E 77 16 04          0658 	dl ld_13_040
0404A1 A1 16 04          0659 	dl ld_13_042
0404A4 CB 16 04          0660 	dl ld_13_043
0404A7 F5 16 04          0661 	dl ld_13_044
0404AA 1F 17 04          0662 	dl ld_14_004
0404AD 49 17 04          0663 	dl ld_14_009
0404B0 73 17 04          0664 	dl ld_14_010
0404B3 9D 17 04          0665 	dl ld_14_011
0404B6 C7 17 04          0666 	dl ld_14_012
0404B9 F1 17 04          0667 	dl ld_14_013
0404BC 1B 18 04          0668 	dl ld_14_014
0404BF 45 18 04          0669 	dl ld_14_015
0404C2 6F 18 04          0670 	dl ld_14_016
0404C5 99 18 04          0671 	dl ld_14_020
0404C8 C3 18 04          0672 	dl ld_14_024
0404CB ED 18 04          0673 	dl ld_14_025
0404CE 17 19 04          0674 	dl ld_14_026
0404D1 41 19 04          0675 	dl ld_14_027
0404D4 6B 19 04          0676 	dl ld_14_028
0404D7 95 19 04          0677 	dl ld_14_029
0404DA BF 19 04          0678 	dl ld_14_032
0404DD E9 19 04          0679 	dl ld_14_035
0404E0 13 1A 04          0680 	dl ld_14_036
0404E3 3D 1A 04          0681 	dl ld_14_037
0404E6 67 1A 04          0682 	dl ld_14_038
0404E9 91 1A 04          0683 	dl ld_14_040
0404EC BB 1A 04          0684 	dl ld_14_042
0404EF E5 1A 04          0685 	dl ld_14_043
0404F2 0F 1B 04          0686 	dl ld_14_044
0404F5 39 1B 04          0687 	dl ld_15_004
0404F8 63 1B 04          0688 	dl ld_15_009
0404FB 8D 1B 04          0689 	dl ld_15_010
0404FE B7 1B 04          0690 	dl ld_15_011
040501 E1 1B 04          0691 	dl ld_15_012
040504 0B 1C 04          0692 	dl ld_15_013
040507 35 1C 04          0693 	dl ld_15_014
04050A 5F 1C 04          0694 	dl ld_15_015
04050D 89 1C 04          0695 	dl ld_15_016
040510 B3 1C 04          0696 	dl ld_15_020
040513 DD 1C 04          0697 	dl ld_15_024
040516 07 1D 04          0698 	dl ld_15_025
040519 31 1D 04          0699 	dl ld_15_026
04051C 5B 1D 04          0700 	dl ld_15_027
04051F 85 1D 04          0701 	dl ld_15_028
040522 AF 1D 04          0702 	dl ld_15_029
040525 D9 1D 04          0703 	dl ld_15_032
040528 03 1E 04          0704 	dl ld_15_035
04052B 2D 1E 04          0705 	dl ld_15_036
04052E 57 1E 04          0706 	dl ld_15_037
040531 81 1E 04          0707 	dl ld_15_038
040534 AB 1E 04          0708 	dl ld_15_040
040537 D5 1E 04          0709 	dl ld_15_042
04053A FF 1E 04          0710 	dl ld_15_043
04053D 29 1F 04          0711 	dl ld_15_044
040540 53 1F 04          0712 	dl ld_16_004
040543 7D 1F 04          0713 	dl ld_16_009
040546 A7 1F 04          0714 	dl ld_16_010
040549 D1 1F 04          0715 	dl ld_16_011
04054C FB 1F 04          0716 	dl ld_16_012
04054F 25 20 04          0717 	dl ld_16_013
040552 4F 20 04          0718 	dl ld_16_014
040555 79 20 04          0719 	dl ld_16_015
040558 A3 20 04          0720 	dl ld_16_016
04055B CD 20 04          0721 	dl ld_16_020
04055E F7 20 04          0722 	dl ld_16_024
040561 21 21 04          0723 	dl ld_16_025
040564 4B 21 04          0724 	dl ld_16_026
040567 75 21 04          0725 	dl ld_16_027
04056A 9F 21 04          0726 	dl ld_16_028
04056D C9 21 04          0727 	dl ld_16_029
040570 F3 21 04          0728 	dl ld_16_032
040573 1D 22 04          0729 	dl ld_16_035
040576 47 22 04          0730 	dl ld_16_036
040579 71 22 04          0731 	dl ld_16_037
04057C 9B 22 04          0732 	dl ld_16_038
04057F C5 22 04          0733 	dl ld_16_040
040582 EF 22 04          0734 	dl ld_16_042
040585 19 23 04          0735 	dl ld_16_043
040588 43 23 04          0736 	dl ld_16_044
04058B 6D 23 04          0737 	dl ld_17_004
04058E 97 23 04          0738 	dl ld_17_009
040591 C1 23 04          0739 	dl ld_17_010
040594 EB 23 04          0740 	dl ld_17_011
040597 15 24 04          0741 	dl ld_17_012
04059A 3F 24 04          0742 	dl ld_17_013
04059D 69 24 04          0743 	dl ld_17_014
0405A0 93 24 04          0744 	dl ld_17_015
0405A3 BD 24 04          0745 	dl ld_17_016
0405A6 E7 24 04          0746 	dl ld_17_020
0405A9 11 25 04          0747 	dl ld_17_024
0405AC 3B 25 04          0748 	dl ld_17_025
0405AF 65 25 04          0749 	dl ld_17_026
0405B2 8F 25 04          0750 	dl ld_17_027
0405B5 B9 25 04          0751 	dl ld_17_028
0405B8 E3 25 04          0752 	dl ld_17_029
0405BB 0D 26 04          0753 	dl ld_17_032
0405BE 37 26 04          0754 	dl ld_17_035
0405C1 61 26 04          0755 	dl ld_17_036
0405C4 8B 26 04          0756 	dl ld_17_037
0405C7 B5 26 04          0757 	dl ld_17_038
0405CA DF 26 04          0758 	dl ld_17_040
0405CD 09 27 04          0759 	dl ld_17_042
0405D0 33 27 04          0760 	dl ld_17_043
0405D3 5D 27 04          0761 	dl ld_17_044
0405D6 87 27 04          0762 	dl ld_57_004
0405D9 B1 27 04          0763 	dl ld_57_009
0405DC DB 27 04          0764 	dl ld_57_010
0405DF 05 28 04          0765 	dl ld_57_011
0405E2 2F 28 04          0766 	dl ld_57_012
0405E5 59 28 04          0767 	dl ld_57_013
0405E8 83 28 04          0768 	dl ld_57_014
0405EB AD 28 04          0769 	dl ld_57_015
0405EE D7 28 04          0770 	dl ld_57_016
0405F1 01 29 04          0771 	dl ld_57_020
0405F4 2B 29 04          0772 	dl ld_57_024
0405F7 55 29 04          0773 	dl ld_57_025
0405FA 7F 29 04          0774 	dl ld_57_026
0405FD A9 29 04          0775 	dl ld_57_027
040600 D3 29 04          0776 	dl ld_57_028
040603 FD 29 04          0777 	dl ld_57_029
040606 27 2A 04          0778 	dl ld_57_032
040609 51 2A 04          0779 	dl ld_57_035
04060C 7B 2A 04          0780 	dl ld_57_036
04060F A5 2A 04          0781 	dl ld_57_037
040612 CF 2A 04          0782 	dl ld_57_038
040615 F9 2A 04          0783 	dl ld_57_040
040618 23 2B 04          0784 	dl ld_57_042
04061B 4D 2B 04          0785 	dl ld_57_043
04061E 77 2B 04          0786 	dl ld_57_044
040621 A1 2B 04          0787 	dl ld_58_004
040624 CB 2B 04          0788 	dl ld_58_009
040627 F5 2B 04          0789 	dl ld_58_010
04062A 1F 2C 04          0790 	dl ld_58_011
04062D 49 2C 04          0791 	dl ld_58_012
040630 73 2C 04          0792 	dl ld_58_013
040633 9D 2C 04          0793 	dl ld_58_014
040636 C7 2C 04          0794 	dl ld_58_015
040639 F1 2C 04          0795 	dl ld_58_016
04063C 1B 2D 04          0796 	dl ld_58_020
04063F 45 2D 04          0797 	dl ld_58_024
040642 6F 2D 04          0798 	dl ld_58_025
040645 99 2D 04          0799 	dl ld_58_026
040648 C3 2D 04          0800 	dl ld_58_027
04064B ED 2D 04          0801 	dl ld_58_028
04064E 17 2E 04          0802 	dl ld_58_029
040651 41 2E 04          0803 	dl ld_58_032
040654 6B 2E 04          0804 	dl ld_58_035
040657 95 2E 04          0805 	dl ld_58_036
04065A BF 2E 04          0806 	dl ld_58_037
04065D E9 2E 04          0807 	dl ld_58_038
040660 13 2F 04          0808 	dl ld_58_040
040663 3D 2F 04          0809 	dl ld_58_042
040666 67 2F 04          0810 	dl ld_58_043
040669 91 2F 04          0811 	dl ld_58_044
04066C BB 2F 04          0812 	dl ld_59_004
04066F E5 2F 04          0813 	dl ld_59_009
040672 0F 30 04          0814 	dl ld_59_010
040675 39 30 04          0815 	dl ld_59_011
040678 63 30 04          0816 	dl ld_59_012
04067B 8D 30 04          0817 	dl ld_59_013
04067E B7 30 04          0818 	dl ld_59_014
040681 E1 30 04          0819 	dl ld_59_015
040684 0B 31 04          0820 	dl ld_59_016
040687 35 31 04          0821 	dl ld_59_020
04068A 5F 31 04          0822 	dl ld_59_024
04068D 89 31 04          0823 	dl ld_59_025
040690 B3 31 04          0824 	dl ld_59_026
040693 DD 31 04          0825 	dl ld_59_027
040696 07 32 04          0826 	dl ld_59_028
040699 31 32 04          0827 	dl ld_59_029
04069C 5B 32 04          0828 	dl ld_59_032
04069F 85 32 04          0829 	dl ld_59_035
0406A2 AF 32 04          0830 	dl ld_59_036
0406A5 D9 32 04          0831 	dl ld_59_037
0406A8 03 33 04          0832 	dl ld_59_038
0406AB 2D 33 04          0833 	dl ld_59_040
0406AE 57 33 04          0834 	dl ld_59_042
0406B1 81 33 04          0835 	dl ld_59_043
0406B4 AB 33 04          0836 	dl ld_59_044
0406B7                   0837 
0406B7                   0838 ; Import cube .rgba2 bitmap files and load them into VDP buffers
0406B7                   0839 
0406B7                   0840 ld_10_004:
0406B7 21 D5 33 04       0841 	ld hl,F10_004
0406BB 22 CD A5 04       0842 	ld (cur_filename),hl
0406BF 11 AD A7 04       0843 	ld de,filedata
0406C3 01 00 00 01       0844 	ld bc,65536
0406C7 3E 01             0845 	ld a,mos_load
0406C9 5B CF             0846 	RST.LIL 08h
0406CB 21 00 01 00       0847 	ld hl,BUF_10_004
0406CF 01 24 00 00       0848 	ld bc,36
0406D3 11 23 00 00       0849 	ld de,35
0406D7 DD 21 EC 04 00    0850 	ld ix,1260
0406DC CD 3E A7 04       0851 	call vdu_load_img
0406E0 C9                0852 	ret
0406E1                   0853 
0406E1                   0854 ld_10_009:
0406E1 21 E9 33 04       0855 	ld hl,F10_009
0406E5 22 CD A5 04       0856 	ld (cur_filename),hl
0406E9 11 AD A7 04       0857 	ld de,filedata
0406ED 01 00 00 01       0858 	ld bc,65536
0406F1 3E 01             0859 	ld a,mos_load
0406F3 5B CF             0860 	RST.LIL 08h
0406F5 21 01 01 00       0861 	ld hl,BUF_10_009
0406F9 01 23 00 00       0862 	ld bc,35
0406FD 11 2D 00 00       0863 	ld de,45
040701 DD 21 27 06 00    0864 	ld ix,1575
040706 CD 3E A7 04       0865 	call vdu_load_img
04070A C9                0866 	ret
04070B                   0867 
04070B                   0868 ld_10_010:
04070B 21 FD 33 04       0869 	ld hl,F10_010
04070F 22 CD A5 04       0870 	ld (cur_filename),hl
040713 11 AD A7 04       0871 	ld de,filedata
040717 01 00 00 01       0872 	ld bc,65536
04071B 3E 01             0873 	ld a,mos_load
04071D 5B CF             0874 	RST.LIL 08h
04071F 21 02 01 00       0875 	ld hl,BUF_10_010
040723 01 19 00 00       0876 	ld bc,25
040727 11 2D 00 00       0877 	ld de,45
04072B DD 21 65 04 00    0878 	ld ix,1125
040730 CD 3E A7 04       0879 	call vdu_load_img
040734 C9                0880 	ret
040735                   0881 
040735                   0882 ld_10_011:
040735 21 11 34 04       0883 	ld hl,F10_011
040739 22 CD A5 04       0884 	ld (cur_filename),hl
04073D 11 AD A7 04       0885 	ld de,filedata
040741 01 00 00 01       0886 	ld bc,65536
040745 3E 01             0887 	ld a,mos_load
040747 5B CF             0888 	RST.LIL 08h
040749 21 03 01 00       0889 	ld hl,BUF_10_011
04074D 01 0F 00 00       0890 	ld bc,15
040751 11 2D 00 00       0891 	ld de,45
040755 DD 21 A3 02 00    0892 	ld ix,675
04075A CD 3E A7 04       0893 	call vdu_load_img
04075E C9                0894 	ret
04075F                   0895 
04075F                   0896 ld_10_012:
04075F 21 25 34 04       0897 	ld hl,F10_012
040763 22 CD A5 04       0898 	ld (cur_filename),hl
040767 11 AD A7 04       0899 	ld de,filedata
04076B 01 00 00 01       0900 	ld bc,65536
04076F 3E 01             0901 	ld a,mos_load
040771 5B CF             0902 	RST.LIL 08h
040773 21 04 01 00       0903 	ld hl,BUF_10_012
040777 01 05 00 00       0904 	ld bc,5
04077B 11 2D 00 00       0905 	ld de,45
04077F DD 21 E1 00 00    0906 	ld ix,225
040784 CD 3E A7 04       0907 	call vdu_load_img
040788 C9                0908 	ret
040789                   0909 
040789                   0910 ld_10_013:
040789 21 39 34 04       0911 	ld hl,F10_013
04078D 22 CD A5 04       0912 	ld (cur_filename),hl
040791 11 AD A7 04       0913 	ld de,filedata
040795 01 00 00 01       0914 	ld bc,65536
040799 3E 01             0915 	ld a,mos_load
04079B 5B CF             0916 	RST.LIL 08h
04079D 21 05 01 00       0917 	ld hl,BUF_10_013
0407A1 01 05 00 00       0918 	ld bc,5
0407A5 11 2B 00 00       0919 	ld de,43
0407A9 DD 21 D7 00 00    0920 	ld ix,215
0407AE CD 3E A7 04       0921 	call vdu_load_img
0407B2 C9                0922 	ret
0407B3                   0923 
0407B3                   0924 ld_10_014:
0407B3 21 4D 34 04       0925 	ld hl,F10_014
0407B7 22 CD A5 04       0926 	ld (cur_filename),hl
0407BB 11 AD A7 04       0927 	ld de,filedata
0407BF 01 00 00 01       0928 	ld bc,65536
0407C3 3E 01             0929 	ld a,mos_load
0407C5 5B CF             0930 	RST.LIL 08h
0407C7 21 06 01 00       0931 	ld hl,BUF_10_014
0407CB 01 0F 00 00       0932 	ld bc,15
0407CF 11 2D 00 00       0933 	ld de,45
0407D3 DD 21 A3 02 00    0934 	ld ix,675
0407D8 CD 3E A7 04       0935 	call vdu_load_img
0407DC C9                0936 	ret
0407DD                   0937 
0407DD                   0938 ld_10_015:
0407DD 21 61 34 04       0939 	ld hl,F10_015
0407E1 22 CD A5 04       0940 	ld (cur_filename),hl
0407E5 11 AD A7 04       0941 	ld de,filedata
0407E9 01 00 00 01       0942 	ld bc,65536
0407ED 3E 01             0943 	ld a,mos_load
0407EF 5B CF             0944 	RST.LIL 08h
0407F1 21 07 01 00       0945 	ld hl,BUF_10_015
0407F5 01 19 00 00       0946 	ld bc,25
0407F9 11 2D 00 00       0947 	ld de,45
0407FD DD 21 65 04 00    0948 	ld ix,1125
040802 CD 3E A7 04       0949 	call vdu_load_img
040806 C9                0950 	ret
040807                   0951 
040807                   0952 ld_10_016:
040807 21 75 34 04       0953 	ld hl,F10_016
04080B 22 CD A5 04       0954 	ld (cur_filename),hl
04080F 11 AD A7 04       0955 	ld de,filedata
040813 01 00 00 01       0956 	ld bc,65536
040817 3E 01             0957 	ld a,mos_load
040819 5B CF             0958 	RST.LIL 08h
04081B 21 08 01 00       0959 	ld hl,BUF_10_016
04081F 01 23 00 00       0960 	ld bc,35
040823 11 2D 00 00       0961 	ld de,45
040827 DD 21 27 06 00    0962 	ld ix,1575
04082C CD 3E A7 04       0963 	call vdu_load_img
040830 C9                0964 	ret
040831                   0965 
040831                   0966 ld_10_020:
040831 21 89 34 04       0967 	ld hl,F10_020
040835 22 CD A5 04       0968 	ld (cur_filename),hl
040839 11 AD A7 04       0969 	ld de,filedata
04083D 01 00 00 01       0970 	ld bc,65536
040841 3E 01             0971 	ld a,mos_load
040843 5B CF             0972 	RST.LIL 08h
040845 21 09 01 00       0973 	ld hl,BUF_10_020
040849 01 2E 00 00       0974 	ld bc,46
04084D 11 2D 00 00       0975 	ld de,45
040851 DD 21 16 08 00    0976 	ld ix,2070
040856 CD 3E A7 04       0977 	call vdu_load_img
04085A C9                0978 	ret
04085B                   0979 
04085B                   0980 ld_10_024:
04085B 21 9D 34 04       0981 	ld hl,F10_024
04085F 22 CD A5 04       0982 	ld (cur_filename),hl
040863 11 AD A7 04       0983 	ld de,filedata
040867 01 00 00 01       0984 	ld bc,65536
04086B 3E 01             0985 	ld a,mos_load
04086D 5B CF             0986 	RST.LIL 08h
04086F 21 0A 01 00       0987 	ld hl,BUF_10_024
040873 01 2E 00 00       0988 	ld bc,46
040877 11 40 00 00       0989 	ld de,64
04087B DD 21 80 0B 00    0990 	ld ix,2944
040880 CD 3E A7 04       0991 	call vdu_load_img
040884 C9                0992 	ret
040885                   0993 
040885                   0994 ld_10_025:
040885 21 B1 34 04       0995 	ld hl,F10_025
040889 22 CD A5 04       0996 	ld (cur_filename),hl
04088D 11 AD A7 04       0997 	ld de,filedata
040891 01 00 00 01       0998 	ld bc,65536
040895 3E 01             0999 	ld a,mos_load
040897 5B CF             1000 	RST.LIL 08h
040899 21 0B 01 00       1001 	ld hl,BUF_10_025
04089D 01 1C 00 00       1002 	ld bc,28
0408A1 11 40 00 00       1003 	ld de,64
0408A5 DD 21 00 07 00    1004 	ld ix,1792
0408AA CD 3E A7 04       1005 	call vdu_load_img
0408AE C9                1006 	ret
0408AF                   1007 
0408AF                   1008 ld_10_026:
0408AF 21 C5 34 04       1009 	ld hl,F10_026
0408B3 22 CD A5 04       1010 	ld (cur_filename),hl
0408B7 11 AD A7 04       1011 	ld de,filedata
0408BB 01 00 00 01       1012 	ld bc,65536
0408BF 3E 01             1013 	ld a,mos_load
0408C1 5B CF             1014 	RST.LIL 08h
0408C3 21 0C 01 00       1015 	ld hl,BUF_10_026
0408C7 01 09 00 00       1016 	ld bc,9
0408CB 11 40 00 00       1017 	ld de,64
0408CF DD 21 40 02 00    1018 	ld ix,576
0408D4 CD 3E A7 04       1019 	call vdu_load_img
0408D8 C9                1020 	ret
0408D9                   1021 
0408D9                   1022 ld_10_027:
0408D9 21 D9 34 04       1023 	ld hl,F10_027
0408DD 22 CD A5 04       1024 	ld (cur_filename),hl
0408E1 11 AD A7 04       1025 	ld de,filedata
0408E5 01 00 00 01       1026 	ld bc,65536
0408E9 3E 01             1027 	ld a,mos_load
0408EB 5B CF             1028 	RST.LIL 08h
0408ED 21 0D 01 00       1029 	ld hl,BUF_10_027
0408F1 01 0A 00 00       1030 	ld bc,10
0408F5 11 3E 00 00       1031 	ld de,62
0408F9 DD 21 6C 02 00    1032 	ld ix,620
0408FE CD 3E A7 04       1033 	call vdu_load_img
040902 C9                1034 	ret
040903                   1035 
040903                   1036 ld_10_028:
040903 21 ED 34 04       1037 	ld hl,F10_028
040907 22 CD A5 04       1038 	ld (cur_filename),hl
04090B 11 AD A7 04       1039 	ld de,filedata
04090F 01 00 00 01       1040 	ld bc,65536
040913 3E 01             1041 	ld a,mos_load
040915 5B CF             1042 	RST.LIL 08h
040917 21 0E 01 00       1043 	ld hl,BUF_10_028
04091B 01 1C 00 00       1044 	ld bc,28
04091F 11 40 00 00       1045 	ld de,64
040923 DD 21 00 07 00    1046 	ld ix,1792
040928 CD 3E A7 04       1047 	call vdu_load_img
04092C C9                1048 	ret
04092D                   1049 
04092D                   1050 ld_10_029:
04092D 21 01 35 04       1051 	ld hl,F10_029
040931 22 CD A5 04       1052 	ld (cur_filename),hl
040935 11 AD A7 04       1053 	ld de,filedata
040939 01 00 00 01       1054 	ld bc,65536
04093D 3E 01             1055 	ld a,mos_load
04093F 5B CF             1056 	RST.LIL 08h
040941 21 0F 01 00       1057 	ld hl,BUF_10_029
040945 01 2F 00 00       1058 	ld bc,47
040949 11 40 00 00       1059 	ld de,64
04094D DD 21 C0 0B 00    1060 	ld ix,3008
040952 CD 3E A7 04       1061 	call vdu_load_img
040956 C9                1062 	ret
040957                   1063 
040957                   1064 ld_10_032:
040957 21 15 35 04       1065 	ld hl,F10_032
04095B 22 CD A5 04       1066 	ld (cur_filename),hl
04095F 11 AD A7 04       1067 	ld de,filedata
040963 01 00 00 01       1068 	ld bc,65536
040967 3E 01             1069 	ld a,mos_load
040969 5B CF             1070 	RST.LIL 08h
04096B 21 10 01 00       1071 	ld hl,BUF_10_032
04096F 01 41 00 00       1072 	ld bc,65
040973 11 40 00 00       1073 	ld de,64
040977 DD 21 40 10 00    1074 	ld ix,4160
04097C CD 3E A7 04       1075 	call vdu_load_img
040980 C9                1076 	ret
040981                   1077 
040981                   1078 ld_10_035:
040981 21 29 35 04       1079 	ld hl,F10_035
040985 22 CD A5 04       1080 	ld (cur_filename),hl
040989 11 AD A7 04       1081 	ld de,filedata
04098D 01 00 00 01       1082 	ld bc,65536
040991 3E 01             1083 	ld a,mos_load
040993 5B CF             1084 	RST.LIL 08h
040995 21 11 01 00       1085 	ld hl,BUF_10_035
040999 01 3F 00 00       1086 	ld bc,63
04099D 11 6B 00 00       1087 	ld de,107
0409A1 DD 21 55 1A 00    1088 	ld ix,6741
0409A6 CD 3E A7 04       1089 	call vdu_load_img
0409AA C9                1090 	ret
0409AB                   1091 
0409AB                   1092 ld_10_036:
0409AB 21 3D 35 04       1093 	ld hl,F10_036
0409AF 22 CD A5 04       1094 	ld (cur_filename),hl
0409B3 11 AD A7 04       1095 	ld de,filedata
0409B7 01 00 00 01       1096 	ld bc,65536
0409BB 3E 01             1097 	ld a,mos_load
0409BD 5B CF             1098 	RST.LIL 08h
0409BF 21 12 01 00       1099 	ld hl,BUF_10_036
0409C3 01 16 00 00       1100 	ld bc,22
0409C7 11 6B 00 00       1101 	ld de,107
0409CB DD 21 32 09 00    1102 	ld ix,2354
0409D0 CD 3E A7 04       1103 	call vdu_load_img
0409D4 C9                1104 	ret
0409D5                   1105 
0409D5                   1106 ld_10_037:
0409D5 21 51 35 04       1107 	ld hl,F10_037
0409D9 22 CD A5 04       1108 	ld (cur_filename),hl
0409DD 11 AD A7 04       1109 	ld de,filedata
0409E1 01 00 00 01       1110 	ld bc,65536
0409E5 3E 01             1111 	ld a,mos_load
0409E7 5B CF             1112 	RST.LIL 08h
0409E9 21 13 01 00       1113 	ld hl,BUF_10_037
0409ED 01 15 00 00       1114 	ld bc,21
0409F1 11 69 00 00       1115 	ld de,105
0409F5 DD 21 9D 08 00    1116 	ld ix,2205
0409FA CD 3E A7 04       1117 	call vdu_load_img
0409FE C9                1118 	ret
0409FF                   1119 
0409FF                   1120 ld_10_038:
0409FF 21 65 35 04       1121 	ld hl,F10_038
040A03 22 CD A5 04       1122 	ld (cur_filename),hl
040A07 11 AD A7 04       1123 	ld de,filedata
040A0B 01 00 00 01       1124 	ld bc,65536
040A0F 3E 01             1125 	ld a,mos_load
040A11 5B CF             1126 	RST.LIL 08h
040A13 21 14 01 00       1127 	ld hl,BUF_10_038
040A17 01 3F 00 00       1128 	ld bc,63
040A1B 11 6B 00 00       1129 	ld de,107
040A1F DD 21 55 1A 00    1130 	ld ix,6741
040A24 CD 3E A7 04       1131 	call vdu_load_img
040A28 C9                1132 	ret
040A29                   1133 
040A29                   1134 ld_10_040:
040A29 21 79 35 04       1135 	ld hl,F10_040
040A2D 22 CD A5 04       1136 	ld (cur_filename),hl
040A31 11 AD A7 04       1137 	ld de,filedata
040A35 01 00 00 01       1138 	ld bc,65536
040A39 3E 01             1139 	ld a,mos_load
040A3B 5B CF             1140 	RST.LIL 08h
040A3D 21 15 01 00       1141 	ld hl,BUF_10_040
040A41 01 6C 00 00       1142 	ld bc,108
040A45 11 6B 00 00       1143 	ld de,107
040A49 DD 21 24 2D 00    1144 	ld ix,11556
040A4E CD 3E A7 04       1145 	call vdu_load_img
040A52 C9                1146 	ret
040A53                   1147 
040A53                   1148 ld_10_042:
040A53 21 8D 35 04       1149 	ld hl,F10_042
040A57 22 CD A5 04       1150 	ld (cur_filename),hl
040A5B 11 AD A7 04       1151 	ld de,filedata
040A5F 01 00 00 01       1152 	ld bc,65536
040A63 3E 01             1153 	ld a,mos_load
040A65 5B CF             1154 	RST.LIL 08h
040A67 21 16 01 00       1155 	ld hl,BUF_10_042
040A6B 01 6A 00 00       1156 	ld bc,106
040A6F 11 A0 00 00       1157 	ld de,160
040A73 DD 21 40 42 00    1158 	ld ix,16960
040A78 CD 3E A7 04       1159 	call vdu_load_img
040A7C C9                1160 	ret
040A7D                   1161 
040A7D                   1162 ld_10_043:
040A7D 21 A1 35 04       1163 	ld hl,F10_043
040A81 22 CD A5 04       1164 	ld (cur_filename),hl
040A85 11 AD A7 04       1165 	ld de,filedata
040A89 01 00 00 01       1166 	ld bc,65536
040A8D 3E 01             1167 	ld a,mos_load
040A8F 5B CF             1168 	RST.LIL 08h
040A91 21 17 01 00       1169 	ld hl,BUF_10_043
040A95 01 6B 00 00       1170 	ld bc,107
040A99 11 A0 00 00       1171 	ld de,160
040A9D DD 21 E0 42 00    1172 	ld ix,17120
040AA2 CD 3E A7 04       1173 	call vdu_load_img
040AA6 C9                1174 	ret
040AA7                   1175 
040AA7                   1176 ld_10_044:
040AA7 21 B5 35 04       1177 	ld hl,F10_044
040AAB 22 CD A5 04       1178 	ld (cur_filename),hl
040AAF 11 AD A7 04       1179 	ld de,filedata
040AB3 01 00 00 01       1180 	ld bc,65536
040AB7 3E 01             1181 	ld a,mos_load
040AB9 5B CF             1182 	RST.LIL 08h
040ABB 21 18 01 00       1183 	ld hl,BUF_10_044
040ABF 01 40 01 00       1184 	ld bc,320
040AC3 11 A0 00 00       1185 	ld de,160
040AC7 DD 21 00 C8 00    1186 	ld ix,51200
040ACC CD 3E A7 04       1187 	call vdu_load_img
040AD0 C9                1188 	ret
040AD1                   1189 
040AD1                   1190 ld_11_004:
040AD1 21 C9 35 04       1191 	ld hl,F11_004
040AD5 22 CD A5 04       1192 	ld (cur_filename),hl
040AD9 11 AD A7 04       1193 	ld de,filedata
040ADD 01 00 00 01       1194 	ld bc,65536
040AE1 3E 01             1195 	ld a,mos_load
040AE3 5B CF             1196 	RST.LIL 08h
040AE5 21 19 01 00       1197 	ld hl,BUF_11_004
040AE9 01 24 00 00       1198 	ld bc,36
040AED 11 23 00 00       1199 	ld de,35
040AF1 DD 21 EC 04 00    1200 	ld ix,1260
040AF6 CD 3E A7 04       1201 	call vdu_load_img
040AFA C9                1202 	ret
040AFB                   1203 
040AFB                   1204 ld_11_009:
040AFB 21 DD 35 04       1205 	ld hl,F11_009
040AFF 22 CD A5 04       1206 	ld (cur_filename),hl
040B03 11 AD A7 04       1207 	ld de,filedata
040B07 01 00 00 01       1208 	ld bc,65536
040B0B 3E 01             1209 	ld a,mos_load
040B0D 5B CF             1210 	RST.LIL 08h
040B0F 21 1A 01 00       1211 	ld hl,BUF_11_009
040B13 01 23 00 00       1212 	ld bc,35
040B17 11 2D 00 00       1213 	ld de,45
040B1B DD 21 27 06 00    1214 	ld ix,1575
040B20 CD 3E A7 04       1215 	call vdu_load_img
040B24 C9                1216 	ret
040B25                   1217 
040B25                   1218 ld_11_010:
040B25 21 F1 35 04       1219 	ld hl,F11_010
040B29 22 CD A5 04       1220 	ld (cur_filename),hl
040B2D 11 AD A7 04       1221 	ld de,filedata
040B31 01 00 00 01       1222 	ld bc,65536
040B35 3E 01             1223 	ld a,mos_load
040B37 5B CF             1224 	RST.LIL 08h
040B39 21 1B 01 00       1225 	ld hl,BUF_11_010
040B3D 01 19 00 00       1226 	ld bc,25
040B41 11 2D 00 00       1227 	ld de,45
040B45 DD 21 65 04 00    1228 	ld ix,1125
040B4A CD 3E A7 04       1229 	call vdu_load_img
040B4E C9                1230 	ret
040B4F                   1231 
040B4F                   1232 ld_11_011:
040B4F 21 05 36 04       1233 	ld hl,F11_011
040B53 22 CD A5 04       1234 	ld (cur_filename),hl
040B57 11 AD A7 04       1235 	ld de,filedata
040B5B 01 00 00 01       1236 	ld bc,65536
040B5F 3E 01             1237 	ld a,mos_load
040B61 5B CF             1238 	RST.LIL 08h
040B63 21 1C 01 00       1239 	ld hl,BUF_11_011
040B67 01 0F 00 00       1240 	ld bc,15
040B6B 11 2D 00 00       1241 	ld de,45
040B6F DD 21 A3 02 00    1242 	ld ix,675
040B74 CD 3E A7 04       1243 	call vdu_load_img
040B78 C9                1244 	ret
040B79                   1245 
040B79                   1246 ld_11_012:
040B79 21 19 36 04       1247 	ld hl,F11_012
040B7D 22 CD A5 04       1248 	ld (cur_filename),hl
040B81 11 AD A7 04       1249 	ld de,filedata
040B85 01 00 00 01       1250 	ld bc,65536
040B89 3E 01             1251 	ld a,mos_load
040B8B 5B CF             1252 	RST.LIL 08h
040B8D 21 1D 01 00       1253 	ld hl,BUF_11_012
040B91 01 05 00 00       1254 	ld bc,5
040B95 11 2D 00 00       1255 	ld de,45
040B99 DD 21 E1 00 00    1256 	ld ix,225
040B9E CD 3E A7 04       1257 	call vdu_load_img
040BA2 C9                1258 	ret
040BA3                   1259 
040BA3                   1260 ld_11_013:
040BA3 21 2D 36 04       1261 	ld hl,F11_013
040BA7 22 CD A5 04       1262 	ld (cur_filename),hl
040BAB 11 AD A7 04       1263 	ld de,filedata
040BAF 01 00 00 01       1264 	ld bc,65536
040BB3 3E 01             1265 	ld a,mos_load
040BB5 5B CF             1266 	RST.LIL 08h
040BB7 21 1E 01 00       1267 	ld hl,BUF_11_013
040BBB 01 05 00 00       1268 	ld bc,5
040BBF 11 2B 00 00       1269 	ld de,43
040BC3 DD 21 D7 00 00    1270 	ld ix,215
040BC8 CD 3E A7 04       1271 	call vdu_load_img
040BCC C9                1272 	ret
040BCD                   1273 
040BCD                   1274 ld_11_014:
040BCD 21 41 36 04       1275 	ld hl,F11_014
040BD1 22 CD A5 04       1276 	ld (cur_filename),hl
040BD5 11 AD A7 04       1277 	ld de,filedata
040BD9 01 00 00 01       1278 	ld bc,65536
040BDD 3E 01             1279 	ld a,mos_load
040BDF 5B CF             1280 	RST.LIL 08h
040BE1 21 1F 01 00       1281 	ld hl,BUF_11_014
040BE5 01 0F 00 00       1282 	ld bc,15
040BE9 11 2D 00 00       1283 	ld de,45
040BED DD 21 A3 02 00    1284 	ld ix,675
040BF2 CD 3E A7 04       1285 	call vdu_load_img
040BF6 C9                1286 	ret
040BF7                   1287 
040BF7                   1288 ld_11_015:
040BF7 21 55 36 04       1289 	ld hl,F11_015
040BFB 22 CD A5 04       1290 	ld (cur_filename),hl
040BFF 11 AD A7 04       1291 	ld de,filedata
040C03 01 00 00 01       1292 	ld bc,65536
040C07 3E 01             1293 	ld a,mos_load
040C09 5B CF             1294 	RST.LIL 08h
040C0B 21 20 01 00       1295 	ld hl,BUF_11_015
040C0F 01 19 00 00       1296 	ld bc,25
040C13 11 2D 00 00       1297 	ld de,45
040C17 DD 21 65 04 00    1298 	ld ix,1125
040C1C CD 3E A7 04       1299 	call vdu_load_img
040C20 C9                1300 	ret
040C21                   1301 
040C21                   1302 ld_11_016:
040C21 21 69 36 04       1303 	ld hl,F11_016
040C25 22 CD A5 04       1304 	ld (cur_filename),hl
040C29 11 AD A7 04       1305 	ld de,filedata
040C2D 01 00 00 01       1306 	ld bc,65536
040C31 3E 01             1307 	ld a,mos_load
040C33 5B CF             1308 	RST.LIL 08h
040C35 21 21 01 00       1309 	ld hl,BUF_11_016
040C39 01 23 00 00       1310 	ld bc,35
040C3D 11 2D 00 00       1311 	ld de,45
040C41 DD 21 27 06 00    1312 	ld ix,1575
040C46 CD 3E A7 04       1313 	call vdu_load_img
040C4A C9                1314 	ret
040C4B                   1315 
040C4B                   1316 ld_11_020:
040C4B 21 7D 36 04       1317 	ld hl,F11_020
040C4F 22 CD A5 04       1318 	ld (cur_filename),hl
040C53 11 AD A7 04       1319 	ld de,filedata
040C57 01 00 00 01       1320 	ld bc,65536
040C5B 3E 01             1321 	ld a,mos_load
040C5D 5B CF             1322 	RST.LIL 08h
040C5F 21 22 01 00       1323 	ld hl,BUF_11_020
040C63 01 2E 00 00       1324 	ld bc,46
040C67 11 2D 00 00       1325 	ld de,45
040C6B DD 21 16 08 00    1326 	ld ix,2070
040C70 CD 3E A7 04       1327 	call vdu_load_img
040C74 C9                1328 	ret
040C75                   1329 
040C75                   1330 ld_11_024:
040C75 21 91 36 04       1331 	ld hl,F11_024
040C79 22 CD A5 04       1332 	ld (cur_filename),hl
040C7D 11 AD A7 04       1333 	ld de,filedata
040C81 01 00 00 01       1334 	ld bc,65536
040C85 3E 01             1335 	ld a,mos_load
040C87 5B CF             1336 	RST.LIL 08h
040C89 21 23 01 00       1337 	ld hl,BUF_11_024
040C8D 01 2E 00 00       1338 	ld bc,46
040C91 11 40 00 00       1339 	ld de,64
040C95 DD 21 80 0B 00    1340 	ld ix,2944
040C9A CD 3E A7 04       1341 	call vdu_load_img
040C9E C9                1342 	ret
040C9F                   1343 
040C9F                   1344 ld_11_025:
040C9F 21 A5 36 04       1345 	ld hl,F11_025
040CA3 22 CD A5 04       1346 	ld (cur_filename),hl
040CA7 11 AD A7 04       1347 	ld de,filedata
040CAB 01 00 00 01       1348 	ld bc,65536
040CAF 3E 01             1349 	ld a,mos_load
040CB1 5B CF             1350 	RST.LIL 08h
040CB3 21 24 01 00       1351 	ld hl,BUF_11_025
040CB7 01 1C 00 00       1352 	ld bc,28
040CBB 11 40 00 00       1353 	ld de,64
040CBF DD 21 00 07 00    1354 	ld ix,1792
040CC4 CD 3E A7 04       1355 	call vdu_load_img
040CC8 C9                1356 	ret
040CC9                   1357 
040CC9                   1358 ld_11_026:
040CC9 21 B9 36 04       1359 	ld hl,F11_026
040CCD 22 CD A5 04       1360 	ld (cur_filename),hl
040CD1 11 AD A7 04       1361 	ld de,filedata
040CD5 01 00 00 01       1362 	ld bc,65536
040CD9 3E 01             1363 	ld a,mos_load
040CDB 5B CF             1364 	RST.LIL 08h
040CDD 21 25 01 00       1365 	ld hl,BUF_11_026
040CE1 01 09 00 00       1366 	ld bc,9
040CE5 11 40 00 00       1367 	ld de,64
040CE9 DD 21 40 02 00    1368 	ld ix,576
040CEE CD 3E A7 04       1369 	call vdu_load_img
040CF2 C9                1370 	ret
040CF3                   1371 
040CF3                   1372 ld_11_027:
040CF3 21 CD 36 04       1373 	ld hl,F11_027
040CF7 22 CD A5 04       1374 	ld (cur_filename),hl
040CFB 11 AD A7 04       1375 	ld de,filedata
040CFF 01 00 00 01       1376 	ld bc,65536
040D03 3E 01             1377 	ld a,mos_load
040D05 5B CF             1378 	RST.LIL 08h
040D07 21 26 01 00       1379 	ld hl,BUF_11_027
040D0B 01 0A 00 00       1380 	ld bc,10
040D0F 11 3E 00 00       1381 	ld de,62
040D13 DD 21 6C 02 00    1382 	ld ix,620
040D18 CD 3E A7 04       1383 	call vdu_load_img
040D1C C9                1384 	ret
040D1D                   1385 
040D1D                   1386 ld_11_028:
040D1D 21 E1 36 04       1387 	ld hl,F11_028
040D21 22 CD A5 04       1388 	ld (cur_filename),hl
040D25 11 AD A7 04       1389 	ld de,filedata
040D29 01 00 00 01       1390 	ld bc,65536
040D2D 3E 01             1391 	ld a,mos_load
040D2F 5B CF             1392 	RST.LIL 08h
040D31 21 27 01 00       1393 	ld hl,BUF_11_028
040D35 01 1C 00 00       1394 	ld bc,28
040D39 11 40 00 00       1395 	ld de,64
040D3D DD 21 00 07 00    1396 	ld ix,1792
040D42 CD 3E A7 04       1397 	call vdu_load_img
040D46 C9                1398 	ret
040D47                   1399 
040D47                   1400 ld_11_029:
040D47 21 F5 36 04       1401 	ld hl,F11_029
040D4B 22 CD A5 04       1402 	ld (cur_filename),hl
040D4F 11 AD A7 04       1403 	ld de,filedata
040D53 01 00 00 01       1404 	ld bc,65536
040D57 3E 01             1405 	ld a,mos_load
040D59 5B CF             1406 	RST.LIL 08h
040D5B 21 28 01 00       1407 	ld hl,BUF_11_029
040D5F 01 2F 00 00       1408 	ld bc,47
040D63 11 40 00 00       1409 	ld de,64
040D67 DD 21 C0 0B 00    1410 	ld ix,3008
040D6C CD 3E A7 04       1411 	call vdu_load_img
040D70 C9                1412 	ret
040D71                   1413 
040D71                   1414 ld_11_032:
040D71 21 09 37 04       1415 	ld hl,F11_032
040D75 22 CD A5 04       1416 	ld (cur_filename),hl
040D79 11 AD A7 04       1417 	ld de,filedata
040D7D 01 00 00 01       1418 	ld bc,65536
040D81 3E 01             1419 	ld a,mos_load
040D83 5B CF             1420 	RST.LIL 08h
040D85 21 29 01 00       1421 	ld hl,BUF_11_032
040D89 01 41 00 00       1422 	ld bc,65
040D8D 11 40 00 00       1423 	ld de,64
040D91 DD 21 40 10 00    1424 	ld ix,4160
040D96 CD 3E A7 04       1425 	call vdu_load_img
040D9A C9                1426 	ret
040D9B                   1427 
040D9B                   1428 ld_11_035:
040D9B 21 1D 37 04       1429 	ld hl,F11_035
040D9F 22 CD A5 04       1430 	ld (cur_filename),hl
040DA3 11 AD A7 04       1431 	ld de,filedata
040DA7 01 00 00 01       1432 	ld bc,65536
040DAB 3E 01             1433 	ld a,mos_load
040DAD 5B CF             1434 	RST.LIL 08h
040DAF 21 2A 01 00       1435 	ld hl,BUF_11_035
040DB3 01 3F 00 00       1436 	ld bc,63
040DB7 11 6B 00 00       1437 	ld de,107
040DBB DD 21 55 1A 00    1438 	ld ix,6741
040DC0 CD 3E A7 04       1439 	call vdu_load_img
040DC4 C9                1440 	ret
040DC5                   1441 
040DC5                   1442 ld_11_036:
040DC5 21 31 37 04       1443 	ld hl,F11_036
040DC9 22 CD A5 04       1444 	ld (cur_filename),hl
040DCD 11 AD A7 04       1445 	ld de,filedata
040DD1 01 00 00 01       1446 	ld bc,65536
040DD5 3E 01             1447 	ld a,mos_load
040DD7 5B CF             1448 	RST.LIL 08h
040DD9 21 2B 01 00       1449 	ld hl,BUF_11_036
040DDD 01 16 00 00       1450 	ld bc,22
040DE1 11 6B 00 00       1451 	ld de,107
040DE5 DD 21 32 09 00    1452 	ld ix,2354
040DEA CD 3E A7 04       1453 	call vdu_load_img
040DEE C9                1454 	ret
040DEF                   1455 
040DEF                   1456 ld_11_037:
040DEF 21 45 37 04       1457 	ld hl,F11_037
040DF3 22 CD A5 04       1458 	ld (cur_filename),hl
040DF7 11 AD A7 04       1459 	ld de,filedata
040DFB 01 00 00 01       1460 	ld bc,65536
040DFF 3E 01             1461 	ld a,mos_load
040E01 5B CF             1462 	RST.LIL 08h
040E03 21 2C 01 00       1463 	ld hl,BUF_11_037
040E07 01 15 00 00       1464 	ld bc,21
040E0B 11 69 00 00       1465 	ld de,105
040E0F DD 21 9D 08 00    1466 	ld ix,2205
040E14 CD 3E A7 04       1467 	call vdu_load_img
040E18 C9                1468 	ret
040E19                   1469 
040E19                   1470 ld_11_038:
040E19 21 59 37 04       1471 	ld hl,F11_038
040E1D 22 CD A5 04       1472 	ld (cur_filename),hl
040E21 11 AD A7 04       1473 	ld de,filedata
040E25 01 00 00 01       1474 	ld bc,65536
040E29 3E 01             1475 	ld a,mos_load
040E2B 5B CF             1476 	RST.LIL 08h
040E2D 21 2D 01 00       1477 	ld hl,BUF_11_038
040E31 01 3F 00 00       1478 	ld bc,63
040E35 11 6B 00 00       1479 	ld de,107
040E39 DD 21 55 1A 00    1480 	ld ix,6741
040E3E CD 3E A7 04       1481 	call vdu_load_img
040E42 C9                1482 	ret
040E43                   1483 
040E43                   1484 ld_11_040:
040E43 21 6D 37 04       1485 	ld hl,F11_040
040E47 22 CD A5 04       1486 	ld (cur_filename),hl
040E4B 11 AD A7 04       1487 	ld de,filedata
040E4F 01 00 00 01       1488 	ld bc,65536
040E53 3E 01             1489 	ld a,mos_load
040E55 5B CF             1490 	RST.LIL 08h
040E57 21 2E 01 00       1491 	ld hl,BUF_11_040
040E5B 01 6C 00 00       1492 	ld bc,108
040E5F 11 6B 00 00       1493 	ld de,107
040E63 DD 21 24 2D 00    1494 	ld ix,11556
040E68 CD 3E A7 04       1495 	call vdu_load_img
040E6C C9                1496 	ret
040E6D                   1497 
040E6D                   1498 ld_11_042:
040E6D 21 81 37 04       1499 	ld hl,F11_042
040E71 22 CD A5 04       1500 	ld (cur_filename),hl
040E75 11 AD A7 04       1501 	ld de,filedata
040E79 01 00 00 01       1502 	ld bc,65536
040E7D 3E 01             1503 	ld a,mos_load
040E7F 5B CF             1504 	RST.LIL 08h
040E81 21 2F 01 00       1505 	ld hl,BUF_11_042
040E85 01 6A 00 00       1506 	ld bc,106
040E89 11 A0 00 00       1507 	ld de,160
040E8D DD 21 40 42 00    1508 	ld ix,16960
040E92 CD 3E A7 04       1509 	call vdu_load_img
040E96 C9                1510 	ret
040E97                   1511 
040E97                   1512 ld_11_043:
040E97 21 95 37 04       1513 	ld hl,F11_043
040E9B 22 CD A5 04       1514 	ld (cur_filename),hl
040E9F 11 AD A7 04       1515 	ld de,filedata
040EA3 01 00 00 01       1516 	ld bc,65536
040EA7 3E 01             1517 	ld a,mos_load
040EA9 5B CF             1518 	RST.LIL 08h
040EAB 21 30 01 00       1519 	ld hl,BUF_11_043
040EAF 01 6B 00 00       1520 	ld bc,107
040EB3 11 A0 00 00       1521 	ld de,160
040EB7 DD 21 E0 42 00    1522 	ld ix,17120
040EBC CD 3E A7 04       1523 	call vdu_load_img
040EC0 C9                1524 	ret
040EC1                   1525 
040EC1                   1526 ld_11_044:
040EC1 21 A9 37 04       1527 	ld hl,F11_044
040EC5 22 CD A5 04       1528 	ld (cur_filename),hl
040EC9 11 AD A7 04       1529 	ld de,filedata
040ECD 01 00 00 01       1530 	ld bc,65536
040ED1 3E 01             1531 	ld a,mos_load
040ED3 5B CF             1532 	RST.LIL 08h
040ED5 21 31 01 00       1533 	ld hl,BUF_11_044
040ED9 01 40 01 00       1534 	ld bc,320
040EDD 11 A0 00 00       1535 	ld de,160
040EE1 DD 21 00 C8 00    1536 	ld ix,51200
040EE6 CD 3E A7 04       1537 	call vdu_load_img
040EEA C9                1538 	ret
040EEB                   1539 
040EEB                   1540 ld_12_004:
040EEB 21 BD 37 04       1541 	ld hl,F12_004
040EEF 22 CD A5 04       1542 	ld (cur_filename),hl
040EF3 11 AD A7 04       1543 	ld de,filedata
040EF7 01 00 00 01       1544 	ld bc,65536
040EFB 3E 01             1545 	ld a,mos_load
040EFD 5B CF             1546 	RST.LIL 08h
040EFF 21 32 01 00       1547 	ld hl,BUF_12_004
040F03 01 24 00 00       1548 	ld bc,36
040F07 11 23 00 00       1549 	ld de,35
040F0B DD 21 EC 04 00    1550 	ld ix,1260
040F10 CD 3E A7 04       1551 	call vdu_load_img
040F14 C9                1552 	ret
040F15                   1553 
040F15                   1554 ld_12_009:
040F15 21 D1 37 04       1555 	ld hl,F12_009
040F19 22 CD A5 04       1556 	ld (cur_filename),hl
040F1D 11 AD A7 04       1557 	ld de,filedata
040F21 01 00 00 01       1558 	ld bc,65536
040F25 3E 01             1559 	ld a,mos_load
040F27 5B CF             1560 	RST.LIL 08h
040F29 21 33 01 00       1561 	ld hl,BUF_12_009
040F2D 01 23 00 00       1562 	ld bc,35
040F31 11 2D 00 00       1563 	ld de,45
040F35 DD 21 27 06 00    1564 	ld ix,1575
040F3A CD 3E A7 04       1565 	call vdu_load_img
040F3E C9                1566 	ret
040F3F                   1567 
040F3F                   1568 ld_12_010:
040F3F 21 E5 37 04       1569 	ld hl,F12_010
040F43 22 CD A5 04       1570 	ld (cur_filename),hl
040F47 11 AD A7 04       1571 	ld de,filedata
040F4B 01 00 00 01       1572 	ld bc,65536
040F4F 3E 01             1573 	ld a,mos_load
040F51 5B CF             1574 	RST.LIL 08h
040F53 21 34 01 00       1575 	ld hl,BUF_12_010
040F57 01 19 00 00       1576 	ld bc,25
040F5B 11 2D 00 00       1577 	ld de,45
040F5F DD 21 65 04 00    1578 	ld ix,1125
040F64 CD 3E A7 04       1579 	call vdu_load_img
040F68 C9                1580 	ret
040F69                   1581 
040F69                   1582 ld_12_011:
040F69 21 F9 37 04       1583 	ld hl,F12_011
040F6D 22 CD A5 04       1584 	ld (cur_filename),hl
040F71 11 AD A7 04       1585 	ld de,filedata
040F75 01 00 00 01       1586 	ld bc,65536
040F79 3E 01             1587 	ld a,mos_load
040F7B 5B CF             1588 	RST.LIL 08h
040F7D 21 35 01 00       1589 	ld hl,BUF_12_011
040F81 01 0F 00 00       1590 	ld bc,15
040F85 11 2D 00 00       1591 	ld de,45
040F89 DD 21 A3 02 00    1592 	ld ix,675
040F8E CD 3E A7 04       1593 	call vdu_load_img
040F92 C9                1594 	ret
040F93                   1595 
040F93                   1596 ld_12_012:
040F93 21 0D 38 04       1597 	ld hl,F12_012
040F97 22 CD A5 04       1598 	ld (cur_filename),hl
040F9B 11 AD A7 04       1599 	ld de,filedata
040F9F 01 00 00 01       1600 	ld bc,65536
040FA3 3E 01             1601 	ld a,mos_load
040FA5 5B CF             1602 	RST.LIL 08h
040FA7 21 36 01 00       1603 	ld hl,BUF_12_012
040FAB 01 05 00 00       1604 	ld bc,5
040FAF 11 2D 00 00       1605 	ld de,45
040FB3 DD 21 E1 00 00    1606 	ld ix,225
040FB8 CD 3E A7 04       1607 	call vdu_load_img
040FBC C9                1608 	ret
040FBD                   1609 
040FBD                   1610 ld_12_013:
040FBD 21 21 38 04       1611 	ld hl,F12_013
040FC1 22 CD A5 04       1612 	ld (cur_filename),hl
040FC5 11 AD A7 04       1613 	ld de,filedata
040FC9 01 00 00 01       1614 	ld bc,65536
040FCD 3E 01             1615 	ld a,mos_load
040FCF 5B CF             1616 	RST.LIL 08h
040FD1 21 37 01 00       1617 	ld hl,BUF_12_013
040FD5 01 05 00 00       1618 	ld bc,5
040FD9 11 2B 00 00       1619 	ld de,43
040FDD DD 21 D7 00 00    1620 	ld ix,215
040FE2 CD 3E A7 04       1621 	call vdu_load_img
040FE6 C9                1622 	ret
040FE7                   1623 
040FE7                   1624 ld_12_014:
040FE7 21 35 38 04       1625 	ld hl,F12_014
040FEB 22 CD A5 04       1626 	ld (cur_filename),hl
040FEF 11 AD A7 04       1627 	ld de,filedata
040FF3 01 00 00 01       1628 	ld bc,65536
040FF7 3E 01             1629 	ld a,mos_load
040FF9 5B CF             1630 	RST.LIL 08h
040FFB 21 38 01 00       1631 	ld hl,BUF_12_014
040FFF 01 0F 00 00       1632 	ld bc,15
041003 11 2D 00 00       1633 	ld de,45
041007 DD 21 A3 02 00    1634 	ld ix,675
04100C CD 3E A7 04       1635 	call vdu_load_img
041010 C9                1636 	ret
041011                   1637 
041011                   1638 ld_12_015:
041011 21 49 38 04       1639 	ld hl,F12_015
041015 22 CD A5 04       1640 	ld (cur_filename),hl
041019 11 AD A7 04       1641 	ld de,filedata
04101D 01 00 00 01       1642 	ld bc,65536
041021 3E 01             1643 	ld a,mos_load
041023 5B CF             1644 	RST.LIL 08h
041025 21 39 01 00       1645 	ld hl,BUF_12_015
041029 01 19 00 00       1646 	ld bc,25
04102D 11 2D 00 00       1647 	ld de,45
041031 DD 21 65 04 00    1648 	ld ix,1125
041036 CD 3E A7 04       1649 	call vdu_load_img
04103A C9                1650 	ret
04103B                   1651 
04103B                   1652 ld_12_016:
04103B 21 5D 38 04       1653 	ld hl,F12_016
04103F 22 CD A5 04       1654 	ld (cur_filename),hl
041043 11 AD A7 04       1655 	ld de,filedata
041047 01 00 00 01       1656 	ld bc,65536
04104B 3E 01             1657 	ld a,mos_load
04104D 5B CF             1658 	RST.LIL 08h
04104F 21 3A 01 00       1659 	ld hl,BUF_12_016
041053 01 23 00 00       1660 	ld bc,35
041057 11 2D 00 00       1661 	ld de,45
04105B DD 21 27 06 00    1662 	ld ix,1575
041060 CD 3E A7 04       1663 	call vdu_load_img
041064 C9                1664 	ret
041065                   1665 
041065                   1666 ld_12_020:
041065 21 71 38 04       1667 	ld hl,F12_020
041069 22 CD A5 04       1668 	ld (cur_filename),hl
04106D 11 AD A7 04       1669 	ld de,filedata
041071 01 00 00 01       1670 	ld bc,65536
041075 3E 01             1671 	ld a,mos_load
041077 5B CF             1672 	RST.LIL 08h
041079 21 3B 01 00       1673 	ld hl,BUF_12_020
04107D 01 2E 00 00       1674 	ld bc,46
041081 11 2D 00 00       1675 	ld de,45
041085 DD 21 16 08 00    1676 	ld ix,2070
04108A CD 3E A7 04       1677 	call vdu_load_img
04108E C9                1678 	ret
04108F                   1679 
04108F                   1680 ld_12_024:
04108F 21 85 38 04       1681 	ld hl,F12_024
041093 22 CD A5 04       1682 	ld (cur_filename),hl
041097 11 AD A7 04       1683 	ld de,filedata
04109B 01 00 00 01       1684 	ld bc,65536
04109F 3E 01             1685 	ld a,mos_load
0410A1 5B CF             1686 	RST.LIL 08h
0410A3 21 3C 01 00       1687 	ld hl,BUF_12_024
0410A7 01 2E 00 00       1688 	ld bc,46
0410AB 11 40 00 00       1689 	ld de,64
0410AF DD 21 80 0B 00    1690 	ld ix,2944
0410B4 CD 3E A7 04       1691 	call vdu_load_img
0410B8 C9                1692 	ret
0410B9                   1693 
0410B9                   1694 ld_12_025:
0410B9 21 99 38 04       1695 	ld hl,F12_025
0410BD 22 CD A5 04       1696 	ld (cur_filename),hl
0410C1 11 AD A7 04       1697 	ld de,filedata
0410C5 01 00 00 01       1698 	ld bc,65536
0410C9 3E 01             1699 	ld a,mos_load
0410CB 5B CF             1700 	RST.LIL 08h
0410CD 21 3D 01 00       1701 	ld hl,BUF_12_025
0410D1 01 1C 00 00       1702 	ld bc,28
0410D5 11 40 00 00       1703 	ld de,64
0410D9 DD 21 00 07 00    1704 	ld ix,1792
0410DE CD 3E A7 04       1705 	call vdu_load_img
0410E2 C9                1706 	ret
0410E3                   1707 
0410E3                   1708 ld_12_026:
0410E3 21 AD 38 04       1709 	ld hl,F12_026
0410E7 22 CD A5 04       1710 	ld (cur_filename),hl
0410EB 11 AD A7 04       1711 	ld de,filedata
0410EF 01 00 00 01       1712 	ld bc,65536
0410F3 3E 01             1713 	ld a,mos_load
0410F5 5B CF             1714 	RST.LIL 08h
0410F7 21 3E 01 00       1715 	ld hl,BUF_12_026
0410FB 01 09 00 00       1716 	ld bc,9
0410FF 11 40 00 00       1717 	ld de,64
041103 DD 21 40 02 00    1718 	ld ix,576
041108 CD 3E A7 04       1719 	call vdu_load_img
04110C C9                1720 	ret
04110D                   1721 
04110D                   1722 ld_12_027:
04110D 21 C1 38 04       1723 	ld hl,F12_027
041111 22 CD A5 04       1724 	ld (cur_filename),hl
041115 11 AD A7 04       1725 	ld de,filedata
041119 01 00 00 01       1726 	ld bc,65536
04111D 3E 01             1727 	ld a,mos_load
04111F 5B CF             1728 	RST.LIL 08h
041121 21 3F 01 00       1729 	ld hl,BUF_12_027
041125 01 0A 00 00       1730 	ld bc,10
041129 11 3E 00 00       1731 	ld de,62
04112D DD 21 6C 02 00    1732 	ld ix,620
041132 CD 3E A7 04       1733 	call vdu_load_img
041136 C9                1734 	ret
041137                   1735 
041137                   1736 ld_12_028:
041137 21 D5 38 04       1737 	ld hl,F12_028
04113B 22 CD A5 04       1738 	ld (cur_filename),hl
04113F 11 AD A7 04       1739 	ld de,filedata
041143 01 00 00 01       1740 	ld bc,65536
041147 3E 01             1741 	ld a,mos_load
041149 5B CF             1742 	RST.LIL 08h
04114B 21 40 01 00       1743 	ld hl,BUF_12_028
04114F 01 1C 00 00       1744 	ld bc,28
041153 11 40 00 00       1745 	ld de,64
041157 DD 21 00 07 00    1746 	ld ix,1792
04115C CD 3E A7 04       1747 	call vdu_load_img
041160 C9                1748 	ret
041161                   1749 
041161                   1750 ld_12_029:
041161 21 E9 38 04       1751 	ld hl,F12_029
041165 22 CD A5 04       1752 	ld (cur_filename),hl
041169 11 AD A7 04       1753 	ld de,filedata
04116D 01 00 00 01       1754 	ld bc,65536
041171 3E 01             1755 	ld a,mos_load
041173 5B CF             1756 	RST.LIL 08h
041175 21 41 01 00       1757 	ld hl,BUF_12_029
041179 01 2F 00 00       1758 	ld bc,47
04117D 11 40 00 00       1759 	ld de,64
041181 DD 21 C0 0B 00    1760 	ld ix,3008
041186 CD 3E A7 04       1761 	call vdu_load_img
04118A C9                1762 	ret
04118B                   1763 
04118B                   1764 ld_12_032:
04118B 21 FD 38 04       1765 	ld hl,F12_032
04118F 22 CD A5 04       1766 	ld (cur_filename),hl
041193 11 AD A7 04       1767 	ld de,filedata
041197 01 00 00 01       1768 	ld bc,65536
04119B 3E 01             1769 	ld a,mos_load
04119D 5B CF             1770 	RST.LIL 08h
04119F 21 42 01 00       1771 	ld hl,BUF_12_032
0411A3 01 41 00 00       1772 	ld bc,65
0411A7 11 40 00 00       1773 	ld de,64
0411AB DD 21 40 10 00    1774 	ld ix,4160
0411B0 CD 3E A7 04       1775 	call vdu_load_img
0411B4 C9                1776 	ret
0411B5                   1777 
0411B5                   1778 ld_12_035:
0411B5 21 11 39 04       1779 	ld hl,F12_035
0411B9 22 CD A5 04       1780 	ld (cur_filename),hl
0411BD 11 AD A7 04       1781 	ld de,filedata
0411C1 01 00 00 01       1782 	ld bc,65536
0411C5 3E 01             1783 	ld a,mos_load
0411C7 5B CF             1784 	RST.LIL 08h
0411C9 21 43 01 00       1785 	ld hl,BUF_12_035
0411CD 01 3F 00 00       1786 	ld bc,63
0411D1 11 6B 00 00       1787 	ld de,107
0411D5 DD 21 55 1A 00    1788 	ld ix,6741
0411DA CD 3E A7 04       1789 	call vdu_load_img
0411DE C9                1790 	ret
0411DF                   1791 
0411DF                   1792 ld_12_036:
0411DF 21 25 39 04       1793 	ld hl,F12_036
0411E3 22 CD A5 04       1794 	ld (cur_filename),hl
0411E7 11 AD A7 04       1795 	ld de,filedata
0411EB 01 00 00 01       1796 	ld bc,65536
0411EF 3E 01             1797 	ld a,mos_load
0411F1 5B CF             1798 	RST.LIL 08h
0411F3 21 44 01 00       1799 	ld hl,BUF_12_036
0411F7 01 16 00 00       1800 	ld bc,22
0411FB 11 6B 00 00       1801 	ld de,107
0411FF DD 21 32 09 00    1802 	ld ix,2354
041204 CD 3E A7 04       1803 	call vdu_load_img
041208 C9                1804 	ret
041209                   1805 
041209                   1806 ld_12_037:
041209 21 39 39 04       1807 	ld hl,F12_037
04120D 22 CD A5 04       1808 	ld (cur_filename),hl
041211 11 AD A7 04       1809 	ld de,filedata
041215 01 00 00 01       1810 	ld bc,65536
041219 3E 01             1811 	ld a,mos_load
04121B 5B CF             1812 	RST.LIL 08h
04121D 21 45 01 00       1813 	ld hl,BUF_12_037
041221 01 15 00 00       1814 	ld bc,21
041225 11 69 00 00       1815 	ld de,105
041229 DD 21 9D 08 00    1816 	ld ix,2205
04122E CD 3E A7 04       1817 	call vdu_load_img
041232 C9                1818 	ret
041233                   1819 
041233                   1820 ld_12_038:
041233 21 4D 39 04       1821 	ld hl,F12_038
041237 22 CD A5 04       1822 	ld (cur_filename),hl
04123B 11 AD A7 04       1823 	ld de,filedata
04123F 01 00 00 01       1824 	ld bc,65536
041243 3E 01             1825 	ld a,mos_load
041245 5B CF             1826 	RST.LIL 08h
041247 21 46 01 00       1827 	ld hl,BUF_12_038
04124B 01 3F 00 00       1828 	ld bc,63
04124F 11 6B 00 00       1829 	ld de,107
041253 DD 21 55 1A 00    1830 	ld ix,6741
041258 CD 3E A7 04       1831 	call vdu_load_img
04125C C9                1832 	ret
04125D                   1833 
04125D                   1834 ld_12_040:
04125D 21 61 39 04       1835 	ld hl,F12_040
041261 22 CD A5 04       1836 	ld (cur_filename),hl
041265 11 AD A7 04       1837 	ld de,filedata
041269 01 00 00 01       1838 	ld bc,65536
04126D 3E 01             1839 	ld a,mos_load
04126F 5B CF             1840 	RST.LIL 08h
041271 21 47 01 00       1841 	ld hl,BUF_12_040
041275 01 6C 00 00       1842 	ld bc,108
041279 11 6B 00 00       1843 	ld de,107
04127D DD 21 24 2D 00    1844 	ld ix,11556
041282 CD 3E A7 04       1845 	call vdu_load_img
041286 C9                1846 	ret
041287                   1847 
041287                   1848 ld_12_042:
041287 21 75 39 04       1849 	ld hl,F12_042
04128B 22 CD A5 04       1850 	ld (cur_filename),hl
04128F 11 AD A7 04       1851 	ld de,filedata
041293 01 00 00 01       1852 	ld bc,65536
041297 3E 01             1853 	ld a,mos_load
041299 5B CF             1854 	RST.LIL 08h
04129B 21 48 01 00       1855 	ld hl,BUF_12_042
04129F 01 6A 00 00       1856 	ld bc,106
0412A3 11 A0 00 00       1857 	ld de,160
0412A7 DD 21 40 42 00    1858 	ld ix,16960
0412AC CD 3E A7 04       1859 	call vdu_load_img
0412B0 C9                1860 	ret
0412B1                   1861 
0412B1                   1862 ld_12_043:
0412B1 21 89 39 04       1863 	ld hl,F12_043
0412B5 22 CD A5 04       1864 	ld (cur_filename),hl
0412B9 11 AD A7 04       1865 	ld de,filedata
0412BD 01 00 00 01       1866 	ld bc,65536
0412C1 3E 01             1867 	ld a,mos_load
0412C3 5B CF             1868 	RST.LIL 08h
0412C5 21 49 01 00       1869 	ld hl,BUF_12_043
0412C9 01 6B 00 00       1870 	ld bc,107
0412CD 11 A0 00 00       1871 	ld de,160
0412D1 DD 21 E0 42 00    1872 	ld ix,17120
0412D6 CD 3E A7 04       1873 	call vdu_load_img
0412DA C9                1874 	ret
0412DB                   1875 
0412DB                   1876 ld_12_044:
0412DB 21 9D 39 04       1877 	ld hl,F12_044
0412DF 22 CD A5 04       1878 	ld (cur_filename),hl
0412E3 11 AD A7 04       1879 	ld de,filedata
0412E7 01 00 00 01       1880 	ld bc,65536
0412EB 3E 01             1881 	ld a,mos_load
0412ED 5B CF             1882 	RST.LIL 08h
0412EF 21 4A 01 00       1883 	ld hl,BUF_12_044
0412F3 01 40 01 00       1884 	ld bc,320
0412F7 11 A0 00 00       1885 	ld de,160
0412FB DD 21 00 C8 00    1886 	ld ix,51200
041300 CD 3E A7 04       1887 	call vdu_load_img
041304 C9                1888 	ret
041305                   1889 
041305                   1890 ld_13_004:
041305 21 B1 39 04       1891 	ld hl,F13_004
041309 22 CD A5 04       1892 	ld (cur_filename),hl
04130D 11 AD A7 04       1893 	ld de,filedata
041311 01 00 00 01       1894 	ld bc,65536
041315 3E 01             1895 	ld a,mos_load
041317 5B CF             1896 	RST.LIL 08h
041319 21 4B 01 00       1897 	ld hl,BUF_13_004
04131D 01 24 00 00       1898 	ld bc,36
041321 11 23 00 00       1899 	ld de,35
041325 DD 21 EC 04 00    1900 	ld ix,1260
04132A CD 3E A7 04       1901 	call vdu_load_img
04132E C9                1902 	ret
04132F                   1903 
04132F                   1904 ld_13_009:
04132F 21 C5 39 04       1905 	ld hl,F13_009
041333 22 CD A5 04       1906 	ld (cur_filename),hl
041337 11 AD A7 04       1907 	ld de,filedata
04133B 01 00 00 01       1908 	ld bc,65536
04133F 3E 01             1909 	ld a,mos_load
041341 5B CF             1910 	RST.LIL 08h
041343 21 4C 01 00       1911 	ld hl,BUF_13_009
041347 01 23 00 00       1912 	ld bc,35
04134B 11 2D 00 00       1913 	ld de,45
04134F DD 21 27 06 00    1914 	ld ix,1575
041354 CD 3E A7 04       1915 	call vdu_load_img
041358 C9                1916 	ret
041359                   1917 
041359                   1918 ld_13_010:
041359 21 D9 39 04       1919 	ld hl,F13_010
04135D 22 CD A5 04       1920 	ld (cur_filename),hl
041361 11 AD A7 04       1921 	ld de,filedata
041365 01 00 00 01       1922 	ld bc,65536
041369 3E 01             1923 	ld a,mos_load
04136B 5B CF             1924 	RST.LIL 08h
04136D 21 4D 01 00       1925 	ld hl,BUF_13_010
041371 01 19 00 00       1926 	ld bc,25
041375 11 2D 00 00       1927 	ld de,45
041379 DD 21 65 04 00    1928 	ld ix,1125
04137E CD 3E A7 04       1929 	call vdu_load_img
041382 C9                1930 	ret
041383                   1931 
041383                   1932 ld_13_011:
041383 21 ED 39 04       1933 	ld hl,F13_011
041387 22 CD A5 04       1934 	ld (cur_filename),hl
04138B 11 AD A7 04       1935 	ld de,filedata
04138F 01 00 00 01       1936 	ld bc,65536
041393 3E 01             1937 	ld a,mos_load
041395 5B CF             1938 	RST.LIL 08h
041397 21 4E 01 00       1939 	ld hl,BUF_13_011
04139B 01 0F 00 00       1940 	ld bc,15
04139F 11 2D 00 00       1941 	ld de,45
0413A3 DD 21 A3 02 00    1942 	ld ix,675
0413A8 CD 3E A7 04       1943 	call vdu_load_img
0413AC C9                1944 	ret
0413AD                   1945 
0413AD                   1946 ld_13_012:
0413AD 21 01 3A 04       1947 	ld hl,F13_012
0413B1 22 CD A5 04       1948 	ld (cur_filename),hl
0413B5 11 AD A7 04       1949 	ld de,filedata
0413B9 01 00 00 01       1950 	ld bc,65536
0413BD 3E 01             1951 	ld a,mos_load
0413BF 5B CF             1952 	RST.LIL 08h
0413C1 21 4F 01 00       1953 	ld hl,BUF_13_012
0413C5 01 05 00 00       1954 	ld bc,5
0413C9 11 2D 00 00       1955 	ld de,45
0413CD DD 21 E1 00 00    1956 	ld ix,225
0413D2 CD 3E A7 04       1957 	call vdu_load_img
0413D6 C9                1958 	ret
0413D7                   1959 
0413D7                   1960 ld_13_013:
0413D7 21 15 3A 04       1961 	ld hl,F13_013
0413DB 22 CD A5 04       1962 	ld (cur_filename),hl
0413DF 11 AD A7 04       1963 	ld de,filedata
0413E3 01 00 00 01       1964 	ld bc,65536
0413E7 3E 01             1965 	ld a,mos_load
0413E9 5B CF             1966 	RST.LIL 08h
0413EB 21 50 01 00       1967 	ld hl,BUF_13_013
0413EF 01 05 00 00       1968 	ld bc,5
0413F3 11 2B 00 00       1969 	ld de,43
0413F7 DD 21 D7 00 00    1970 	ld ix,215
0413FC CD 3E A7 04       1971 	call vdu_load_img
041400 C9                1972 	ret
041401                   1973 
041401                   1974 ld_13_014:
041401 21 29 3A 04       1975 	ld hl,F13_014
041405 22 CD A5 04       1976 	ld (cur_filename),hl
041409 11 AD A7 04       1977 	ld de,filedata
04140D 01 00 00 01       1978 	ld bc,65536
041411 3E 01             1979 	ld a,mos_load
041413 5B CF             1980 	RST.LIL 08h
041415 21 51 01 00       1981 	ld hl,BUF_13_014
041419 01 0F 00 00       1982 	ld bc,15
04141D 11 2D 00 00       1983 	ld de,45
041421 DD 21 A3 02 00    1984 	ld ix,675
041426 CD 3E A7 04       1985 	call vdu_load_img
04142A C9                1986 	ret
04142B                   1987 
04142B                   1988 ld_13_015:
04142B 21 3D 3A 04       1989 	ld hl,F13_015
04142F 22 CD A5 04       1990 	ld (cur_filename),hl
041433 11 AD A7 04       1991 	ld de,filedata
041437 01 00 00 01       1992 	ld bc,65536
04143B 3E 01             1993 	ld a,mos_load
04143D 5B CF             1994 	RST.LIL 08h
04143F 21 52 01 00       1995 	ld hl,BUF_13_015
041443 01 19 00 00       1996 	ld bc,25
041447 11 2D 00 00       1997 	ld de,45
04144B DD 21 65 04 00    1998 	ld ix,1125
041450 CD 3E A7 04       1999 	call vdu_load_img
041454 C9                2000 	ret
041455                   2001 
041455                   2002 ld_13_016:
041455 21 51 3A 04       2003 	ld hl,F13_016
041459 22 CD A5 04       2004 	ld (cur_filename),hl
04145D 11 AD A7 04       2005 	ld de,filedata
041461 01 00 00 01       2006 	ld bc,65536
041465 3E 01             2007 	ld a,mos_load
041467 5B CF             2008 	RST.LIL 08h
041469 21 53 01 00       2009 	ld hl,BUF_13_016
04146D 01 23 00 00       2010 	ld bc,35
041471 11 2D 00 00       2011 	ld de,45
041475 DD 21 27 06 00    2012 	ld ix,1575
04147A CD 3E A7 04       2013 	call vdu_load_img
04147E C9                2014 	ret
04147F                   2015 
04147F                   2016 ld_13_020:
04147F 21 65 3A 04       2017 	ld hl,F13_020
041483 22 CD A5 04       2018 	ld (cur_filename),hl
041487 11 AD A7 04       2019 	ld de,filedata
04148B 01 00 00 01       2020 	ld bc,65536
04148F 3E 01             2021 	ld a,mos_load
041491 5B CF             2022 	RST.LIL 08h
041493 21 54 01 00       2023 	ld hl,BUF_13_020
041497 01 2E 00 00       2024 	ld bc,46
04149B 11 2D 00 00       2025 	ld de,45
04149F DD 21 16 08 00    2026 	ld ix,2070
0414A4 CD 3E A7 04       2027 	call vdu_load_img
0414A8 C9                2028 	ret
0414A9                   2029 
0414A9                   2030 ld_13_024:
0414A9 21 79 3A 04       2031 	ld hl,F13_024
0414AD 22 CD A5 04       2032 	ld (cur_filename),hl
0414B1 11 AD A7 04       2033 	ld de,filedata
0414B5 01 00 00 01       2034 	ld bc,65536
0414B9 3E 01             2035 	ld a,mos_load
0414BB 5B CF             2036 	RST.LIL 08h
0414BD 21 55 01 00       2037 	ld hl,BUF_13_024
0414C1 01 2E 00 00       2038 	ld bc,46
0414C5 11 40 00 00       2039 	ld de,64
0414C9 DD 21 80 0B 00    2040 	ld ix,2944
0414CE CD 3E A7 04       2041 	call vdu_load_img
0414D2 C9                2042 	ret
0414D3                   2043 
0414D3                   2044 ld_13_025:
0414D3 21 8D 3A 04       2045 	ld hl,F13_025
0414D7 22 CD A5 04       2046 	ld (cur_filename),hl
0414DB 11 AD A7 04       2047 	ld de,filedata
0414DF 01 00 00 01       2048 	ld bc,65536
0414E3 3E 01             2049 	ld a,mos_load
0414E5 5B CF             2050 	RST.LIL 08h
0414E7 21 56 01 00       2051 	ld hl,BUF_13_025
0414EB 01 1C 00 00       2052 	ld bc,28
0414EF 11 40 00 00       2053 	ld de,64
0414F3 DD 21 00 07 00    2054 	ld ix,1792
0414F8 CD 3E A7 04       2055 	call vdu_load_img
0414FC C9                2056 	ret
0414FD                   2057 
0414FD                   2058 ld_13_026:
0414FD 21 A1 3A 04       2059 	ld hl,F13_026
041501 22 CD A5 04       2060 	ld (cur_filename),hl
041505 11 AD A7 04       2061 	ld de,filedata
041509 01 00 00 01       2062 	ld bc,65536
04150D 3E 01             2063 	ld a,mos_load
04150F 5B CF             2064 	RST.LIL 08h
041511 21 57 01 00       2065 	ld hl,BUF_13_026
041515 01 09 00 00       2066 	ld bc,9
041519 11 40 00 00       2067 	ld de,64
04151D DD 21 40 02 00    2068 	ld ix,576
041522 CD 3E A7 04       2069 	call vdu_load_img
041526 C9                2070 	ret
041527                   2071 
041527                   2072 ld_13_027:
041527 21 B5 3A 04       2073 	ld hl,F13_027
04152B 22 CD A5 04       2074 	ld (cur_filename),hl
04152F 11 AD A7 04       2075 	ld de,filedata
041533 01 00 00 01       2076 	ld bc,65536
041537 3E 01             2077 	ld a,mos_load
041539 5B CF             2078 	RST.LIL 08h
04153B 21 58 01 00       2079 	ld hl,BUF_13_027
04153F 01 0A 00 00       2080 	ld bc,10
041543 11 3E 00 00       2081 	ld de,62
041547 DD 21 6C 02 00    2082 	ld ix,620
04154C CD 3E A7 04       2083 	call vdu_load_img
041550 C9                2084 	ret
041551                   2085 
041551                   2086 ld_13_028:
041551 21 C9 3A 04       2087 	ld hl,F13_028
041555 22 CD A5 04       2088 	ld (cur_filename),hl
041559 11 AD A7 04       2089 	ld de,filedata
04155D 01 00 00 01       2090 	ld bc,65536
041561 3E 01             2091 	ld a,mos_load
041563 5B CF             2092 	RST.LIL 08h
041565 21 59 01 00       2093 	ld hl,BUF_13_028
041569 01 1C 00 00       2094 	ld bc,28
04156D 11 40 00 00       2095 	ld de,64
041571 DD 21 00 07 00    2096 	ld ix,1792
041576 CD 3E A7 04       2097 	call vdu_load_img
04157A C9                2098 	ret
04157B                   2099 
04157B                   2100 ld_13_029:
04157B 21 DD 3A 04       2101 	ld hl,F13_029
04157F 22 CD A5 04       2102 	ld (cur_filename),hl
041583 11 AD A7 04       2103 	ld de,filedata
041587 01 00 00 01       2104 	ld bc,65536
04158B 3E 01             2105 	ld a,mos_load
04158D 5B CF             2106 	RST.LIL 08h
04158F 21 5A 01 00       2107 	ld hl,BUF_13_029
041593 01 2F 00 00       2108 	ld bc,47
041597 11 40 00 00       2109 	ld de,64
04159B DD 21 C0 0B 00    2110 	ld ix,3008
0415A0 CD 3E A7 04       2111 	call vdu_load_img
0415A4 C9                2112 	ret
0415A5                   2113 
0415A5                   2114 ld_13_032:
0415A5 21 F1 3A 04       2115 	ld hl,F13_032
0415A9 22 CD A5 04       2116 	ld (cur_filename),hl
0415AD 11 AD A7 04       2117 	ld de,filedata
0415B1 01 00 00 01       2118 	ld bc,65536
0415B5 3E 01             2119 	ld a,mos_load
0415B7 5B CF             2120 	RST.LIL 08h
0415B9 21 5B 01 00       2121 	ld hl,BUF_13_032
0415BD 01 41 00 00       2122 	ld bc,65
0415C1 11 40 00 00       2123 	ld de,64
0415C5 DD 21 40 10 00    2124 	ld ix,4160
0415CA CD 3E A7 04       2125 	call vdu_load_img
0415CE C9                2126 	ret
0415CF                   2127 
0415CF                   2128 ld_13_035:
0415CF 21 05 3B 04       2129 	ld hl,F13_035
0415D3 22 CD A5 04       2130 	ld (cur_filename),hl
0415D7 11 AD A7 04       2131 	ld de,filedata
0415DB 01 00 00 01       2132 	ld bc,65536
0415DF 3E 01             2133 	ld a,mos_load
0415E1 5B CF             2134 	RST.LIL 08h
0415E3 21 5C 01 00       2135 	ld hl,BUF_13_035
0415E7 01 3F 00 00       2136 	ld bc,63
0415EB 11 6B 00 00       2137 	ld de,107
0415EF DD 21 55 1A 00    2138 	ld ix,6741
0415F4 CD 3E A7 04       2139 	call vdu_load_img
0415F8 C9                2140 	ret
0415F9                   2141 
0415F9                   2142 ld_13_036:
0415F9 21 19 3B 04       2143 	ld hl,F13_036
0415FD 22 CD A5 04       2144 	ld (cur_filename),hl
041601 11 AD A7 04       2145 	ld de,filedata
041605 01 00 00 01       2146 	ld bc,65536
041609 3E 01             2147 	ld a,mos_load
04160B 5B CF             2148 	RST.LIL 08h
04160D 21 5D 01 00       2149 	ld hl,BUF_13_036
041611 01 16 00 00       2150 	ld bc,22
041615 11 6B 00 00       2151 	ld de,107
041619 DD 21 32 09 00    2152 	ld ix,2354
04161E CD 3E A7 04       2153 	call vdu_load_img
041622 C9                2154 	ret
041623                   2155 
041623                   2156 ld_13_037:
041623 21 2D 3B 04       2157 	ld hl,F13_037
041627 22 CD A5 04       2158 	ld (cur_filename),hl
04162B 11 AD A7 04       2159 	ld de,filedata
04162F 01 00 00 01       2160 	ld bc,65536
041633 3E 01             2161 	ld a,mos_load
041635 5B CF             2162 	RST.LIL 08h
041637 21 5E 01 00       2163 	ld hl,BUF_13_037
04163B 01 15 00 00       2164 	ld bc,21
04163F 11 69 00 00       2165 	ld de,105
041643 DD 21 9D 08 00    2166 	ld ix,2205
041648 CD 3E A7 04       2167 	call vdu_load_img
04164C C9                2168 	ret
04164D                   2169 
04164D                   2170 ld_13_038:
04164D 21 41 3B 04       2171 	ld hl,F13_038
041651 22 CD A5 04       2172 	ld (cur_filename),hl
041655 11 AD A7 04       2173 	ld de,filedata
041659 01 00 00 01       2174 	ld bc,65536
04165D 3E 01             2175 	ld a,mos_load
04165F 5B CF             2176 	RST.LIL 08h
041661 21 5F 01 00       2177 	ld hl,BUF_13_038
041665 01 3F 00 00       2178 	ld bc,63
041669 11 6B 00 00       2179 	ld de,107
04166D DD 21 55 1A 00    2180 	ld ix,6741
041672 CD 3E A7 04       2181 	call vdu_load_img
041676 C9                2182 	ret
041677                   2183 
041677                   2184 ld_13_040:
041677 21 55 3B 04       2185 	ld hl,F13_040
04167B 22 CD A5 04       2186 	ld (cur_filename),hl
04167F 11 AD A7 04       2187 	ld de,filedata
041683 01 00 00 01       2188 	ld bc,65536
041687 3E 01             2189 	ld a,mos_load
041689 5B CF             2190 	RST.LIL 08h
04168B 21 60 01 00       2191 	ld hl,BUF_13_040
04168F 01 6C 00 00       2192 	ld bc,108
041693 11 6B 00 00       2193 	ld de,107
041697 DD 21 24 2D 00    2194 	ld ix,11556
04169C CD 3E A7 04       2195 	call vdu_load_img
0416A0 C9                2196 	ret
0416A1                   2197 
0416A1                   2198 ld_13_042:
0416A1 21 69 3B 04       2199 	ld hl,F13_042
0416A5 22 CD A5 04       2200 	ld (cur_filename),hl
0416A9 11 AD A7 04       2201 	ld de,filedata
0416AD 01 00 00 01       2202 	ld bc,65536
0416B1 3E 01             2203 	ld a,mos_load
0416B3 5B CF             2204 	RST.LIL 08h
0416B5 21 61 01 00       2205 	ld hl,BUF_13_042
0416B9 01 6A 00 00       2206 	ld bc,106
0416BD 11 A0 00 00       2207 	ld de,160
0416C1 DD 21 40 42 00    2208 	ld ix,16960
0416C6 CD 3E A7 04       2209 	call vdu_load_img
0416CA C9                2210 	ret
0416CB                   2211 
0416CB                   2212 ld_13_043:
0416CB 21 7D 3B 04       2213 	ld hl,F13_043
0416CF 22 CD A5 04       2214 	ld (cur_filename),hl
0416D3 11 AD A7 04       2215 	ld de,filedata
0416D7 01 00 00 01       2216 	ld bc,65536
0416DB 3E 01             2217 	ld a,mos_load
0416DD 5B CF             2218 	RST.LIL 08h
0416DF 21 62 01 00       2219 	ld hl,BUF_13_043
0416E3 01 6B 00 00       2220 	ld bc,107
0416E7 11 A0 00 00       2221 	ld de,160
0416EB DD 21 E0 42 00    2222 	ld ix,17120
0416F0 CD 3E A7 04       2223 	call vdu_load_img
0416F4 C9                2224 	ret
0416F5                   2225 
0416F5                   2226 ld_13_044:
0416F5 21 91 3B 04       2227 	ld hl,F13_044
0416F9 22 CD A5 04       2228 	ld (cur_filename),hl
0416FD 11 AD A7 04       2229 	ld de,filedata
041701 01 00 00 01       2230 	ld bc,65536
041705 3E 01             2231 	ld a,mos_load
041707 5B CF             2232 	RST.LIL 08h
041709 21 63 01 00       2233 	ld hl,BUF_13_044
04170D 01 40 01 00       2234 	ld bc,320
041711 11 A0 00 00       2235 	ld de,160
041715 DD 21 00 C8 00    2236 	ld ix,51200
04171A CD 3E A7 04       2237 	call vdu_load_img
04171E C9                2238 	ret
04171F                   2239 
04171F                   2240 ld_14_004:
04171F 21 A5 3B 04       2241 	ld hl,F14_004
041723 22 CD A5 04       2242 	ld (cur_filename),hl
041727 11 AD A7 04       2243 	ld de,filedata
04172B 01 00 00 01       2244 	ld bc,65536
04172F 3E 01             2245 	ld a,mos_load
041731 5B CF             2246 	RST.LIL 08h
041733 21 64 01 00       2247 	ld hl,BUF_14_004
041737 01 24 00 00       2248 	ld bc,36
04173B 11 23 00 00       2249 	ld de,35
04173F DD 21 EC 04 00    2250 	ld ix,1260
041744 CD 3E A7 04       2251 	call vdu_load_img
041748 C9                2252 	ret
041749                   2253 
041749                   2254 ld_14_009:
041749 21 B9 3B 04       2255 	ld hl,F14_009
04174D 22 CD A5 04       2256 	ld (cur_filename),hl
041751 11 AD A7 04       2257 	ld de,filedata
041755 01 00 00 01       2258 	ld bc,65536
041759 3E 01             2259 	ld a,mos_load
04175B 5B CF             2260 	RST.LIL 08h
04175D 21 65 01 00       2261 	ld hl,BUF_14_009
041761 01 23 00 00       2262 	ld bc,35
041765 11 2D 00 00       2263 	ld de,45
041769 DD 21 27 06 00    2264 	ld ix,1575
04176E CD 3E A7 04       2265 	call vdu_load_img
041772 C9                2266 	ret
041773                   2267 
041773                   2268 ld_14_010:
041773 21 CD 3B 04       2269 	ld hl,F14_010
041777 22 CD A5 04       2270 	ld (cur_filename),hl
04177B 11 AD A7 04       2271 	ld de,filedata
04177F 01 00 00 01       2272 	ld bc,65536
041783 3E 01             2273 	ld a,mos_load
041785 5B CF             2274 	RST.LIL 08h
041787 21 66 01 00       2275 	ld hl,BUF_14_010
04178B 01 19 00 00       2276 	ld bc,25
04178F 11 2D 00 00       2277 	ld de,45
041793 DD 21 65 04 00    2278 	ld ix,1125
041798 CD 3E A7 04       2279 	call vdu_load_img
04179C C9                2280 	ret
04179D                   2281 
04179D                   2282 ld_14_011:
04179D 21 E1 3B 04       2283 	ld hl,F14_011
0417A1 22 CD A5 04       2284 	ld (cur_filename),hl
0417A5 11 AD A7 04       2285 	ld de,filedata
0417A9 01 00 00 01       2286 	ld bc,65536
0417AD 3E 01             2287 	ld a,mos_load
0417AF 5B CF             2288 	RST.LIL 08h
0417B1 21 67 01 00       2289 	ld hl,BUF_14_011
0417B5 01 0F 00 00       2290 	ld bc,15
0417B9 11 2D 00 00       2291 	ld de,45
0417BD DD 21 A3 02 00    2292 	ld ix,675
0417C2 CD 3E A7 04       2293 	call vdu_load_img
0417C6 C9                2294 	ret
0417C7                   2295 
0417C7                   2296 ld_14_012:
0417C7 21 F5 3B 04       2297 	ld hl,F14_012
0417CB 22 CD A5 04       2298 	ld (cur_filename),hl
0417CF 11 AD A7 04       2299 	ld de,filedata
0417D3 01 00 00 01       2300 	ld bc,65536
0417D7 3E 01             2301 	ld a,mos_load
0417D9 5B CF             2302 	RST.LIL 08h
0417DB 21 68 01 00       2303 	ld hl,BUF_14_012
0417DF 01 05 00 00       2304 	ld bc,5
0417E3 11 2D 00 00       2305 	ld de,45
0417E7 DD 21 E1 00 00    2306 	ld ix,225
0417EC CD 3E A7 04       2307 	call vdu_load_img
0417F0 C9                2308 	ret
0417F1                   2309 
0417F1                   2310 ld_14_013:
0417F1 21 09 3C 04       2311 	ld hl,F14_013
0417F5 22 CD A5 04       2312 	ld (cur_filename),hl
0417F9 11 AD A7 04       2313 	ld de,filedata
0417FD 01 00 00 01       2314 	ld bc,65536
041801 3E 01             2315 	ld a,mos_load
041803 5B CF             2316 	RST.LIL 08h
041805 21 69 01 00       2317 	ld hl,BUF_14_013
041809 01 05 00 00       2318 	ld bc,5
04180D 11 2B 00 00       2319 	ld de,43
041811 DD 21 D7 00 00    2320 	ld ix,215
041816 CD 3E A7 04       2321 	call vdu_load_img
04181A C9                2322 	ret
04181B                   2323 
04181B                   2324 ld_14_014:
04181B 21 1D 3C 04       2325 	ld hl,F14_014
04181F 22 CD A5 04       2326 	ld (cur_filename),hl
041823 11 AD A7 04       2327 	ld de,filedata
041827 01 00 00 01       2328 	ld bc,65536
04182B 3E 01             2329 	ld a,mos_load
04182D 5B CF             2330 	RST.LIL 08h
04182F 21 6A 01 00       2331 	ld hl,BUF_14_014
041833 01 0F 00 00       2332 	ld bc,15
041837 11 2D 00 00       2333 	ld de,45
04183B DD 21 A3 02 00    2334 	ld ix,675
041840 CD 3E A7 04       2335 	call vdu_load_img
041844 C9                2336 	ret
041845                   2337 
041845                   2338 ld_14_015:
041845 21 31 3C 04       2339 	ld hl,F14_015
041849 22 CD A5 04       2340 	ld (cur_filename),hl
04184D 11 AD A7 04       2341 	ld de,filedata
041851 01 00 00 01       2342 	ld bc,65536
041855 3E 01             2343 	ld a,mos_load
041857 5B CF             2344 	RST.LIL 08h
041859 21 6B 01 00       2345 	ld hl,BUF_14_015
04185D 01 19 00 00       2346 	ld bc,25
041861 11 2D 00 00       2347 	ld de,45
041865 DD 21 65 04 00    2348 	ld ix,1125
04186A CD 3E A7 04       2349 	call vdu_load_img
04186E C9                2350 	ret
04186F                   2351 
04186F                   2352 ld_14_016:
04186F 21 45 3C 04       2353 	ld hl,F14_016
041873 22 CD A5 04       2354 	ld (cur_filename),hl
041877 11 AD A7 04       2355 	ld de,filedata
04187B 01 00 00 01       2356 	ld bc,65536
04187F 3E 01             2357 	ld a,mos_load
041881 5B CF             2358 	RST.LIL 08h
041883 21 6C 01 00       2359 	ld hl,BUF_14_016
041887 01 23 00 00       2360 	ld bc,35
04188B 11 2D 00 00       2361 	ld de,45
04188F DD 21 27 06 00    2362 	ld ix,1575
041894 CD 3E A7 04       2363 	call vdu_load_img
041898 C9                2364 	ret
041899                   2365 
041899                   2366 ld_14_020:
041899 21 59 3C 04       2367 	ld hl,F14_020
04189D 22 CD A5 04       2368 	ld (cur_filename),hl
0418A1 11 AD A7 04       2369 	ld de,filedata
0418A5 01 00 00 01       2370 	ld bc,65536
0418A9 3E 01             2371 	ld a,mos_load
0418AB 5B CF             2372 	RST.LIL 08h
0418AD 21 6D 01 00       2373 	ld hl,BUF_14_020
0418B1 01 2E 00 00       2374 	ld bc,46
0418B5 11 2D 00 00       2375 	ld de,45
0418B9 DD 21 16 08 00    2376 	ld ix,2070
0418BE CD 3E A7 04       2377 	call vdu_load_img
0418C2 C9                2378 	ret
0418C3                   2379 
0418C3                   2380 ld_14_024:
0418C3 21 6D 3C 04       2381 	ld hl,F14_024
0418C7 22 CD A5 04       2382 	ld (cur_filename),hl
0418CB 11 AD A7 04       2383 	ld de,filedata
0418CF 01 00 00 01       2384 	ld bc,65536
0418D3 3E 01             2385 	ld a,mos_load
0418D5 5B CF             2386 	RST.LIL 08h
0418D7 21 6E 01 00       2387 	ld hl,BUF_14_024
0418DB 01 2E 00 00       2388 	ld bc,46
0418DF 11 40 00 00       2389 	ld de,64
0418E3 DD 21 80 0B 00    2390 	ld ix,2944
0418E8 CD 3E A7 04       2391 	call vdu_load_img
0418EC C9                2392 	ret
0418ED                   2393 
0418ED                   2394 ld_14_025:
0418ED 21 81 3C 04       2395 	ld hl,F14_025
0418F1 22 CD A5 04       2396 	ld (cur_filename),hl
0418F5 11 AD A7 04       2397 	ld de,filedata
0418F9 01 00 00 01       2398 	ld bc,65536
0418FD 3E 01             2399 	ld a,mos_load
0418FF 5B CF             2400 	RST.LIL 08h
041901 21 6F 01 00       2401 	ld hl,BUF_14_025
041905 01 1C 00 00       2402 	ld bc,28
041909 11 40 00 00       2403 	ld de,64
04190D DD 21 00 07 00    2404 	ld ix,1792
041912 CD 3E A7 04       2405 	call vdu_load_img
041916 C9                2406 	ret
041917                   2407 
041917                   2408 ld_14_026:
041917 21 95 3C 04       2409 	ld hl,F14_026
04191B 22 CD A5 04       2410 	ld (cur_filename),hl
04191F 11 AD A7 04       2411 	ld de,filedata
041923 01 00 00 01       2412 	ld bc,65536
041927 3E 01             2413 	ld a,mos_load
041929 5B CF             2414 	RST.LIL 08h
04192B 21 70 01 00       2415 	ld hl,BUF_14_026
04192F 01 09 00 00       2416 	ld bc,9
041933 11 40 00 00       2417 	ld de,64
041937 DD 21 40 02 00    2418 	ld ix,576
04193C CD 3E A7 04       2419 	call vdu_load_img
041940 C9                2420 	ret
041941                   2421 
041941                   2422 ld_14_027:
041941 21 A9 3C 04       2423 	ld hl,F14_027
041945 22 CD A5 04       2424 	ld (cur_filename),hl
041949 11 AD A7 04       2425 	ld de,filedata
04194D 01 00 00 01       2426 	ld bc,65536
041951 3E 01             2427 	ld a,mos_load
041953 5B CF             2428 	RST.LIL 08h
041955 21 71 01 00       2429 	ld hl,BUF_14_027
041959 01 0A 00 00       2430 	ld bc,10
04195D 11 3E 00 00       2431 	ld de,62
041961 DD 21 6C 02 00    2432 	ld ix,620
041966 CD 3E A7 04       2433 	call vdu_load_img
04196A C9                2434 	ret
04196B                   2435 
04196B                   2436 ld_14_028:
04196B 21 BD 3C 04       2437 	ld hl,F14_028
04196F 22 CD A5 04       2438 	ld (cur_filename),hl
041973 11 AD A7 04       2439 	ld de,filedata
041977 01 00 00 01       2440 	ld bc,65536
04197B 3E 01             2441 	ld a,mos_load
04197D 5B CF             2442 	RST.LIL 08h
04197F 21 72 01 00       2443 	ld hl,BUF_14_028
041983 01 1C 00 00       2444 	ld bc,28
041987 11 40 00 00       2445 	ld de,64
04198B DD 21 00 07 00    2446 	ld ix,1792
041990 CD 3E A7 04       2447 	call vdu_load_img
041994 C9                2448 	ret
041995                   2449 
041995                   2450 ld_14_029:
041995 21 D1 3C 04       2451 	ld hl,F14_029
041999 22 CD A5 04       2452 	ld (cur_filename),hl
04199D 11 AD A7 04       2453 	ld de,filedata
0419A1 01 00 00 01       2454 	ld bc,65536
0419A5 3E 01             2455 	ld a,mos_load
0419A7 5B CF             2456 	RST.LIL 08h
0419A9 21 73 01 00       2457 	ld hl,BUF_14_029
0419AD 01 2F 00 00       2458 	ld bc,47
0419B1 11 40 00 00       2459 	ld de,64
0419B5 DD 21 C0 0B 00    2460 	ld ix,3008
0419BA CD 3E A7 04       2461 	call vdu_load_img
0419BE C9                2462 	ret
0419BF                   2463 
0419BF                   2464 ld_14_032:
0419BF 21 E5 3C 04       2465 	ld hl,F14_032
0419C3 22 CD A5 04       2466 	ld (cur_filename),hl
0419C7 11 AD A7 04       2467 	ld de,filedata
0419CB 01 00 00 01       2468 	ld bc,65536
0419CF 3E 01             2469 	ld a,mos_load
0419D1 5B CF             2470 	RST.LIL 08h
0419D3 21 74 01 00       2471 	ld hl,BUF_14_032
0419D7 01 41 00 00       2472 	ld bc,65
0419DB 11 40 00 00       2473 	ld de,64
0419DF DD 21 40 10 00    2474 	ld ix,4160
0419E4 CD 3E A7 04       2475 	call vdu_load_img
0419E8 C9                2476 	ret
0419E9                   2477 
0419E9                   2478 ld_14_035:
0419E9 21 F9 3C 04       2479 	ld hl,F14_035
0419ED 22 CD A5 04       2480 	ld (cur_filename),hl
0419F1 11 AD A7 04       2481 	ld de,filedata
0419F5 01 00 00 01       2482 	ld bc,65536
0419F9 3E 01             2483 	ld a,mos_load
0419FB 5B CF             2484 	RST.LIL 08h
0419FD 21 75 01 00       2485 	ld hl,BUF_14_035
041A01 01 3F 00 00       2486 	ld bc,63
041A05 11 6B 00 00       2487 	ld de,107
041A09 DD 21 55 1A 00    2488 	ld ix,6741
041A0E CD 3E A7 04       2489 	call vdu_load_img
041A12 C9                2490 	ret
041A13                   2491 
041A13                   2492 ld_14_036:
041A13 21 0D 3D 04       2493 	ld hl,F14_036
041A17 22 CD A5 04       2494 	ld (cur_filename),hl
041A1B 11 AD A7 04       2495 	ld de,filedata
041A1F 01 00 00 01       2496 	ld bc,65536
041A23 3E 01             2497 	ld a,mos_load
041A25 5B CF             2498 	RST.LIL 08h
041A27 21 76 01 00       2499 	ld hl,BUF_14_036
041A2B 01 16 00 00       2500 	ld bc,22
041A2F 11 6B 00 00       2501 	ld de,107
041A33 DD 21 32 09 00    2502 	ld ix,2354
041A38 CD 3E A7 04       2503 	call vdu_load_img
041A3C C9                2504 	ret
041A3D                   2505 
041A3D                   2506 ld_14_037:
041A3D 21 21 3D 04       2507 	ld hl,F14_037
041A41 22 CD A5 04       2508 	ld (cur_filename),hl
041A45 11 AD A7 04       2509 	ld de,filedata
041A49 01 00 00 01       2510 	ld bc,65536
041A4D 3E 01             2511 	ld a,mos_load
041A4F 5B CF             2512 	RST.LIL 08h
041A51 21 77 01 00       2513 	ld hl,BUF_14_037
041A55 01 15 00 00       2514 	ld bc,21
041A59 11 69 00 00       2515 	ld de,105
041A5D DD 21 9D 08 00    2516 	ld ix,2205
041A62 CD 3E A7 04       2517 	call vdu_load_img
041A66 C9                2518 	ret
041A67                   2519 
041A67                   2520 ld_14_038:
041A67 21 35 3D 04       2521 	ld hl,F14_038
041A6B 22 CD A5 04       2522 	ld (cur_filename),hl
041A6F 11 AD A7 04       2523 	ld de,filedata
041A73 01 00 00 01       2524 	ld bc,65536
041A77 3E 01             2525 	ld a,mos_load
041A79 5B CF             2526 	RST.LIL 08h
041A7B 21 78 01 00       2527 	ld hl,BUF_14_038
041A7F 01 3F 00 00       2528 	ld bc,63
041A83 11 6B 00 00       2529 	ld de,107
041A87 DD 21 55 1A 00    2530 	ld ix,6741
041A8C CD 3E A7 04       2531 	call vdu_load_img
041A90 C9                2532 	ret
041A91                   2533 
041A91                   2534 ld_14_040:
041A91 21 49 3D 04       2535 	ld hl,F14_040
041A95 22 CD A5 04       2536 	ld (cur_filename),hl
041A99 11 AD A7 04       2537 	ld de,filedata
041A9D 01 00 00 01       2538 	ld bc,65536
041AA1 3E 01             2539 	ld a,mos_load
041AA3 5B CF             2540 	RST.LIL 08h
041AA5 21 79 01 00       2541 	ld hl,BUF_14_040
041AA9 01 6C 00 00       2542 	ld bc,108
041AAD 11 6B 00 00       2543 	ld de,107
041AB1 DD 21 24 2D 00    2544 	ld ix,11556
041AB6 CD 3E A7 04       2545 	call vdu_load_img
041ABA C9                2546 	ret
041ABB                   2547 
041ABB                   2548 ld_14_042:
041ABB 21 5D 3D 04       2549 	ld hl,F14_042
041ABF 22 CD A5 04       2550 	ld (cur_filename),hl
041AC3 11 AD A7 04       2551 	ld de,filedata
041AC7 01 00 00 01       2552 	ld bc,65536
041ACB 3E 01             2553 	ld a,mos_load
041ACD 5B CF             2554 	RST.LIL 08h
041ACF 21 7A 01 00       2555 	ld hl,BUF_14_042
041AD3 01 6A 00 00       2556 	ld bc,106
041AD7 11 A0 00 00       2557 	ld de,160
041ADB DD 21 40 42 00    2558 	ld ix,16960
041AE0 CD 3E A7 04       2559 	call vdu_load_img
041AE4 C9                2560 	ret
041AE5                   2561 
041AE5                   2562 ld_14_043:
041AE5 21 71 3D 04       2563 	ld hl,F14_043
041AE9 22 CD A5 04       2564 	ld (cur_filename),hl
041AED 11 AD A7 04       2565 	ld de,filedata
041AF1 01 00 00 01       2566 	ld bc,65536
041AF5 3E 01             2567 	ld a,mos_load
041AF7 5B CF             2568 	RST.LIL 08h
041AF9 21 7B 01 00       2569 	ld hl,BUF_14_043
041AFD 01 6B 00 00       2570 	ld bc,107
041B01 11 A0 00 00       2571 	ld de,160
041B05 DD 21 E0 42 00    2572 	ld ix,17120
041B0A CD 3E A7 04       2573 	call vdu_load_img
041B0E C9                2574 	ret
041B0F                   2575 
041B0F                   2576 ld_14_044:
041B0F 21 85 3D 04       2577 	ld hl,F14_044
041B13 22 CD A5 04       2578 	ld (cur_filename),hl
041B17 11 AD A7 04       2579 	ld de,filedata
041B1B 01 00 00 01       2580 	ld bc,65536
041B1F 3E 01             2581 	ld a,mos_load
041B21 5B CF             2582 	RST.LIL 08h
041B23 21 7C 01 00       2583 	ld hl,BUF_14_044
041B27 01 40 01 00       2584 	ld bc,320
041B2B 11 A0 00 00       2585 	ld de,160
041B2F DD 21 00 C8 00    2586 	ld ix,51200
041B34 CD 3E A7 04       2587 	call vdu_load_img
041B38 C9                2588 	ret
041B39                   2589 
041B39                   2590 ld_15_004:
041B39 21 99 3D 04       2591 	ld hl,F15_004
041B3D 22 CD A5 04       2592 	ld (cur_filename),hl
041B41 11 AD A7 04       2593 	ld de,filedata
041B45 01 00 00 01       2594 	ld bc,65536
041B49 3E 01             2595 	ld a,mos_load
041B4B 5B CF             2596 	RST.LIL 08h
041B4D 21 7D 01 00       2597 	ld hl,BUF_15_004
041B51 01 24 00 00       2598 	ld bc,36
041B55 11 23 00 00       2599 	ld de,35
041B59 DD 21 EC 04 00    2600 	ld ix,1260
041B5E CD 3E A7 04       2601 	call vdu_load_img
041B62 C9                2602 	ret
041B63                   2603 
041B63                   2604 ld_15_009:
041B63 21 AD 3D 04       2605 	ld hl,F15_009
041B67 22 CD A5 04       2606 	ld (cur_filename),hl
041B6B 11 AD A7 04       2607 	ld de,filedata
041B6F 01 00 00 01       2608 	ld bc,65536
041B73 3E 01             2609 	ld a,mos_load
041B75 5B CF             2610 	RST.LIL 08h
041B77 21 7E 01 00       2611 	ld hl,BUF_15_009
041B7B 01 23 00 00       2612 	ld bc,35
041B7F 11 2D 00 00       2613 	ld de,45
041B83 DD 21 27 06 00    2614 	ld ix,1575
041B88 CD 3E A7 04       2615 	call vdu_load_img
041B8C C9                2616 	ret
041B8D                   2617 
041B8D                   2618 ld_15_010:
041B8D 21 C1 3D 04       2619 	ld hl,F15_010
041B91 22 CD A5 04       2620 	ld (cur_filename),hl
041B95 11 AD A7 04       2621 	ld de,filedata
041B99 01 00 00 01       2622 	ld bc,65536
041B9D 3E 01             2623 	ld a,mos_load
041B9F 5B CF             2624 	RST.LIL 08h
041BA1 21 7F 01 00       2625 	ld hl,BUF_15_010
041BA5 01 19 00 00       2626 	ld bc,25
041BA9 11 2D 00 00       2627 	ld de,45
041BAD DD 21 65 04 00    2628 	ld ix,1125
041BB2 CD 3E A7 04       2629 	call vdu_load_img
041BB6 C9                2630 	ret
041BB7                   2631 
041BB7                   2632 ld_15_011:
041BB7 21 D5 3D 04       2633 	ld hl,F15_011
041BBB 22 CD A5 04       2634 	ld (cur_filename),hl
041BBF 11 AD A7 04       2635 	ld de,filedata
041BC3 01 00 00 01       2636 	ld bc,65536
041BC7 3E 01             2637 	ld a,mos_load
041BC9 5B CF             2638 	RST.LIL 08h
041BCB 21 80 01 00       2639 	ld hl,BUF_15_011
041BCF 01 0F 00 00       2640 	ld bc,15
041BD3 11 2D 00 00       2641 	ld de,45
041BD7 DD 21 A3 02 00    2642 	ld ix,675
041BDC CD 3E A7 04       2643 	call vdu_load_img
041BE0 C9                2644 	ret
041BE1                   2645 
041BE1                   2646 ld_15_012:
041BE1 21 E9 3D 04       2647 	ld hl,F15_012
041BE5 22 CD A5 04       2648 	ld (cur_filename),hl
041BE9 11 AD A7 04       2649 	ld de,filedata
041BED 01 00 00 01       2650 	ld bc,65536
041BF1 3E 01             2651 	ld a,mos_load
041BF3 5B CF             2652 	RST.LIL 08h
041BF5 21 81 01 00       2653 	ld hl,BUF_15_012
041BF9 01 05 00 00       2654 	ld bc,5
041BFD 11 2D 00 00       2655 	ld de,45
041C01 DD 21 E1 00 00    2656 	ld ix,225
041C06 CD 3E A7 04       2657 	call vdu_load_img
041C0A C9                2658 	ret
041C0B                   2659 
041C0B                   2660 ld_15_013:
041C0B 21 FD 3D 04       2661 	ld hl,F15_013
041C0F 22 CD A5 04       2662 	ld (cur_filename),hl
041C13 11 AD A7 04       2663 	ld de,filedata
041C17 01 00 00 01       2664 	ld bc,65536
041C1B 3E 01             2665 	ld a,mos_load
041C1D 5B CF             2666 	RST.LIL 08h
041C1F 21 82 01 00       2667 	ld hl,BUF_15_013
041C23 01 05 00 00       2668 	ld bc,5
041C27 11 2B 00 00       2669 	ld de,43
041C2B DD 21 D7 00 00    2670 	ld ix,215
041C30 CD 3E A7 04       2671 	call vdu_load_img
041C34 C9                2672 	ret
041C35                   2673 
041C35                   2674 ld_15_014:
041C35 21 11 3E 04       2675 	ld hl,F15_014
041C39 22 CD A5 04       2676 	ld (cur_filename),hl
041C3D 11 AD A7 04       2677 	ld de,filedata
041C41 01 00 00 01       2678 	ld bc,65536
041C45 3E 01             2679 	ld a,mos_load
041C47 5B CF             2680 	RST.LIL 08h
041C49 21 83 01 00       2681 	ld hl,BUF_15_014
041C4D 01 0F 00 00       2682 	ld bc,15
041C51 11 2D 00 00       2683 	ld de,45
041C55 DD 21 A3 02 00    2684 	ld ix,675
041C5A CD 3E A7 04       2685 	call vdu_load_img
041C5E C9                2686 	ret
041C5F                   2687 
041C5F                   2688 ld_15_015:
041C5F 21 25 3E 04       2689 	ld hl,F15_015
041C63 22 CD A5 04       2690 	ld (cur_filename),hl
041C67 11 AD A7 04       2691 	ld de,filedata
041C6B 01 00 00 01       2692 	ld bc,65536
041C6F 3E 01             2693 	ld a,mos_load
041C71 5B CF             2694 	RST.LIL 08h
041C73 21 84 01 00       2695 	ld hl,BUF_15_015
041C77 01 19 00 00       2696 	ld bc,25
041C7B 11 2D 00 00       2697 	ld de,45
041C7F DD 21 65 04 00    2698 	ld ix,1125
041C84 CD 3E A7 04       2699 	call vdu_load_img
041C88 C9                2700 	ret
041C89                   2701 
041C89                   2702 ld_15_016:
041C89 21 39 3E 04       2703 	ld hl,F15_016
041C8D 22 CD A5 04       2704 	ld (cur_filename),hl
041C91 11 AD A7 04       2705 	ld de,filedata
041C95 01 00 00 01       2706 	ld bc,65536
041C99 3E 01             2707 	ld a,mos_load
041C9B 5B CF             2708 	RST.LIL 08h
041C9D 21 85 01 00       2709 	ld hl,BUF_15_016
041CA1 01 23 00 00       2710 	ld bc,35
041CA5 11 2D 00 00       2711 	ld de,45
041CA9 DD 21 27 06 00    2712 	ld ix,1575
041CAE CD 3E A7 04       2713 	call vdu_load_img
041CB2 C9                2714 	ret
041CB3                   2715 
041CB3                   2716 ld_15_020:
041CB3 21 4D 3E 04       2717 	ld hl,F15_020
041CB7 22 CD A5 04       2718 	ld (cur_filename),hl
041CBB 11 AD A7 04       2719 	ld de,filedata
041CBF 01 00 00 01       2720 	ld bc,65536
041CC3 3E 01             2721 	ld a,mos_load
041CC5 5B CF             2722 	RST.LIL 08h
041CC7 21 86 01 00       2723 	ld hl,BUF_15_020
041CCB 01 2E 00 00       2724 	ld bc,46
041CCF 11 2D 00 00       2725 	ld de,45
041CD3 DD 21 16 08 00    2726 	ld ix,2070
041CD8 CD 3E A7 04       2727 	call vdu_load_img
041CDC C9                2728 	ret
041CDD                   2729 
041CDD                   2730 ld_15_024:
041CDD 21 61 3E 04       2731 	ld hl,F15_024
041CE1 22 CD A5 04       2732 	ld (cur_filename),hl
041CE5 11 AD A7 04       2733 	ld de,filedata
041CE9 01 00 00 01       2734 	ld bc,65536
041CED 3E 01             2735 	ld a,mos_load
041CEF 5B CF             2736 	RST.LIL 08h
041CF1 21 87 01 00       2737 	ld hl,BUF_15_024
041CF5 01 2E 00 00       2738 	ld bc,46
041CF9 11 40 00 00       2739 	ld de,64
041CFD DD 21 80 0B 00    2740 	ld ix,2944
041D02 CD 3E A7 04       2741 	call vdu_load_img
041D06 C9                2742 	ret
041D07                   2743 
041D07                   2744 ld_15_025:
041D07 21 75 3E 04       2745 	ld hl,F15_025
041D0B 22 CD A5 04       2746 	ld (cur_filename),hl
041D0F 11 AD A7 04       2747 	ld de,filedata
041D13 01 00 00 01       2748 	ld bc,65536
041D17 3E 01             2749 	ld a,mos_load
041D19 5B CF             2750 	RST.LIL 08h
041D1B 21 88 01 00       2751 	ld hl,BUF_15_025
041D1F 01 1C 00 00       2752 	ld bc,28
041D23 11 40 00 00       2753 	ld de,64
041D27 DD 21 00 07 00    2754 	ld ix,1792
041D2C CD 3E A7 04       2755 	call vdu_load_img
041D30 C9                2756 	ret
041D31                   2757 
041D31                   2758 ld_15_026:
041D31 21 89 3E 04       2759 	ld hl,F15_026
041D35 22 CD A5 04       2760 	ld (cur_filename),hl
041D39 11 AD A7 04       2761 	ld de,filedata
041D3D 01 00 00 01       2762 	ld bc,65536
041D41 3E 01             2763 	ld a,mos_load
041D43 5B CF             2764 	RST.LIL 08h
041D45 21 89 01 00       2765 	ld hl,BUF_15_026
041D49 01 09 00 00       2766 	ld bc,9
041D4D 11 40 00 00       2767 	ld de,64
041D51 DD 21 40 02 00    2768 	ld ix,576
041D56 CD 3E A7 04       2769 	call vdu_load_img
041D5A C9                2770 	ret
041D5B                   2771 
041D5B                   2772 ld_15_027:
041D5B 21 9D 3E 04       2773 	ld hl,F15_027
041D5F 22 CD A5 04       2774 	ld (cur_filename),hl
041D63 11 AD A7 04       2775 	ld de,filedata
041D67 01 00 00 01       2776 	ld bc,65536
041D6B 3E 01             2777 	ld a,mos_load
041D6D 5B CF             2778 	RST.LIL 08h
041D6F 21 8A 01 00       2779 	ld hl,BUF_15_027
041D73 01 0A 00 00       2780 	ld bc,10
041D77 11 3E 00 00       2781 	ld de,62
041D7B DD 21 6C 02 00    2782 	ld ix,620
041D80 CD 3E A7 04       2783 	call vdu_load_img
041D84 C9                2784 	ret
041D85                   2785 
041D85                   2786 ld_15_028:
041D85 21 B1 3E 04       2787 	ld hl,F15_028
041D89 22 CD A5 04       2788 	ld (cur_filename),hl
041D8D 11 AD A7 04       2789 	ld de,filedata
041D91 01 00 00 01       2790 	ld bc,65536
041D95 3E 01             2791 	ld a,mos_load
041D97 5B CF             2792 	RST.LIL 08h
041D99 21 8B 01 00       2793 	ld hl,BUF_15_028
041D9D 01 1C 00 00       2794 	ld bc,28
041DA1 11 40 00 00       2795 	ld de,64
041DA5 DD 21 00 07 00    2796 	ld ix,1792
041DAA CD 3E A7 04       2797 	call vdu_load_img
041DAE C9                2798 	ret
041DAF                   2799 
041DAF                   2800 ld_15_029:
041DAF 21 C5 3E 04       2801 	ld hl,F15_029
041DB3 22 CD A5 04       2802 	ld (cur_filename),hl
041DB7 11 AD A7 04       2803 	ld de,filedata
041DBB 01 00 00 01       2804 	ld bc,65536
041DBF 3E 01             2805 	ld a,mos_load
041DC1 5B CF             2806 	RST.LIL 08h
041DC3 21 8C 01 00       2807 	ld hl,BUF_15_029
041DC7 01 2F 00 00       2808 	ld bc,47
041DCB 11 40 00 00       2809 	ld de,64
041DCF DD 21 C0 0B 00    2810 	ld ix,3008
041DD4 CD 3E A7 04       2811 	call vdu_load_img
041DD8 C9                2812 	ret
041DD9                   2813 
041DD9                   2814 ld_15_032:
041DD9 21 D9 3E 04       2815 	ld hl,F15_032
041DDD 22 CD A5 04       2816 	ld (cur_filename),hl
041DE1 11 AD A7 04       2817 	ld de,filedata
041DE5 01 00 00 01       2818 	ld bc,65536
041DE9 3E 01             2819 	ld a,mos_load
041DEB 5B CF             2820 	RST.LIL 08h
041DED 21 8D 01 00       2821 	ld hl,BUF_15_032
041DF1 01 41 00 00       2822 	ld bc,65
041DF5 11 40 00 00       2823 	ld de,64
041DF9 DD 21 40 10 00    2824 	ld ix,4160
041DFE CD 3E A7 04       2825 	call vdu_load_img
041E02 C9                2826 	ret
041E03                   2827 
041E03                   2828 ld_15_035:
041E03 21 ED 3E 04       2829 	ld hl,F15_035
041E07 22 CD A5 04       2830 	ld (cur_filename),hl
041E0B 11 AD A7 04       2831 	ld de,filedata
041E0F 01 00 00 01       2832 	ld bc,65536
041E13 3E 01             2833 	ld a,mos_load
041E15 5B CF             2834 	RST.LIL 08h
041E17 21 8E 01 00       2835 	ld hl,BUF_15_035
041E1B 01 3F 00 00       2836 	ld bc,63
041E1F 11 6B 00 00       2837 	ld de,107
041E23 DD 21 55 1A 00    2838 	ld ix,6741
041E28 CD 3E A7 04       2839 	call vdu_load_img
041E2C C9                2840 	ret
041E2D                   2841 
041E2D                   2842 ld_15_036:
041E2D 21 01 3F 04       2843 	ld hl,F15_036
041E31 22 CD A5 04       2844 	ld (cur_filename),hl
041E35 11 AD A7 04       2845 	ld de,filedata
041E39 01 00 00 01       2846 	ld bc,65536
041E3D 3E 01             2847 	ld a,mos_load
041E3F 5B CF             2848 	RST.LIL 08h
041E41 21 8F 01 00       2849 	ld hl,BUF_15_036
041E45 01 16 00 00       2850 	ld bc,22
041E49 11 6B 00 00       2851 	ld de,107
041E4D DD 21 32 09 00    2852 	ld ix,2354
041E52 CD 3E A7 04       2853 	call vdu_load_img
041E56 C9                2854 	ret
041E57                   2855 
041E57                   2856 ld_15_037:
041E57 21 15 3F 04       2857 	ld hl,F15_037
041E5B 22 CD A5 04       2858 	ld (cur_filename),hl
041E5F 11 AD A7 04       2859 	ld de,filedata
041E63 01 00 00 01       2860 	ld bc,65536
041E67 3E 01             2861 	ld a,mos_load
041E69 5B CF             2862 	RST.LIL 08h
041E6B 21 90 01 00       2863 	ld hl,BUF_15_037
041E6F 01 15 00 00       2864 	ld bc,21
041E73 11 69 00 00       2865 	ld de,105
041E77 DD 21 9D 08 00    2866 	ld ix,2205
041E7C CD 3E A7 04       2867 	call vdu_load_img
041E80 C9                2868 	ret
041E81                   2869 
041E81                   2870 ld_15_038:
041E81 21 29 3F 04       2871 	ld hl,F15_038
041E85 22 CD A5 04       2872 	ld (cur_filename),hl
041E89 11 AD A7 04       2873 	ld de,filedata
041E8D 01 00 00 01       2874 	ld bc,65536
041E91 3E 01             2875 	ld a,mos_load
041E93 5B CF             2876 	RST.LIL 08h
041E95 21 91 01 00       2877 	ld hl,BUF_15_038
041E99 01 3F 00 00       2878 	ld bc,63
041E9D 11 6B 00 00       2879 	ld de,107
041EA1 DD 21 55 1A 00    2880 	ld ix,6741
041EA6 CD 3E A7 04       2881 	call vdu_load_img
041EAA C9                2882 	ret
041EAB                   2883 
041EAB                   2884 ld_15_040:
041EAB 21 3D 3F 04       2885 	ld hl,F15_040
041EAF 22 CD A5 04       2886 	ld (cur_filename),hl
041EB3 11 AD A7 04       2887 	ld de,filedata
041EB7 01 00 00 01       2888 	ld bc,65536
041EBB 3E 01             2889 	ld a,mos_load
041EBD 5B CF             2890 	RST.LIL 08h
041EBF 21 92 01 00       2891 	ld hl,BUF_15_040
041EC3 01 6C 00 00       2892 	ld bc,108
041EC7 11 6B 00 00       2893 	ld de,107
041ECB DD 21 24 2D 00    2894 	ld ix,11556
041ED0 CD 3E A7 04       2895 	call vdu_load_img
041ED4 C9                2896 	ret
041ED5                   2897 
041ED5                   2898 ld_15_042:
041ED5 21 51 3F 04       2899 	ld hl,F15_042
041ED9 22 CD A5 04       2900 	ld (cur_filename),hl
041EDD 11 AD A7 04       2901 	ld de,filedata
041EE1 01 00 00 01       2902 	ld bc,65536
041EE5 3E 01             2903 	ld a,mos_load
041EE7 5B CF             2904 	RST.LIL 08h
041EE9 21 93 01 00       2905 	ld hl,BUF_15_042
041EED 01 6A 00 00       2906 	ld bc,106
041EF1 11 A0 00 00       2907 	ld de,160
041EF5 DD 21 40 42 00    2908 	ld ix,16960
041EFA CD 3E A7 04       2909 	call vdu_load_img
041EFE C9                2910 	ret
041EFF                   2911 
041EFF                   2912 ld_15_043:
041EFF 21 65 3F 04       2913 	ld hl,F15_043
041F03 22 CD A5 04       2914 	ld (cur_filename),hl
041F07 11 AD A7 04       2915 	ld de,filedata
041F0B 01 00 00 01       2916 	ld bc,65536
041F0F 3E 01             2917 	ld a,mos_load
041F11 5B CF             2918 	RST.LIL 08h
041F13 21 94 01 00       2919 	ld hl,BUF_15_043
041F17 01 6B 00 00       2920 	ld bc,107
041F1B 11 A0 00 00       2921 	ld de,160
041F1F DD 21 E0 42 00    2922 	ld ix,17120
041F24 CD 3E A7 04       2923 	call vdu_load_img
041F28 C9                2924 	ret
041F29                   2925 
041F29                   2926 ld_15_044:
041F29 21 79 3F 04       2927 	ld hl,F15_044
041F2D 22 CD A5 04       2928 	ld (cur_filename),hl
041F31 11 AD A7 04       2929 	ld de,filedata
041F35 01 00 00 01       2930 	ld bc,65536
041F39 3E 01             2931 	ld a,mos_load
041F3B 5B CF             2932 	RST.LIL 08h
041F3D 21 95 01 00       2933 	ld hl,BUF_15_044
041F41 01 40 01 00       2934 	ld bc,320
041F45 11 A0 00 00       2935 	ld de,160
041F49 DD 21 00 C8 00    2936 	ld ix,51200
041F4E CD 3E A7 04       2937 	call vdu_load_img
041F52 C9                2938 	ret
041F53                   2939 
041F53                   2940 ld_16_004:
041F53 21 8D 3F 04       2941 	ld hl,F16_004
041F57 22 CD A5 04       2942 	ld (cur_filename),hl
041F5B 11 AD A7 04       2943 	ld de,filedata
041F5F 01 00 00 01       2944 	ld bc,65536
041F63 3E 01             2945 	ld a,mos_load
041F65 5B CF             2946 	RST.LIL 08h
041F67 21 96 01 00       2947 	ld hl,BUF_16_004
041F6B 01 24 00 00       2948 	ld bc,36
041F6F 11 23 00 00       2949 	ld de,35
041F73 DD 21 EC 04 00    2950 	ld ix,1260
041F78 CD 3E A7 04       2951 	call vdu_load_img
041F7C C9                2952 	ret
041F7D                   2953 
041F7D                   2954 ld_16_009:
041F7D 21 A1 3F 04       2955 	ld hl,F16_009
041F81 22 CD A5 04       2956 	ld (cur_filename),hl
041F85 11 AD A7 04       2957 	ld de,filedata
041F89 01 00 00 01       2958 	ld bc,65536
041F8D 3E 01             2959 	ld a,mos_load
041F8F 5B CF             2960 	RST.LIL 08h
041F91 21 97 01 00       2961 	ld hl,BUF_16_009
041F95 01 23 00 00       2962 	ld bc,35
041F99 11 2D 00 00       2963 	ld de,45
041F9D DD 21 27 06 00    2964 	ld ix,1575
041FA2 CD 3E A7 04       2965 	call vdu_load_img
041FA6 C9                2966 	ret
041FA7                   2967 
041FA7                   2968 ld_16_010:
041FA7 21 B5 3F 04       2969 	ld hl,F16_010
041FAB 22 CD A5 04       2970 	ld (cur_filename),hl
041FAF 11 AD A7 04       2971 	ld de,filedata
041FB3 01 00 00 01       2972 	ld bc,65536
041FB7 3E 01             2973 	ld a,mos_load
041FB9 5B CF             2974 	RST.LIL 08h
041FBB 21 98 01 00       2975 	ld hl,BUF_16_010
041FBF 01 19 00 00       2976 	ld bc,25
041FC3 11 2D 00 00       2977 	ld de,45
041FC7 DD 21 65 04 00    2978 	ld ix,1125
041FCC CD 3E A7 04       2979 	call vdu_load_img
041FD0 C9                2980 	ret
041FD1                   2981 
041FD1                   2982 ld_16_011:
041FD1 21 C9 3F 04       2983 	ld hl,F16_011
041FD5 22 CD A5 04       2984 	ld (cur_filename),hl
041FD9 11 AD A7 04       2985 	ld de,filedata
041FDD 01 00 00 01       2986 	ld bc,65536
041FE1 3E 01             2987 	ld a,mos_load
041FE3 5B CF             2988 	RST.LIL 08h
041FE5 21 99 01 00       2989 	ld hl,BUF_16_011
041FE9 01 0F 00 00       2990 	ld bc,15
041FED 11 2D 00 00       2991 	ld de,45
041FF1 DD 21 A3 02 00    2992 	ld ix,675
041FF6 CD 3E A7 04       2993 	call vdu_load_img
041FFA C9                2994 	ret
041FFB                   2995 
041FFB                   2996 ld_16_012:
041FFB 21 DD 3F 04       2997 	ld hl,F16_012
041FFF 22 CD A5 04       2998 	ld (cur_filename),hl
042003 11 AD A7 04       2999 	ld de,filedata
042007 01 00 00 01       3000 	ld bc,65536
04200B 3E 01             3001 	ld a,mos_load
04200D 5B CF             3002 	RST.LIL 08h
04200F 21 9A 01 00       3003 	ld hl,BUF_16_012
042013 01 05 00 00       3004 	ld bc,5
042017 11 2D 00 00       3005 	ld de,45
04201B DD 21 E1 00 00    3006 	ld ix,225
042020 CD 3E A7 04       3007 	call vdu_load_img
042024 C9                3008 	ret
042025                   3009 
042025                   3010 ld_16_013:
042025 21 F1 3F 04       3011 	ld hl,F16_013
042029 22 CD A5 04       3012 	ld (cur_filename),hl
04202D 11 AD A7 04       3013 	ld de,filedata
042031 01 00 00 01       3014 	ld bc,65536
042035 3E 01             3015 	ld a,mos_load
042037 5B CF             3016 	RST.LIL 08h
042039 21 9B 01 00       3017 	ld hl,BUF_16_013
04203D 01 05 00 00       3018 	ld bc,5
042041 11 2B 00 00       3019 	ld de,43
042045 DD 21 D7 00 00    3020 	ld ix,215
04204A CD 3E A7 04       3021 	call vdu_load_img
04204E C9                3022 	ret
04204F                   3023 
04204F                   3024 ld_16_014:
04204F 21 05 40 04       3025 	ld hl,F16_014
042053 22 CD A5 04       3026 	ld (cur_filename),hl
042057 11 AD A7 04       3027 	ld de,filedata
04205B 01 00 00 01       3028 	ld bc,65536
04205F 3E 01             3029 	ld a,mos_load
042061 5B CF             3030 	RST.LIL 08h
042063 21 9C 01 00       3031 	ld hl,BUF_16_014
042067 01 0F 00 00       3032 	ld bc,15
04206B 11 2D 00 00       3033 	ld de,45
04206F DD 21 A3 02 00    3034 	ld ix,675
042074 CD 3E A7 04       3035 	call vdu_load_img
042078 C9                3036 	ret
042079                   3037 
042079                   3038 ld_16_015:
042079 21 19 40 04       3039 	ld hl,F16_015
04207D 22 CD A5 04       3040 	ld (cur_filename),hl
042081 11 AD A7 04       3041 	ld de,filedata
042085 01 00 00 01       3042 	ld bc,65536
042089 3E 01             3043 	ld a,mos_load
04208B 5B CF             3044 	RST.LIL 08h
04208D 21 9D 01 00       3045 	ld hl,BUF_16_015
042091 01 19 00 00       3046 	ld bc,25
042095 11 2D 00 00       3047 	ld de,45
042099 DD 21 65 04 00    3048 	ld ix,1125
04209E CD 3E A7 04       3049 	call vdu_load_img
0420A2 C9                3050 	ret
0420A3                   3051 
0420A3                   3052 ld_16_016:
0420A3 21 2D 40 04       3053 	ld hl,F16_016
0420A7 22 CD A5 04       3054 	ld (cur_filename),hl
0420AB 11 AD A7 04       3055 	ld de,filedata
0420AF 01 00 00 01       3056 	ld bc,65536
0420B3 3E 01             3057 	ld a,mos_load
0420B5 5B CF             3058 	RST.LIL 08h
0420B7 21 9E 01 00       3059 	ld hl,BUF_16_016
0420BB 01 23 00 00       3060 	ld bc,35
0420BF 11 2D 00 00       3061 	ld de,45
0420C3 DD 21 27 06 00    3062 	ld ix,1575
0420C8 CD 3E A7 04       3063 	call vdu_load_img
0420CC C9                3064 	ret
0420CD                   3065 
0420CD                   3066 ld_16_020:
0420CD 21 41 40 04       3067 	ld hl,F16_020
0420D1 22 CD A5 04       3068 	ld (cur_filename),hl
0420D5 11 AD A7 04       3069 	ld de,filedata
0420D9 01 00 00 01       3070 	ld bc,65536
0420DD 3E 01             3071 	ld a,mos_load
0420DF 5B CF             3072 	RST.LIL 08h
0420E1 21 9F 01 00       3073 	ld hl,BUF_16_020
0420E5 01 2E 00 00       3074 	ld bc,46
0420E9 11 2D 00 00       3075 	ld de,45
0420ED DD 21 16 08 00    3076 	ld ix,2070
0420F2 CD 3E A7 04       3077 	call vdu_load_img
0420F6 C9                3078 	ret
0420F7                   3079 
0420F7                   3080 ld_16_024:
0420F7 21 55 40 04       3081 	ld hl,F16_024
0420FB 22 CD A5 04       3082 	ld (cur_filename),hl
0420FF 11 AD A7 04       3083 	ld de,filedata
042103 01 00 00 01       3084 	ld bc,65536
042107 3E 01             3085 	ld a,mos_load
042109 5B CF             3086 	RST.LIL 08h
04210B 21 A0 01 00       3087 	ld hl,BUF_16_024
04210F 01 2E 00 00       3088 	ld bc,46
042113 11 40 00 00       3089 	ld de,64
042117 DD 21 80 0B 00    3090 	ld ix,2944
04211C CD 3E A7 04       3091 	call vdu_load_img
042120 C9                3092 	ret
042121                   3093 
042121                   3094 ld_16_025:
042121 21 69 40 04       3095 	ld hl,F16_025
042125 22 CD A5 04       3096 	ld (cur_filename),hl
042129 11 AD A7 04       3097 	ld de,filedata
04212D 01 00 00 01       3098 	ld bc,65536
042131 3E 01             3099 	ld a,mos_load
042133 5B CF             3100 	RST.LIL 08h
042135 21 A1 01 00       3101 	ld hl,BUF_16_025
042139 01 1C 00 00       3102 	ld bc,28
04213D 11 40 00 00       3103 	ld de,64
042141 DD 21 00 07 00    3104 	ld ix,1792
042146 CD 3E A7 04       3105 	call vdu_load_img
04214A C9                3106 	ret
04214B                   3107 
04214B                   3108 ld_16_026:
04214B 21 7D 40 04       3109 	ld hl,F16_026
04214F 22 CD A5 04       3110 	ld (cur_filename),hl
042153 11 AD A7 04       3111 	ld de,filedata
042157 01 00 00 01       3112 	ld bc,65536
04215B 3E 01             3113 	ld a,mos_load
04215D 5B CF             3114 	RST.LIL 08h
04215F 21 A2 01 00       3115 	ld hl,BUF_16_026
042163 01 09 00 00       3116 	ld bc,9
042167 11 40 00 00       3117 	ld de,64
04216B DD 21 40 02 00    3118 	ld ix,576
042170 CD 3E A7 04       3119 	call vdu_load_img
042174 C9                3120 	ret
042175                   3121 
042175                   3122 ld_16_027:
042175 21 91 40 04       3123 	ld hl,F16_027
042179 22 CD A5 04       3124 	ld (cur_filename),hl
04217D 11 AD A7 04       3125 	ld de,filedata
042181 01 00 00 01       3126 	ld bc,65536
042185 3E 01             3127 	ld a,mos_load
042187 5B CF             3128 	RST.LIL 08h
042189 21 A3 01 00       3129 	ld hl,BUF_16_027
04218D 01 0A 00 00       3130 	ld bc,10
042191 11 3E 00 00       3131 	ld de,62
042195 DD 21 6C 02 00    3132 	ld ix,620
04219A CD 3E A7 04       3133 	call vdu_load_img
04219E C9                3134 	ret
04219F                   3135 
04219F                   3136 ld_16_028:
04219F 21 A5 40 04       3137 	ld hl,F16_028
0421A3 22 CD A5 04       3138 	ld (cur_filename),hl
0421A7 11 AD A7 04       3139 	ld de,filedata
0421AB 01 00 00 01       3140 	ld bc,65536
0421AF 3E 01             3141 	ld a,mos_load
0421B1 5B CF             3142 	RST.LIL 08h
0421B3 21 A4 01 00       3143 	ld hl,BUF_16_028
0421B7 01 1C 00 00       3144 	ld bc,28
0421BB 11 40 00 00       3145 	ld de,64
0421BF DD 21 00 07 00    3146 	ld ix,1792
0421C4 CD 3E A7 04       3147 	call vdu_load_img
0421C8 C9                3148 	ret
0421C9                   3149 
0421C9                   3150 ld_16_029:
0421C9 21 B9 40 04       3151 	ld hl,F16_029
0421CD 22 CD A5 04       3152 	ld (cur_filename),hl
0421D1 11 AD A7 04       3153 	ld de,filedata
0421D5 01 00 00 01       3154 	ld bc,65536
0421D9 3E 01             3155 	ld a,mos_load
0421DB 5B CF             3156 	RST.LIL 08h
0421DD 21 A5 01 00       3157 	ld hl,BUF_16_029
0421E1 01 2F 00 00       3158 	ld bc,47
0421E5 11 40 00 00       3159 	ld de,64
0421E9 DD 21 C0 0B 00    3160 	ld ix,3008
0421EE CD 3E A7 04       3161 	call vdu_load_img
0421F2 C9                3162 	ret
0421F3                   3163 
0421F3                   3164 ld_16_032:
0421F3 21 CD 40 04       3165 	ld hl,F16_032
0421F7 22 CD A5 04       3166 	ld (cur_filename),hl
0421FB 11 AD A7 04       3167 	ld de,filedata
0421FF 01 00 00 01       3168 	ld bc,65536
042203 3E 01             3169 	ld a,mos_load
042205 5B CF             3170 	RST.LIL 08h
042207 21 A6 01 00       3171 	ld hl,BUF_16_032
04220B 01 41 00 00       3172 	ld bc,65
04220F 11 40 00 00       3173 	ld de,64
042213 DD 21 40 10 00    3174 	ld ix,4160
042218 CD 3E A7 04       3175 	call vdu_load_img
04221C C9                3176 	ret
04221D                   3177 
04221D                   3178 ld_16_035:
04221D 21 E1 40 04       3179 	ld hl,F16_035
042221 22 CD A5 04       3180 	ld (cur_filename),hl
042225 11 AD A7 04       3181 	ld de,filedata
042229 01 00 00 01       3182 	ld bc,65536
04222D 3E 01             3183 	ld a,mos_load
04222F 5B CF             3184 	RST.LIL 08h
042231 21 A7 01 00       3185 	ld hl,BUF_16_035
042235 01 3F 00 00       3186 	ld bc,63
042239 11 6B 00 00       3187 	ld de,107
04223D DD 21 55 1A 00    3188 	ld ix,6741
042242 CD 3E A7 04       3189 	call vdu_load_img
042246 C9                3190 	ret
042247                   3191 
042247                   3192 ld_16_036:
042247 21 F5 40 04       3193 	ld hl,F16_036
04224B 22 CD A5 04       3194 	ld (cur_filename),hl
04224F 11 AD A7 04       3195 	ld de,filedata
042253 01 00 00 01       3196 	ld bc,65536
042257 3E 01             3197 	ld a,mos_load
042259 5B CF             3198 	RST.LIL 08h
04225B 21 A8 01 00       3199 	ld hl,BUF_16_036
04225F 01 16 00 00       3200 	ld bc,22
042263 11 6B 00 00       3201 	ld de,107
042267 DD 21 32 09 00    3202 	ld ix,2354
04226C CD 3E A7 04       3203 	call vdu_load_img
042270 C9                3204 	ret
042271                   3205 
042271                   3206 ld_16_037:
042271 21 09 41 04       3207 	ld hl,F16_037
042275 22 CD A5 04       3208 	ld (cur_filename),hl
042279 11 AD A7 04       3209 	ld de,filedata
04227D 01 00 00 01       3210 	ld bc,65536
042281 3E 01             3211 	ld a,mos_load
042283 5B CF             3212 	RST.LIL 08h
042285 21 A9 01 00       3213 	ld hl,BUF_16_037
042289 01 15 00 00       3214 	ld bc,21
04228D 11 69 00 00       3215 	ld de,105
042291 DD 21 9D 08 00    3216 	ld ix,2205
042296 CD 3E A7 04       3217 	call vdu_load_img
04229A C9                3218 	ret
04229B                   3219 
04229B                   3220 ld_16_038:
04229B 21 1D 41 04       3221 	ld hl,F16_038
04229F 22 CD A5 04       3222 	ld (cur_filename),hl
0422A3 11 AD A7 04       3223 	ld de,filedata
0422A7 01 00 00 01       3224 	ld bc,65536
0422AB 3E 01             3225 	ld a,mos_load
0422AD 5B CF             3226 	RST.LIL 08h
0422AF 21 AA 01 00       3227 	ld hl,BUF_16_038
0422B3 01 3F 00 00       3228 	ld bc,63
0422B7 11 6B 00 00       3229 	ld de,107
0422BB DD 21 55 1A 00    3230 	ld ix,6741
0422C0 CD 3E A7 04       3231 	call vdu_load_img
0422C4 C9                3232 	ret
0422C5                   3233 
0422C5                   3234 ld_16_040:
0422C5 21 31 41 04       3235 	ld hl,F16_040
0422C9 22 CD A5 04       3236 	ld (cur_filename),hl
0422CD 11 AD A7 04       3237 	ld de,filedata
0422D1 01 00 00 01       3238 	ld bc,65536
0422D5 3E 01             3239 	ld a,mos_load
0422D7 5B CF             3240 	RST.LIL 08h
0422D9 21 AB 01 00       3241 	ld hl,BUF_16_040
0422DD 01 6C 00 00       3242 	ld bc,108
0422E1 11 6B 00 00       3243 	ld de,107
0422E5 DD 21 24 2D 00    3244 	ld ix,11556
0422EA CD 3E A7 04       3245 	call vdu_load_img
0422EE C9                3246 	ret
0422EF                   3247 
0422EF                   3248 ld_16_042:
0422EF 21 45 41 04       3249 	ld hl,F16_042
0422F3 22 CD A5 04       3250 	ld (cur_filename),hl
0422F7 11 AD A7 04       3251 	ld de,filedata
0422FB 01 00 00 01       3252 	ld bc,65536
0422FF 3E 01             3253 	ld a,mos_load
042301 5B CF             3254 	RST.LIL 08h
042303 21 AC 01 00       3255 	ld hl,BUF_16_042
042307 01 6A 00 00       3256 	ld bc,106
04230B 11 A0 00 00       3257 	ld de,160
04230F DD 21 40 42 00    3258 	ld ix,16960
042314 CD 3E A7 04       3259 	call vdu_load_img
042318 C9                3260 	ret
042319                   3261 
042319                   3262 ld_16_043:
042319 21 59 41 04       3263 	ld hl,F16_043
04231D 22 CD A5 04       3264 	ld (cur_filename),hl
042321 11 AD A7 04       3265 	ld de,filedata
042325 01 00 00 01       3266 	ld bc,65536
042329 3E 01             3267 	ld a,mos_load
04232B 5B CF             3268 	RST.LIL 08h
04232D 21 AD 01 00       3269 	ld hl,BUF_16_043
042331 01 6B 00 00       3270 	ld bc,107
042335 11 A0 00 00       3271 	ld de,160
042339 DD 21 E0 42 00    3272 	ld ix,17120
04233E CD 3E A7 04       3273 	call vdu_load_img
042342 C9                3274 	ret
042343                   3275 
042343                   3276 ld_16_044:
042343 21 6D 41 04       3277 	ld hl,F16_044
042347 22 CD A5 04       3278 	ld (cur_filename),hl
04234B 11 AD A7 04       3279 	ld de,filedata
04234F 01 00 00 01       3280 	ld bc,65536
042353 3E 01             3281 	ld a,mos_load
042355 5B CF             3282 	RST.LIL 08h
042357 21 AE 01 00       3283 	ld hl,BUF_16_044
04235B 01 40 01 00       3284 	ld bc,320
04235F 11 A0 00 00       3285 	ld de,160
042363 DD 21 00 C8 00    3286 	ld ix,51200
042368 CD 3E A7 04       3287 	call vdu_load_img
04236C C9                3288 	ret
04236D                   3289 
04236D                   3290 ld_17_004:
04236D 21 81 41 04       3291 	ld hl,F17_004
042371 22 CD A5 04       3292 	ld (cur_filename),hl
042375 11 AD A7 04       3293 	ld de,filedata
042379 01 00 00 01       3294 	ld bc,65536
04237D 3E 01             3295 	ld a,mos_load
04237F 5B CF             3296 	RST.LIL 08h
042381 21 AF 01 00       3297 	ld hl,BUF_17_004
042385 01 24 00 00       3298 	ld bc,36
042389 11 23 00 00       3299 	ld de,35
04238D DD 21 EC 04 00    3300 	ld ix,1260
042392 CD 3E A7 04       3301 	call vdu_load_img
042396 C9                3302 	ret
042397                   3303 
042397                   3304 ld_17_009:
042397 21 95 41 04       3305 	ld hl,F17_009
04239B 22 CD A5 04       3306 	ld (cur_filename),hl
04239F 11 AD A7 04       3307 	ld de,filedata
0423A3 01 00 00 01       3308 	ld bc,65536
0423A7 3E 01             3309 	ld a,mos_load
0423A9 5B CF             3310 	RST.LIL 08h
0423AB 21 B0 01 00       3311 	ld hl,BUF_17_009
0423AF 01 23 00 00       3312 	ld bc,35
0423B3 11 2D 00 00       3313 	ld de,45
0423B7 DD 21 27 06 00    3314 	ld ix,1575
0423BC CD 3E A7 04       3315 	call vdu_load_img
0423C0 C9                3316 	ret
0423C1                   3317 
0423C1                   3318 ld_17_010:
0423C1 21 A9 41 04       3319 	ld hl,F17_010
0423C5 22 CD A5 04       3320 	ld (cur_filename),hl
0423C9 11 AD A7 04       3321 	ld de,filedata
0423CD 01 00 00 01       3322 	ld bc,65536
0423D1 3E 01             3323 	ld a,mos_load
0423D3 5B CF             3324 	RST.LIL 08h
0423D5 21 B1 01 00       3325 	ld hl,BUF_17_010
0423D9 01 19 00 00       3326 	ld bc,25
0423DD 11 2D 00 00       3327 	ld de,45
0423E1 DD 21 65 04 00    3328 	ld ix,1125
0423E6 CD 3E A7 04       3329 	call vdu_load_img
0423EA C9                3330 	ret
0423EB                   3331 
0423EB                   3332 ld_17_011:
0423EB 21 BD 41 04       3333 	ld hl,F17_011
0423EF 22 CD A5 04       3334 	ld (cur_filename),hl
0423F3 11 AD A7 04       3335 	ld de,filedata
0423F7 01 00 00 01       3336 	ld bc,65536
0423FB 3E 01             3337 	ld a,mos_load
0423FD 5B CF             3338 	RST.LIL 08h
0423FF 21 B2 01 00       3339 	ld hl,BUF_17_011
042403 01 0F 00 00       3340 	ld bc,15
042407 11 2D 00 00       3341 	ld de,45
04240B DD 21 A3 02 00    3342 	ld ix,675
042410 CD 3E A7 04       3343 	call vdu_load_img
042414 C9                3344 	ret
042415                   3345 
042415                   3346 ld_17_012:
042415 21 D1 41 04       3347 	ld hl,F17_012
042419 22 CD A5 04       3348 	ld (cur_filename),hl
04241D 11 AD A7 04       3349 	ld de,filedata
042421 01 00 00 01       3350 	ld bc,65536
042425 3E 01             3351 	ld a,mos_load
042427 5B CF             3352 	RST.LIL 08h
042429 21 B3 01 00       3353 	ld hl,BUF_17_012
04242D 01 05 00 00       3354 	ld bc,5
042431 11 2D 00 00       3355 	ld de,45
042435 DD 21 E1 00 00    3356 	ld ix,225
04243A CD 3E A7 04       3357 	call vdu_load_img
04243E C9                3358 	ret
04243F                   3359 
04243F                   3360 ld_17_013:
04243F 21 E5 41 04       3361 	ld hl,F17_013
042443 22 CD A5 04       3362 	ld (cur_filename),hl
042447 11 AD A7 04       3363 	ld de,filedata
04244B 01 00 00 01       3364 	ld bc,65536
04244F 3E 01             3365 	ld a,mos_load
042451 5B CF             3366 	RST.LIL 08h
042453 21 B4 01 00       3367 	ld hl,BUF_17_013
042457 01 05 00 00       3368 	ld bc,5
04245B 11 2B 00 00       3369 	ld de,43
04245F DD 21 D7 00 00    3370 	ld ix,215
042464 CD 3E A7 04       3371 	call vdu_load_img
042468 C9                3372 	ret
042469                   3373 
042469                   3374 ld_17_014:
042469 21 F9 41 04       3375 	ld hl,F17_014
04246D 22 CD A5 04       3376 	ld (cur_filename),hl
042471 11 AD A7 04       3377 	ld de,filedata
042475 01 00 00 01       3378 	ld bc,65536
042479 3E 01             3379 	ld a,mos_load
04247B 5B CF             3380 	RST.LIL 08h
04247D 21 B5 01 00       3381 	ld hl,BUF_17_014
042481 01 0F 00 00       3382 	ld bc,15
042485 11 2D 00 00       3383 	ld de,45
042489 DD 21 A3 02 00    3384 	ld ix,675
04248E CD 3E A7 04       3385 	call vdu_load_img
042492 C9                3386 	ret
042493                   3387 
042493                   3388 ld_17_015:
042493 21 0D 42 04       3389 	ld hl,F17_015
042497 22 CD A5 04       3390 	ld (cur_filename),hl
04249B 11 AD A7 04       3391 	ld de,filedata
04249F 01 00 00 01       3392 	ld bc,65536
0424A3 3E 01             3393 	ld a,mos_load
0424A5 5B CF             3394 	RST.LIL 08h
0424A7 21 B6 01 00       3395 	ld hl,BUF_17_015
0424AB 01 19 00 00       3396 	ld bc,25
0424AF 11 2D 00 00       3397 	ld de,45
0424B3 DD 21 65 04 00    3398 	ld ix,1125
0424B8 CD 3E A7 04       3399 	call vdu_load_img
0424BC C9                3400 	ret
0424BD                   3401 
0424BD                   3402 ld_17_016:
0424BD 21 21 42 04       3403 	ld hl,F17_016
0424C1 22 CD A5 04       3404 	ld (cur_filename),hl
0424C5 11 AD A7 04       3405 	ld de,filedata
0424C9 01 00 00 01       3406 	ld bc,65536
0424CD 3E 01             3407 	ld a,mos_load
0424CF 5B CF             3408 	RST.LIL 08h
0424D1 21 B7 01 00       3409 	ld hl,BUF_17_016
0424D5 01 23 00 00       3410 	ld bc,35
0424D9 11 2D 00 00       3411 	ld de,45
0424DD DD 21 27 06 00    3412 	ld ix,1575
0424E2 CD 3E A7 04       3413 	call vdu_load_img
0424E6 C9                3414 	ret
0424E7                   3415 
0424E7                   3416 ld_17_020:
0424E7 21 35 42 04       3417 	ld hl,F17_020
0424EB 22 CD A5 04       3418 	ld (cur_filename),hl
0424EF 11 AD A7 04       3419 	ld de,filedata
0424F3 01 00 00 01       3420 	ld bc,65536
0424F7 3E 01             3421 	ld a,mos_load
0424F9 5B CF             3422 	RST.LIL 08h
0424FB 21 B8 01 00       3423 	ld hl,BUF_17_020
0424FF 01 2E 00 00       3424 	ld bc,46
042503 11 2D 00 00       3425 	ld de,45
042507 DD 21 16 08 00    3426 	ld ix,2070
04250C CD 3E A7 04       3427 	call vdu_load_img
042510 C9                3428 	ret
042511                   3429 
042511                   3430 ld_17_024:
042511 21 49 42 04       3431 	ld hl,F17_024
042515 22 CD A5 04       3432 	ld (cur_filename),hl
042519 11 AD A7 04       3433 	ld de,filedata
04251D 01 00 00 01       3434 	ld bc,65536
042521 3E 01             3435 	ld a,mos_load
042523 5B CF             3436 	RST.LIL 08h
042525 21 B9 01 00       3437 	ld hl,BUF_17_024
042529 01 2E 00 00       3438 	ld bc,46
04252D 11 40 00 00       3439 	ld de,64
042531 DD 21 80 0B 00    3440 	ld ix,2944
042536 CD 3E A7 04       3441 	call vdu_load_img
04253A C9                3442 	ret
04253B                   3443 
04253B                   3444 ld_17_025:
04253B 21 5D 42 04       3445 	ld hl,F17_025
04253F 22 CD A5 04       3446 	ld (cur_filename),hl
042543 11 AD A7 04       3447 	ld de,filedata
042547 01 00 00 01       3448 	ld bc,65536
04254B 3E 01             3449 	ld a,mos_load
04254D 5B CF             3450 	RST.LIL 08h
04254F 21 BA 01 00       3451 	ld hl,BUF_17_025
042553 01 1C 00 00       3452 	ld bc,28
042557 11 40 00 00       3453 	ld de,64
04255B DD 21 00 07 00    3454 	ld ix,1792
042560 CD 3E A7 04       3455 	call vdu_load_img
042564 C9                3456 	ret
042565                   3457 
042565                   3458 ld_17_026:
042565 21 71 42 04       3459 	ld hl,F17_026
042569 22 CD A5 04       3460 	ld (cur_filename),hl
04256D 11 AD A7 04       3461 	ld de,filedata
042571 01 00 00 01       3462 	ld bc,65536
042575 3E 01             3463 	ld a,mos_load
042577 5B CF             3464 	RST.LIL 08h
042579 21 BB 01 00       3465 	ld hl,BUF_17_026
04257D 01 09 00 00       3466 	ld bc,9
042581 11 40 00 00       3467 	ld de,64
042585 DD 21 40 02 00    3468 	ld ix,576
04258A CD 3E A7 04       3469 	call vdu_load_img
04258E C9                3470 	ret
04258F                   3471 
04258F                   3472 ld_17_027:
04258F 21 85 42 04       3473 	ld hl,F17_027
042593 22 CD A5 04       3474 	ld (cur_filename),hl
042597 11 AD A7 04       3475 	ld de,filedata
04259B 01 00 00 01       3476 	ld bc,65536
04259F 3E 01             3477 	ld a,mos_load
0425A1 5B CF             3478 	RST.LIL 08h
0425A3 21 BC 01 00       3479 	ld hl,BUF_17_027
0425A7 01 0A 00 00       3480 	ld bc,10
0425AB 11 3E 00 00       3481 	ld de,62
0425AF DD 21 6C 02 00    3482 	ld ix,620
0425B4 CD 3E A7 04       3483 	call vdu_load_img
0425B8 C9                3484 	ret
0425B9                   3485 
0425B9                   3486 ld_17_028:
0425B9 21 99 42 04       3487 	ld hl,F17_028
0425BD 22 CD A5 04       3488 	ld (cur_filename),hl
0425C1 11 AD A7 04       3489 	ld de,filedata
0425C5 01 00 00 01       3490 	ld bc,65536
0425C9 3E 01             3491 	ld a,mos_load
0425CB 5B CF             3492 	RST.LIL 08h
0425CD 21 BD 01 00       3493 	ld hl,BUF_17_028
0425D1 01 1C 00 00       3494 	ld bc,28
0425D5 11 40 00 00       3495 	ld de,64
0425D9 DD 21 00 07 00    3496 	ld ix,1792
0425DE CD 3E A7 04       3497 	call vdu_load_img
0425E2 C9                3498 	ret
0425E3                   3499 
0425E3                   3500 ld_17_029:
0425E3 21 AD 42 04       3501 	ld hl,F17_029
0425E7 22 CD A5 04       3502 	ld (cur_filename),hl
0425EB 11 AD A7 04       3503 	ld de,filedata
0425EF 01 00 00 01       3504 	ld bc,65536
0425F3 3E 01             3505 	ld a,mos_load
0425F5 5B CF             3506 	RST.LIL 08h
0425F7 21 BE 01 00       3507 	ld hl,BUF_17_029
0425FB 01 2F 00 00       3508 	ld bc,47
0425FF 11 40 00 00       3509 	ld de,64
042603 DD 21 C0 0B 00    3510 	ld ix,3008
042608 CD 3E A7 04       3511 	call vdu_load_img
04260C C9                3512 	ret
04260D                   3513 
04260D                   3514 ld_17_032:
04260D 21 C1 42 04       3515 	ld hl,F17_032
042611 22 CD A5 04       3516 	ld (cur_filename),hl
042615 11 AD A7 04       3517 	ld de,filedata
042619 01 00 00 01       3518 	ld bc,65536
04261D 3E 01             3519 	ld a,mos_load
04261F 5B CF             3520 	RST.LIL 08h
042621 21 BF 01 00       3521 	ld hl,BUF_17_032
042625 01 41 00 00       3522 	ld bc,65
042629 11 40 00 00       3523 	ld de,64
04262D DD 21 40 10 00    3524 	ld ix,4160
042632 CD 3E A7 04       3525 	call vdu_load_img
042636 C9                3526 	ret
042637                   3527 
042637                   3528 ld_17_035:
042637 21 D5 42 04       3529 	ld hl,F17_035
04263B 22 CD A5 04       3530 	ld (cur_filename),hl
04263F 11 AD A7 04       3531 	ld de,filedata
042643 01 00 00 01       3532 	ld bc,65536
042647 3E 01             3533 	ld a,mos_load
042649 5B CF             3534 	RST.LIL 08h
04264B 21 C0 01 00       3535 	ld hl,BUF_17_035
04264F 01 3F 00 00       3536 	ld bc,63
042653 11 6B 00 00       3537 	ld de,107
042657 DD 21 55 1A 00    3538 	ld ix,6741
04265C CD 3E A7 04       3539 	call vdu_load_img
042660 C9                3540 	ret
042661                   3541 
042661                   3542 ld_17_036:
042661 21 E9 42 04       3543 	ld hl,F17_036
042665 22 CD A5 04       3544 	ld (cur_filename),hl
042669 11 AD A7 04       3545 	ld de,filedata
04266D 01 00 00 01       3546 	ld bc,65536
042671 3E 01             3547 	ld a,mos_load
042673 5B CF             3548 	RST.LIL 08h
042675 21 C1 01 00       3549 	ld hl,BUF_17_036
042679 01 16 00 00       3550 	ld bc,22
04267D 11 6B 00 00       3551 	ld de,107
042681 DD 21 32 09 00    3552 	ld ix,2354
042686 CD 3E A7 04       3553 	call vdu_load_img
04268A C9                3554 	ret
04268B                   3555 
04268B                   3556 ld_17_037:
04268B 21 FD 42 04       3557 	ld hl,F17_037
04268F 22 CD A5 04       3558 	ld (cur_filename),hl
042693 11 AD A7 04       3559 	ld de,filedata
042697 01 00 00 01       3560 	ld bc,65536
04269B 3E 01             3561 	ld a,mos_load
04269D 5B CF             3562 	RST.LIL 08h
04269F 21 C2 01 00       3563 	ld hl,BUF_17_037
0426A3 01 15 00 00       3564 	ld bc,21
0426A7 11 69 00 00       3565 	ld de,105
0426AB DD 21 9D 08 00    3566 	ld ix,2205
0426B0 CD 3E A7 04       3567 	call vdu_load_img
0426B4 C9                3568 	ret
0426B5                   3569 
0426B5                   3570 ld_17_038:
0426B5 21 11 43 04       3571 	ld hl,F17_038
0426B9 22 CD A5 04       3572 	ld (cur_filename),hl
0426BD 11 AD A7 04       3573 	ld de,filedata
0426C1 01 00 00 01       3574 	ld bc,65536
0426C5 3E 01             3575 	ld a,mos_load
0426C7 5B CF             3576 	RST.LIL 08h
0426C9 21 C3 01 00       3577 	ld hl,BUF_17_038
0426CD 01 3F 00 00       3578 	ld bc,63
0426D1 11 6B 00 00       3579 	ld de,107
0426D5 DD 21 55 1A 00    3580 	ld ix,6741
0426DA CD 3E A7 04       3581 	call vdu_load_img
0426DE C9                3582 	ret
0426DF                   3583 
0426DF                   3584 ld_17_040:
0426DF 21 25 43 04       3585 	ld hl,F17_040
0426E3 22 CD A5 04       3586 	ld (cur_filename),hl
0426E7 11 AD A7 04       3587 	ld de,filedata
0426EB 01 00 00 01       3588 	ld bc,65536
0426EF 3E 01             3589 	ld a,mos_load
0426F1 5B CF             3590 	RST.LIL 08h
0426F3 21 C4 01 00       3591 	ld hl,BUF_17_040
0426F7 01 6C 00 00       3592 	ld bc,108
0426FB 11 6B 00 00       3593 	ld de,107
0426FF DD 21 24 2D 00    3594 	ld ix,11556
042704 CD 3E A7 04       3595 	call vdu_load_img
042708 C9                3596 	ret
042709                   3597 
042709                   3598 ld_17_042:
042709 21 39 43 04       3599 	ld hl,F17_042
04270D 22 CD A5 04       3600 	ld (cur_filename),hl
042711 11 AD A7 04       3601 	ld de,filedata
042715 01 00 00 01       3602 	ld bc,65536
042719 3E 01             3603 	ld a,mos_load
04271B 5B CF             3604 	RST.LIL 08h
04271D 21 C5 01 00       3605 	ld hl,BUF_17_042
042721 01 6A 00 00       3606 	ld bc,106
042725 11 A0 00 00       3607 	ld de,160
042729 DD 21 40 42 00    3608 	ld ix,16960
04272E CD 3E A7 04       3609 	call vdu_load_img
042732 C9                3610 	ret
042733                   3611 
042733                   3612 ld_17_043:
042733 21 4D 43 04       3613 	ld hl,F17_043
042737 22 CD A5 04       3614 	ld (cur_filename),hl
04273B 11 AD A7 04       3615 	ld de,filedata
04273F 01 00 00 01       3616 	ld bc,65536
042743 3E 01             3617 	ld a,mos_load
042745 5B CF             3618 	RST.LIL 08h
042747 21 C6 01 00       3619 	ld hl,BUF_17_043
04274B 01 6B 00 00       3620 	ld bc,107
04274F 11 A0 00 00       3621 	ld de,160
042753 DD 21 E0 42 00    3622 	ld ix,17120
042758 CD 3E A7 04       3623 	call vdu_load_img
04275C C9                3624 	ret
04275D                   3625 
04275D                   3626 ld_17_044:
04275D 21 61 43 04       3627 	ld hl,F17_044
042761 22 CD A5 04       3628 	ld (cur_filename),hl
042765 11 AD A7 04       3629 	ld de,filedata
042769 01 00 00 01       3630 	ld bc,65536
04276D 3E 01             3631 	ld a,mos_load
04276F 5B CF             3632 	RST.LIL 08h
042771 21 C7 01 00       3633 	ld hl,BUF_17_044
042775 01 40 01 00       3634 	ld bc,320
042779 11 A0 00 00       3635 	ld de,160
04277D DD 21 00 C8 00    3636 	ld ix,51200
042782 CD 3E A7 04       3637 	call vdu_load_img
042786 C9                3638 	ret
042787                   3639 
042787                   3640 ld_57_004:
042787 21 75 43 04       3641 	ld hl,F57_004
04278B 22 CD A5 04       3642 	ld (cur_filename),hl
04278F 11 AD A7 04       3643 	ld de,filedata
042793 01 00 00 01       3644 	ld bc,65536
042797 3E 01             3645 	ld a,mos_load
042799 5B CF             3646 	RST.LIL 08h
04279B 21 C8 01 00       3647 	ld hl,BUF_57_004
04279F 01 24 00 00       3648 	ld bc,36
0427A3 11 23 00 00       3649 	ld de,35
0427A7 DD 21 EC 04 00    3650 	ld ix,1260
0427AC CD 3E A7 04       3651 	call vdu_load_img
0427B0 C9                3652 	ret
0427B1                   3653 
0427B1                   3654 ld_57_009:
0427B1 21 89 43 04       3655 	ld hl,F57_009
0427B5 22 CD A5 04       3656 	ld (cur_filename),hl
0427B9 11 AD A7 04       3657 	ld de,filedata
0427BD 01 00 00 01       3658 	ld bc,65536
0427C1 3E 01             3659 	ld a,mos_load
0427C3 5B CF             3660 	RST.LIL 08h
0427C5 21 C9 01 00       3661 	ld hl,BUF_57_009
0427C9 01 23 00 00       3662 	ld bc,35
0427CD 11 2D 00 00       3663 	ld de,45
0427D1 DD 21 27 06 00    3664 	ld ix,1575
0427D6 CD 3E A7 04       3665 	call vdu_load_img
0427DA C9                3666 	ret
0427DB                   3667 
0427DB                   3668 ld_57_010:
0427DB 21 9D 43 04       3669 	ld hl,F57_010
0427DF 22 CD A5 04       3670 	ld (cur_filename),hl
0427E3 11 AD A7 04       3671 	ld de,filedata
0427E7 01 00 00 01       3672 	ld bc,65536
0427EB 3E 01             3673 	ld a,mos_load
0427ED 5B CF             3674 	RST.LIL 08h
0427EF 21 CA 01 00       3675 	ld hl,BUF_57_010
0427F3 01 19 00 00       3676 	ld bc,25
0427F7 11 2D 00 00       3677 	ld de,45
0427FB DD 21 65 04 00    3678 	ld ix,1125
042800 CD 3E A7 04       3679 	call vdu_load_img
042804 C9                3680 	ret
042805                   3681 
042805                   3682 ld_57_011:
042805 21 B1 43 04       3683 	ld hl,F57_011
042809 22 CD A5 04       3684 	ld (cur_filename),hl
04280D 11 AD A7 04       3685 	ld de,filedata
042811 01 00 00 01       3686 	ld bc,65536
042815 3E 01             3687 	ld a,mos_load
042817 5B CF             3688 	RST.LIL 08h
042819 21 CB 01 00       3689 	ld hl,BUF_57_011
04281D 01 0F 00 00       3690 	ld bc,15
042821 11 2D 00 00       3691 	ld de,45
042825 DD 21 A3 02 00    3692 	ld ix,675
04282A CD 3E A7 04       3693 	call vdu_load_img
04282E C9                3694 	ret
04282F                   3695 
04282F                   3696 ld_57_012:
04282F 21 C5 43 04       3697 	ld hl,F57_012
042833 22 CD A5 04       3698 	ld (cur_filename),hl
042837 11 AD A7 04       3699 	ld de,filedata
04283B 01 00 00 01       3700 	ld bc,65536
04283F 3E 01             3701 	ld a,mos_load
042841 5B CF             3702 	RST.LIL 08h
042843 21 CC 01 00       3703 	ld hl,BUF_57_012
042847 01 05 00 00       3704 	ld bc,5
04284B 11 2D 00 00       3705 	ld de,45
04284F DD 21 E1 00 00    3706 	ld ix,225
042854 CD 3E A7 04       3707 	call vdu_load_img
042858 C9                3708 	ret
042859                   3709 
042859                   3710 ld_57_013:
042859 21 D9 43 04       3711 	ld hl,F57_013
04285D 22 CD A5 04       3712 	ld (cur_filename),hl
042861 11 AD A7 04       3713 	ld de,filedata
042865 01 00 00 01       3714 	ld bc,65536
042869 3E 01             3715 	ld a,mos_load
04286B 5B CF             3716 	RST.LIL 08h
04286D 21 CD 01 00       3717 	ld hl,BUF_57_013
042871 01 05 00 00       3718 	ld bc,5
042875 11 2B 00 00       3719 	ld de,43
042879 DD 21 D7 00 00    3720 	ld ix,215
04287E CD 3E A7 04       3721 	call vdu_load_img
042882 C9                3722 	ret
042883                   3723 
042883                   3724 ld_57_014:
042883 21 ED 43 04       3725 	ld hl,F57_014
042887 22 CD A5 04       3726 	ld (cur_filename),hl
04288B 11 AD A7 04       3727 	ld de,filedata
04288F 01 00 00 01       3728 	ld bc,65536
042893 3E 01             3729 	ld a,mos_load
042895 5B CF             3730 	RST.LIL 08h
042897 21 CE 01 00       3731 	ld hl,BUF_57_014
04289B 01 0F 00 00       3732 	ld bc,15
04289F 11 2D 00 00       3733 	ld de,45
0428A3 DD 21 A3 02 00    3734 	ld ix,675
0428A8 CD 3E A7 04       3735 	call vdu_load_img
0428AC C9                3736 	ret
0428AD                   3737 
0428AD                   3738 ld_57_015:
0428AD 21 01 44 04       3739 	ld hl,F57_015
0428B1 22 CD A5 04       3740 	ld (cur_filename),hl
0428B5 11 AD A7 04       3741 	ld de,filedata
0428B9 01 00 00 01       3742 	ld bc,65536
0428BD 3E 01             3743 	ld a,mos_load
0428BF 5B CF             3744 	RST.LIL 08h
0428C1 21 CF 01 00       3745 	ld hl,BUF_57_015
0428C5 01 19 00 00       3746 	ld bc,25
0428C9 11 2D 00 00       3747 	ld de,45
0428CD DD 21 65 04 00    3748 	ld ix,1125
0428D2 CD 3E A7 04       3749 	call vdu_load_img
0428D6 C9                3750 	ret
0428D7                   3751 
0428D7                   3752 ld_57_016:
0428D7 21 15 44 04       3753 	ld hl,F57_016
0428DB 22 CD A5 04       3754 	ld (cur_filename),hl
0428DF 11 AD A7 04       3755 	ld de,filedata
0428E3 01 00 00 01       3756 	ld bc,65536
0428E7 3E 01             3757 	ld a,mos_load
0428E9 5B CF             3758 	RST.LIL 08h
0428EB 21 D0 01 00       3759 	ld hl,BUF_57_016
0428EF 01 23 00 00       3760 	ld bc,35
0428F3 11 2D 00 00       3761 	ld de,45
0428F7 DD 21 27 06 00    3762 	ld ix,1575
0428FC CD 3E A7 04       3763 	call vdu_load_img
042900 C9                3764 	ret
042901                   3765 
042901                   3766 ld_57_020:
042901 21 29 44 04       3767 	ld hl,F57_020
042905 22 CD A5 04       3768 	ld (cur_filename),hl
042909 11 AD A7 04       3769 	ld de,filedata
04290D 01 00 00 01       3770 	ld bc,65536
042911 3E 01             3771 	ld a,mos_load
042913 5B CF             3772 	RST.LIL 08h
042915 21 D1 01 00       3773 	ld hl,BUF_57_020
042919 01 2E 00 00       3774 	ld bc,46
04291D 11 2D 00 00       3775 	ld de,45
042921 DD 21 16 08 00    3776 	ld ix,2070
042926 CD 3E A7 04       3777 	call vdu_load_img
04292A C9                3778 	ret
04292B                   3779 
04292B                   3780 ld_57_024:
04292B 21 3D 44 04       3781 	ld hl,F57_024
04292F 22 CD A5 04       3782 	ld (cur_filename),hl
042933 11 AD A7 04       3783 	ld de,filedata
042937 01 00 00 01       3784 	ld bc,65536
04293B 3E 01             3785 	ld a,mos_load
04293D 5B CF             3786 	RST.LIL 08h
04293F 21 D2 01 00       3787 	ld hl,BUF_57_024
042943 01 2E 00 00       3788 	ld bc,46
042947 11 40 00 00       3789 	ld de,64
04294B DD 21 80 0B 00    3790 	ld ix,2944
042950 CD 3E A7 04       3791 	call vdu_load_img
042954 C9                3792 	ret
042955                   3793 
042955                   3794 ld_57_025:
042955 21 51 44 04       3795 	ld hl,F57_025
042959 22 CD A5 04       3796 	ld (cur_filename),hl
04295D 11 AD A7 04       3797 	ld de,filedata
042961 01 00 00 01       3798 	ld bc,65536
042965 3E 01             3799 	ld a,mos_load
042967 5B CF             3800 	RST.LIL 08h
042969 21 D3 01 00       3801 	ld hl,BUF_57_025
04296D 01 1C 00 00       3802 	ld bc,28
042971 11 40 00 00       3803 	ld de,64
042975 DD 21 00 07 00    3804 	ld ix,1792
04297A CD 3E A7 04       3805 	call vdu_load_img
04297E C9                3806 	ret
04297F                   3807 
04297F                   3808 ld_57_026:
04297F 21 65 44 04       3809 	ld hl,F57_026
042983 22 CD A5 04       3810 	ld (cur_filename),hl
042987 11 AD A7 04       3811 	ld de,filedata
04298B 01 00 00 01       3812 	ld bc,65536
04298F 3E 01             3813 	ld a,mos_load
042991 5B CF             3814 	RST.LIL 08h
042993 21 D4 01 00       3815 	ld hl,BUF_57_026
042997 01 09 00 00       3816 	ld bc,9
04299B 11 40 00 00       3817 	ld de,64
04299F DD 21 40 02 00    3818 	ld ix,576
0429A4 CD 3E A7 04       3819 	call vdu_load_img
0429A8 C9                3820 	ret
0429A9                   3821 
0429A9                   3822 ld_57_027:
0429A9 21 79 44 04       3823 	ld hl,F57_027
0429AD 22 CD A5 04       3824 	ld (cur_filename),hl
0429B1 11 AD A7 04       3825 	ld de,filedata
0429B5 01 00 00 01       3826 	ld bc,65536
0429B9 3E 01             3827 	ld a,mos_load
0429BB 5B CF             3828 	RST.LIL 08h
0429BD 21 D5 01 00       3829 	ld hl,BUF_57_027
0429C1 01 0A 00 00       3830 	ld bc,10
0429C5 11 3E 00 00       3831 	ld de,62
0429C9 DD 21 6C 02 00    3832 	ld ix,620
0429CE CD 3E A7 04       3833 	call vdu_load_img
0429D2 C9                3834 	ret
0429D3                   3835 
0429D3                   3836 ld_57_028:
0429D3 21 8D 44 04       3837 	ld hl,F57_028
0429D7 22 CD A5 04       3838 	ld (cur_filename),hl
0429DB 11 AD A7 04       3839 	ld de,filedata
0429DF 01 00 00 01       3840 	ld bc,65536
0429E3 3E 01             3841 	ld a,mos_load
0429E5 5B CF             3842 	RST.LIL 08h
0429E7 21 D6 01 00       3843 	ld hl,BUF_57_028
0429EB 01 1C 00 00       3844 	ld bc,28
0429EF 11 40 00 00       3845 	ld de,64
0429F3 DD 21 00 07 00    3846 	ld ix,1792
0429F8 CD 3E A7 04       3847 	call vdu_load_img
0429FC C9                3848 	ret
0429FD                   3849 
0429FD                   3850 ld_57_029:
0429FD 21 A1 44 04       3851 	ld hl,F57_029
042A01 22 CD A5 04       3852 	ld (cur_filename),hl
042A05 11 AD A7 04       3853 	ld de,filedata
042A09 01 00 00 01       3854 	ld bc,65536
042A0D 3E 01             3855 	ld a,mos_load
042A0F 5B CF             3856 	RST.LIL 08h
042A11 21 D7 01 00       3857 	ld hl,BUF_57_029
042A15 01 2F 00 00       3858 	ld bc,47
042A19 11 40 00 00       3859 	ld de,64
042A1D DD 21 C0 0B 00    3860 	ld ix,3008
042A22 CD 3E A7 04       3861 	call vdu_load_img
042A26 C9                3862 	ret
042A27                   3863 
042A27                   3864 ld_57_032:
042A27 21 B5 44 04       3865 	ld hl,F57_032
042A2B 22 CD A5 04       3866 	ld (cur_filename),hl
042A2F 11 AD A7 04       3867 	ld de,filedata
042A33 01 00 00 01       3868 	ld bc,65536
042A37 3E 01             3869 	ld a,mos_load
042A39 5B CF             3870 	RST.LIL 08h
042A3B 21 D8 01 00       3871 	ld hl,BUF_57_032
042A3F 01 41 00 00       3872 	ld bc,65
042A43 11 40 00 00       3873 	ld de,64
042A47 DD 21 40 10 00    3874 	ld ix,4160
042A4C CD 3E A7 04       3875 	call vdu_load_img
042A50 C9                3876 	ret
042A51                   3877 
042A51                   3878 ld_57_035:
042A51 21 C9 44 04       3879 	ld hl,F57_035
042A55 22 CD A5 04       3880 	ld (cur_filename),hl
042A59 11 AD A7 04       3881 	ld de,filedata
042A5D 01 00 00 01       3882 	ld bc,65536
042A61 3E 01             3883 	ld a,mos_load
042A63 5B CF             3884 	RST.LIL 08h
042A65 21 D9 01 00       3885 	ld hl,BUF_57_035
042A69 01 3F 00 00       3886 	ld bc,63
042A6D 11 6B 00 00       3887 	ld de,107
042A71 DD 21 55 1A 00    3888 	ld ix,6741
042A76 CD 3E A7 04       3889 	call vdu_load_img
042A7A C9                3890 	ret
042A7B                   3891 
042A7B                   3892 ld_57_036:
042A7B 21 DD 44 04       3893 	ld hl,F57_036
042A7F 22 CD A5 04       3894 	ld (cur_filename),hl
042A83 11 AD A7 04       3895 	ld de,filedata
042A87 01 00 00 01       3896 	ld bc,65536
042A8B 3E 01             3897 	ld a,mos_load
042A8D 5B CF             3898 	RST.LIL 08h
042A8F 21 DA 01 00       3899 	ld hl,BUF_57_036
042A93 01 16 00 00       3900 	ld bc,22
042A97 11 6B 00 00       3901 	ld de,107
042A9B DD 21 32 09 00    3902 	ld ix,2354
042AA0 CD 3E A7 04       3903 	call vdu_load_img
042AA4 C9                3904 	ret
042AA5                   3905 
042AA5                   3906 ld_57_037:
042AA5 21 F1 44 04       3907 	ld hl,F57_037
042AA9 22 CD A5 04       3908 	ld (cur_filename),hl
042AAD 11 AD A7 04       3909 	ld de,filedata
042AB1 01 00 00 01       3910 	ld bc,65536
042AB5 3E 01             3911 	ld a,mos_load
042AB7 5B CF             3912 	RST.LIL 08h
042AB9 21 DB 01 00       3913 	ld hl,BUF_57_037
042ABD 01 15 00 00       3914 	ld bc,21
042AC1 11 69 00 00       3915 	ld de,105
042AC5 DD 21 9D 08 00    3916 	ld ix,2205
042ACA CD 3E A7 04       3917 	call vdu_load_img
042ACE C9                3918 	ret
042ACF                   3919 
042ACF                   3920 ld_57_038:
042ACF 21 05 45 04       3921 	ld hl,F57_038
042AD3 22 CD A5 04       3922 	ld (cur_filename),hl
042AD7 11 AD A7 04       3923 	ld de,filedata
042ADB 01 00 00 01       3924 	ld bc,65536
042ADF 3E 01             3925 	ld a,mos_load
042AE1 5B CF             3926 	RST.LIL 08h
042AE3 21 DC 01 00       3927 	ld hl,BUF_57_038
042AE7 01 3F 00 00       3928 	ld bc,63
042AEB 11 6B 00 00       3929 	ld de,107
042AEF DD 21 55 1A 00    3930 	ld ix,6741
042AF4 CD 3E A7 04       3931 	call vdu_load_img
042AF8 C9                3932 	ret
042AF9                   3933 
042AF9                   3934 ld_57_040:
042AF9 21 19 45 04       3935 	ld hl,F57_040
042AFD 22 CD A5 04       3936 	ld (cur_filename),hl
042B01 11 AD A7 04       3937 	ld de,filedata
042B05 01 00 00 01       3938 	ld bc,65536
042B09 3E 01             3939 	ld a,mos_load
042B0B 5B CF             3940 	RST.LIL 08h
042B0D 21 DD 01 00       3941 	ld hl,BUF_57_040
042B11 01 6C 00 00       3942 	ld bc,108
042B15 11 6B 00 00       3943 	ld de,107
042B19 DD 21 24 2D 00    3944 	ld ix,11556
042B1E CD 3E A7 04       3945 	call vdu_load_img
042B22 C9                3946 	ret
042B23                   3947 
042B23                   3948 ld_57_042:
042B23 21 2D 45 04       3949 	ld hl,F57_042
042B27 22 CD A5 04       3950 	ld (cur_filename),hl
042B2B 11 AD A7 04       3951 	ld de,filedata
042B2F 01 00 00 01       3952 	ld bc,65536
042B33 3E 01             3953 	ld a,mos_load
042B35 5B CF             3954 	RST.LIL 08h
042B37 21 DE 01 00       3955 	ld hl,BUF_57_042
042B3B 01 6A 00 00       3956 	ld bc,106
042B3F 11 A0 00 00       3957 	ld de,160
042B43 DD 21 40 42 00    3958 	ld ix,16960
042B48 CD 3E A7 04       3959 	call vdu_load_img
042B4C C9                3960 	ret
042B4D                   3961 
042B4D                   3962 ld_57_043:
042B4D 21 41 45 04       3963 	ld hl,F57_043
042B51 22 CD A5 04       3964 	ld (cur_filename),hl
042B55 11 AD A7 04       3965 	ld de,filedata
042B59 01 00 00 01       3966 	ld bc,65536
042B5D 3E 01             3967 	ld a,mos_load
042B5F 5B CF             3968 	RST.LIL 08h
042B61 21 DF 01 00       3969 	ld hl,BUF_57_043
042B65 01 6B 00 00       3970 	ld bc,107
042B69 11 A0 00 00       3971 	ld de,160
042B6D DD 21 E0 42 00    3972 	ld ix,17120
042B72 CD 3E A7 04       3973 	call vdu_load_img
042B76 C9                3974 	ret
042B77                   3975 
042B77                   3976 ld_57_044:
042B77 21 55 45 04       3977 	ld hl,F57_044
042B7B 22 CD A5 04       3978 	ld (cur_filename),hl
042B7F 11 AD A7 04       3979 	ld de,filedata
042B83 01 00 00 01       3980 	ld bc,65536
042B87 3E 01             3981 	ld a,mos_load
042B89 5B CF             3982 	RST.LIL 08h
042B8B 21 E0 01 00       3983 	ld hl,BUF_57_044
042B8F 01 40 01 00       3984 	ld bc,320
042B93 11 A0 00 00       3985 	ld de,160
042B97 DD 21 00 C8 00    3986 	ld ix,51200
042B9C CD 3E A7 04       3987 	call vdu_load_img
042BA0 C9                3988 	ret
042BA1                   3989 
042BA1                   3990 ld_58_004:
042BA1 21 69 45 04       3991 	ld hl,F58_004
042BA5 22 CD A5 04       3992 	ld (cur_filename),hl
042BA9 11 AD A7 04       3993 	ld de,filedata
042BAD 01 00 00 01       3994 	ld bc,65536
042BB1 3E 01             3995 	ld a,mos_load
042BB3 5B CF             3996 	RST.LIL 08h
042BB5 21 E1 01 00       3997 	ld hl,BUF_58_004
042BB9 01 24 00 00       3998 	ld bc,36
042BBD 11 23 00 00       3999 	ld de,35
042BC1 DD 21 EC 04 00    4000 	ld ix,1260
042BC6 CD 3E A7 04       4001 	call vdu_load_img
042BCA C9                4002 	ret
042BCB                   4003 
042BCB                   4004 ld_58_009:
042BCB 21 7D 45 04       4005 	ld hl,F58_009
042BCF 22 CD A5 04       4006 	ld (cur_filename),hl
042BD3 11 AD A7 04       4007 	ld de,filedata
042BD7 01 00 00 01       4008 	ld bc,65536
042BDB 3E 01             4009 	ld a,mos_load
042BDD 5B CF             4010 	RST.LIL 08h
042BDF 21 E2 01 00       4011 	ld hl,BUF_58_009
042BE3 01 23 00 00       4012 	ld bc,35
042BE7 11 2D 00 00       4013 	ld de,45
042BEB DD 21 27 06 00    4014 	ld ix,1575
042BF0 CD 3E A7 04       4015 	call vdu_load_img
042BF4 C9                4016 	ret
042BF5                   4017 
042BF5                   4018 ld_58_010:
042BF5 21 91 45 04       4019 	ld hl,F58_010
042BF9 22 CD A5 04       4020 	ld (cur_filename),hl
042BFD 11 AD A7 04       4021 	ld de,filedata
042C01 01 00 00 01       4022 	ld bc,65536
042C05 3E 01             4023 	ld a,mos_load
042C07 5B CF             4024 	RST.LIL 08h
042C09 21 E3 01 00       4025 	ld hl,BUF_58_010
042C0D 01 19 00 00       4026 	ld bc,25
042C11 11 2D 00 00       4027 	ld de,45
042C15 DD 21 65 04 00    4028 	ld ix,1125
042C1A CD 3E A7 04       4029 	call vdu_load_img
042C1E C9                4030 	ret
042C1F                   4031 
042C1F                   4032 ld_58_011:
042C1F 21 A5 45 04       4033 	ld hl,F58_011
042C23 22 CD A5 04       4034 	ld (cur_filename),hl
042C27 11 AD A7 04       4035 	ld de,filedata
042C2B 01 00 00 01       4036 	ld bc,65536
042C2F 3E 01             4037 	ld a,mos_load
042C31 5B CF             4038 	RST.LIL 08h
042C33 21 E4 01 00       4039 	ld hl,BUF_58_011
042C37 01 0F 00 00       4040 	ld bc,15
042C3B 11 2D 00 00       4041 	ld de,45
042C3F DD 21 A3 02 00    4042 	ld ix,675
042C44 CD 3E A7 04       4043 	call vdu_load_img
042C48 C9                4044 	ret
042C49                   4045 
042C49                   4046 ld_58_012:
042C49 21 B9 45 04       4047 	ld hl,F58_012
042C4D 22 CD A5 04       4048 	ld (cur_filename),hl
042C51 11 AD A7 04       4049 	ld de,filedata
042C55 01 00 00 01       4050 	ld bc,65536
042C59 3E 01             4051 	ld a,mos_load
042C5B 5B CF             4052 	RST.LIL 08h
042C5D 21 E5 01 00       4053 	ld hl,BUF_58_012
042C61 01 05 00 00       4054 	ld bc,5
042C65 11 2D 00 00       4055 	ld de,45
042C69 DD 21 E1 00 00    4056 	ld ix,225
042C6E CD 3E A7 04       4057 	call vdu_load_img
042C72 C9                4058 	ret
042C73                   4059 
042C73                   4060 ld_58_013:
042C73 21 CD 45 04       4061 	ld hl,F58_013
042C77 22 CD A5 04       4062 	ld (cur_filename),hl
042C7B 11 AD A7 04       4063 	ld de,filedata
042C7F 01 00 00 01       4064 	ld bc,65536
042C83 3E 01             4065 	ld a,mos_load
042C85 5B CF             4066 	RST.LIL 08h
042C87 21 E6 01 00       4067 	ld hl,BUF_58_013
042C8B 01 05 00 00       4068 	ld bc,5
042C8F 11 2B 00 00       4069 	ld de,43
042C93 DD 21 D7 00 00    4070 	ld ix,215
042C98 CD 3E A7 04       4071 	call vdu_load_img
042C9C C9                4072 	ret
042C9D                   4073 
042C9D                   4074 ld_58_014:
042C9D 21 E1 45 04       4075 	ld hl,F58_014
042CA1 22 CD A5 04       4076 	ld (cur_filename),hl
042CA5 11 AD A7 04       4077 	ld de,filedata
042CA9 01 00 00 01       4078 	ld bc,65536
042CAD 3E 01             4079 	ld a,mos_load
042CAF 5B CF             4080 	RST.LIL 08h
042CB1 21 E7 01 00       4081 	ld hl,BUF_58_014
042CB5 01 0F 00 00       4082 	ld bc,15
042CB9 11 2D 00 00       4083 	ld de,45
042CBD DD 21 A3 02 00    4084 	ld ix,675
042CC2 CD 3E A7 04       4085 	call vdu_load_img
042CC6 C9                4086 	ret
042CC7                   4087 
042CC7                   4088 ld_58_015:
042CC7 21 F5 45 04       4089 	ld hl,F58_015
042CCB 22 CD A5 04       4090 	ld (cur_filename),hl
042CCF 11 AD A7 04       4091 	ld de,filedata
042CD3 01 00 00 01       4092 	ld bc,65536
042CD7 3E 01             4093 	ld a,mos_load
042CD9 5B CF             4094 	RST.LIL 08h
042CDB 21 E8 01 00       4095 	ld hl,BUF_58_015
042CDF 01 19 00 00       4096 	ld bc,25
042CE3 11 2D 00 00       4097 	ld de,45
042CE7 DD 21 65 04 00    4098 	ld ix,1125
042CEC CD 3E A7 04       4099 	call vdu_load_img
042CF0 C9                4100 	ret
042CF1                   4101 
042CF1                   4102 ld_58_016:
042CF1 21 09 46 04       4103 	ld hl,F58_016
042CF5 22 CD A5 04       4104 	ld (cur_filename),hl
042CF9 11 AD A7 04       4105 	ld de,filedata
042CFD 01 00 00 01       4106 	ld bc,65536
042D01 3E 01             4107 	ld a,mos_load
042D03 5B CF             4108 	RST.LIL 08h
042D05 21 E9 01 00       4109 	ld hl,BUF_58_016
042D09 01 23 00 00       4110 	ld bc,35
042D0D 11 2D 00 00       4111 	ld de,45
042D11 DD 21 27 06 00    4112 	ld ix,1575
042D16 CD 3E A7 04       4113 	call vdu_load_img
042D1A C9                4114 	ret
042D1B                   4115 
042D1B                   4116 ld_58_020:
042D1B 21 1D 46 04       4117 	ld hl,F58_020
042D1F 22 CD A5 04       4118 	ld (cur_filename),hl
042D23 11 AD A7 04       4119 	ld de,filedata
042D27 01 00 00 01       4120 	ld bc,65536
042D2B 3E 01             4121 	ld a,mos_load
042D2D 5B CF             4122 	RST.LIL 08h
042D2F 21 EA 01 00       4123 	ld hl,BUF_58_020
042D33 01 2E 00 00       4124 	ld bc,46
042D37 11 2D 00 00       4125 	ld de,45
042D3B DD 21 16 08 00    4126 	ld ix,2070
042D40 CD 3E A7 04       4127 	call vdu_load_img
042D44 C9                4128 	ret
042D45                   4129 
042D45                   4130 ld_58_024:
042D45 21 31 46 04       4131 	ld hl,F58_024
042D49 22 CD A5 04       4132 	ld (cur_filename),hl
042D4D 11 AD A7 04       4133 	ld de,filedata
042D51 01 00 00 01       4134 	ld bc,65536
042D55 3E 01             4135 	ld a,mos_load
042D57 5B CF             4136 	RST.LIL 08h
042D59 21 EB 01 00       4137 	ld hl,BUF_58_024
042D5D 01 2E 00 00       4138 	ld bc,46
042D61 11 40 00 00       4139 	ld de,64
042D65 DD 21 80 0B 00    4140 	ld ix,2944
042D6A CD 3E A7 04       4141 	call vdu_load_img
042D6E C9                4142 	ret
042D6F                   4143 
042D6F                   4144 ld_58_025:
042D6F 21 45 46 04       4145 	ld hl,F58_025
042D73 22 CD A5 04       4146 	ld (cur_filename),hl
042D77 11 AD A7 04       4147 	ld de,filedata
042D7B 01 00 00 01       4148 	ld bc,65536
042D7F 3E 01             4149 	ld a,mos_load
042D81 5B CF             4150 	RST.LIL 08h
042D83 21 EC 01 00       4151 	ld hl,BUF_58_025
042D87 01 1C 00 00       4152 	ld bc,28
042D8B 11 40 00 00       4153 	ld de,64
042D8F DD 21 00 07 00    4154 	ld ix,1792
042D94 CD 3E A7 04       4155 	call vdu_load_img
042D98 C9                4156 	ret
042D99                   4157 
042D99                   4158 ld_58_026:
042D99 21 59 46 04       4159 	ld hl,F58_026
042D9D 22 CD A5 04       4160 	ld (cur_filename),hl
042DA1 11 AD A7 04       4161 	ld de,filedata
042DA5 01 00 00 01       4162 	ld bc,65536
042DA9 3E 01             4163 	ld a,mos_load
042DAB 5B CF             4164 	RST.LIL 08h
042DAD 21 ED 01 00       4165 	ld hl,BUF_58_026
042DB1 01 09 00 00       4166 	ld bc,9
042DB5 11 40 00 00       4167 	ld de,64
042DB9 DD 21 40 02 00    4168 	ld ix,576
042DBE CD 3E A7 04       4169 	call vdu_load_img
042DC2 C9                4170 	ret
042DC3                   4171 
042DC3                   4172 ld_58_027:
042DC3 21 6D 46 04       4173 	ld hl,F58_027
042DC7 22 CD A5 04       4174 	ld (cur_filename),hl
042DCB 11 AD A7 04       4175 	ld de,filedata
042DCF 01 00 00 01       4176 	ld bc,65536
042DD3 3E 01             4177 	ld a,mos_load
042DD5 5B CF             4178 	RST.LIL 08h
042DD7 21 EE 01 00       4179 	ld hl,BUF_58_027
042DDB 01 0A 00 00       4180 	ld bc,10
042DDF 11 3E 00 00       4181 	ld de,62
042DE3 DD 21 6C 02 00    4182 	ld ix,620
042DE8 CD 3E A7 04       4183 	call vdu_load_img
042DEC C9                4184 	ret
042DED                   4185 
042DED                   4186 ld_58_028:
042DED 21 81 46 04       4187 	ld hl,F58_028
042DF1 22 CD A5 04       4188 	ld (cur_filename),hl
042DF5 11 AD A7 04       4189 	ld de,filedata
042DF9 01 00 00 01       4190 	ld bc,65536
042DFD 3E 01             4191 	ld a,mos_load
042DFF 5B CF             4192 	RST.LIL 08h
042E01 21 EF 01 00       4193 	ld hl,BUF_58_028
042E05 01 1C 00 00       4194 	ld bc,28
042E09 11 40 00 00       4195 	ld de,64
042E0D DD 21 00 07 00    4196 	ld ix,1792
042E12 CD 3E A7 04       4197 	call vdu_load_img
042E16 C9                4198 	ret
042E17                   4199 
042E17                   4200 ld_58_029:
042E17 21 95 46 04       4201 	ld hl,F58_029
042E1B 22 CD A5 04       4202 	ld (cur_filename),hl
042E1F 11 AD A7 04       4203 	ld de,filedata
042E23 01 00 00 01       4204 	ld bc,65536
042E27 3E 01             4205 	ld a,mos_load
042E29 5B CF             4206 	RST.LIL 08h
042E2B 21 F0 01 00       4207 	ld hl,BUF_58_029
042E2F 01 2F 00 00       4208 	ld bc,47
042E33 11 40 00 00       4209 	ld de,64
042E37 DD 21 C0 0B 00    4210 	ld ix,3008
042E3C CD 3E A7 04       4211 	call vdu_load_img
042E40 C9                4212 	ret
042E41                   4213 
042E41                   4214 ld_58_032:
042E41 21 A9 46 04       4215 	ld hl,F58_032
042E45 22 CD A5 04       4216 	ld (cur_filename),hl
042E49 11 AD A7 04       4217 	ld de,filedata
042E4D 01 00 00 01       4218 	ld bc,65536
042E51 3E 01             4219 	ld a,mos_load
042E53 5B CF             4220 	RST.LIL 08h
042E55 21 F1 01 00       4221 	ld hl,BUF_58_032
042E59 01 41 00 00       4222 	ld bc,65
042E5D 11 40 00 00       4223 	ld de,64
042E61 DD 21 40 10 00    4224 	ld ix,4160
042E66 CD 3E A7 04       4225 	call vdu_load_img
042E6A C9                4226 	ret
042E6B                   4227 
042E6B                   4228 ld_58_035:
042E6B 21 BD 46 04       4229 	ld hl,F58_035
042E6F 22 CD A5 04       4230 	ld (cur_filename),hl
042E73 11 AD A7 04       4231 	ld de,filedata
042E77 01 00 00 01       4232 	ld bc,65536
042E7B 3E 01             4233 	ld a,mos_load
042E7D 5B CF             4234 	RST.LIL 08h
042E7F 21 F2 01 00       4235 	ld hl,BUF_58_035
042E83 01 3F 00 00       4236 	ld bc,63
042E87 11 6B 00 00       4237 	ld de,107
042E8B DD 21 55 1A 00    4238 	ld ix,6741
042E90 CD 3E A7 04       4239 	call vdu_load_img
042E94 C9                4240 	ret
042E95                   4241 
042E95                   4242 ld_58_036:
042E95 21 D1 46 04       4243 	ld hl,F58_036
042E99 22 CD A5 04       4244 	ld (cur_filename),hl
042E9D 11 AD A7 04       4245 	ld de,filedata
042EA1 01 00 00 01       4246 	ld bc,65536
042EA5 3E 01             4247 	ld a,mos_load
042EA7 5B CF             4248 	RST.LIL 08h
042EA9 21 F3 01 00       4249 	ld hl,BUF_58_036
042EAD 01 16 00 00       4250 	ld bc,22
042EB1 11 6B 00 00       4251 	ld de,107
042EB5 DD 21 32 09 00    4252 	ld ix,2354
042EBA CD 3E A7 04       4253 	call vdu_load_img
042EBE C9                4254 	ret
042EBF                   4255 
042EBF                   4256 ld_58_037:
042EBF 21 E5 46 04       4257 	ld hl,F58_037
042EC3 22 CD A5 04       4258 	ld (cur_filename),hl
042EC7 11 AD A7 04       4259 	ld de,filedata
042ECB 01 00 00 01       4260 	ld bc,65536
042ECF 3E 01             4261 	ld a,mos_load
042ED1 5B CF             4262 	RST.LIL 08h
042ED3 21 F4 01 00       4263 	ld hl,BUF_58_037
042ED7 01 15 00 00       4264 	ld bc,21
042EDB 11 69 00 00       4265 	ld de,105
042EDF DD 21 9D 08 00    4266 	ld ix,2205
042EE4 CD 3E A7 04       4267 	call vdu_load_img
042EE8 C9                4268 	ret
042EE9                   4269 
042EE9                   4270 ld_58_038:
042EE9 21 F9 46 04       4271 	ld hl,F58_038
042EED 22 CD A5 04       4272 	ld (cur_filename),hl
042EF1 11 AD A7 04       4273 	ld de,filedata
042EF5 01 00 00 01       4274 	ld bc,65536
042EF9 3E 01             4275 	ld a,mos_load
042EFB 5B CF             4276 	RST.LIL 08h
042EFD 21 F5 01 00       4277 	ld hl,BUF_58_038
042F01 01 3F 00 00       4278 	ld bc,63
042F05 11 6B 00 00       4279 	ld de,107
042F09 DD 21 55 1A 00    4280 	ld ix,6741
042F0E CD 3E A7 04       4281 	call vdu_load_img
042F12 C9                4282 	ret
042F13                   4283 
042F13                   4284 ld_58_040:
042F13 21 0D 47 04       4285 	ld hl,F58_040
042F17 22 CD A5 04       4286 	ld (cur_filename),hl
042F1B 11 AD A7 04       4287 	ld de,filedata
042F1F 01 00 00 01       4288 	ld bc,65536
042F23 3E 01             4289 	ld a,mos_load
042F25 5B CF             4290 	RST.LIL 08h
042F27 21 F6 01 00       4291 	ld hl,BUF_58_040
042F2B 01 6C 00 00       4292 	ld bc,108
042F2F 11 6B 00 00       4293 	ld de,107
042F33 DD 21 24 2D 00    4294 	ld ix,11556
042F38 CD 3E A7 04       4295 	call vdu_load_img
042F3C C9                4296 	ret
042F3D                   4297 
042F3D                   4298 ld_58_042:
042F3D 21 21 47 04       4299 	ld hl,F58_042
042F41 22 CD A5 04       4300 	ld (cur_filename),hl
042F45 11 AD A7 04       4301 	ld de,filedata
042F49 01 00 00 01       4302 	ld bc,65536
042F4D 3E 01             4303 	ld a,mos_load
042F4F 5B CF             4304 	RST.LIL 08h
042F51 21 F7 01 00       4305 	ld hl,BUF_58_042
042F55 01 6A 00 00       4306 	ld bc,106
042F59 11 A0 00 00       4307 	ld de,160
042F5D DD 21 40 42 00    4308 	ld ix,16960
042F62 CD 3E A7 04       4309 	call vdu_load_img
042F66 C9                4310 	ret
042F67                   4311 
042F67                   4312 ld_58_043:
042F67 21 35 47 04       4313 	ld hl,F58_043
042F6B 22 CD A5 04       4314 	ld (cur_filename),hl
042F6F 11 AD A7 04       4315 	ld de,filedata
042F73 01 00 00 01       4316 	ld bc,65536
042F77 3E 01             4317 	ld a,mos_load
042F79 5B CF             4318 	RST.LIL 08h
042F7B 21 F8 01 00       4319 	ld hl,BUF_58_043
042F7F 01 6B 00 00       4320 	ld bc,107
042F83 11 A0 00 00       4321 	ld de,160
042F87 DD 21 E0 42 00    4322 	ld ix,17120
042F8C CD 3E A7 04       4323 	call vdu_load_img
042F90 C9                4324 	ret
042F91                   4325 
042F91                   4326 ld_58_044:
042F91 21 49 47 04       4327 	ld hl,F58_044
042F95 22 CD A5 04       4328 	ld (cur_filename),hl
042F99 11 AD A7 04       4329 	ld de,filedata
042F9D 01 00 00 01       4330 	ld bc,65536
042FA1 3E 01             4331 	ld a,mos_load
042FA3 5B CF             4332 	RST.LIL 08h
042FA5 21 F9 01 00       4333 	ld hl,BUF_58_044
042FA9 01 40 01 00       4334 	ld bc,320
042FAD 11 A0 00 00       4335 	ld de,160
042FB1 DD 21 00 C8 00    4336 	ld ix,51200
042FB6 CD 3E A7 04       4337 	call vdu_load_img
042FBA C9                4338 	ret
042FBB                   4339 
042FBB                   4340 ld_59_004:
042FBB 21 5D 47 04       4341 	ld hl,F59_004
042FBF 22 CD A5 04       4342 	ld (cur_filename),hl
042FC3 11 AD A7 04       4343 	ld de,filedata
042FC7 01 00 00 01       4344 	ld bc,65536
042FCB 3E 01             4345 	ld a,mos_load
042FCD 5B CF             4346 	RST.LIL 08h
042FCF 21 FA 01 00       4347 	ld hl,BUF_59_004
042FD3 01 24 00 00       4348 	ld bc,36
042FD7 11 23 00 00       4349 	ld de,35
042FDB DD 21 EC 04 00    4350 	ld ix,1260
042FE0 CD 3E A7 04       4351 	call vdu_load_img
042FE4 C9                4352 	ret
042FE5                   4353 
042FE5                   4354 ld_59_009:
042FE5 21 71 47 04       4355 	ld hl,F59_009
042FE9 22 CD A5 04       4356 	ld (cur_filename),hl
042FED 11 AD A7 04       4357 	ld de,filedata
042FF1 01 00 00 01       4358 	ld bc,65536
042FF5 3E 01             4359 	ld a,mos_load
042FF7 5B CF             4360 	RST.LIL 08h
042FF9 21 FB 01 00       4361 	ld hl,BUF_59_009
042FFD 01 23 00 00       4362 	ld bc,35
043001 11 2D 00 00       4363 	ld de,45
043005 DD 21 27 06 00    4364 	ld ix,1575
04300A CD 3E A7 04       4365 	call vdu_load_img
04300E C9                4366 	ret
04300F                   4367 
04300F                   4368 ld_59_010:
04300F 21 85 47 04       4369 	ld hl,F59_010
043013 22 CD A5 04       4370 	ld (cur_filename),hl
043017 11 AD A7 04       4371 	ld de,filedata
04301B 01 00 00 01       4372 	ld bc,65536
04301F 3E 01             4373 	ld a,mos_load
043021 5B CF             4374 	RST.LIL 08h
043023 21 FC 01 00       4375 	ld hl,BUF_59_010
043027 01 19 00 00       4376 	ld bc,25
04302B 11 2D 00 00       4377 	ld de,45
04302F DD 21 65 04 00    4378 	ld ix,1125
043034 CD 3E A7 04       4379 	call vdu_load_img
043038 C9                4380 	ret
043039                   4381 
043039                   4382 ld_59_011:
043039 21 99 47 04       4383 	ld hl,F59_011
04303D 22 CD A5 04       4384 	ld (cur_filename),hl
043041 11 AD A7 04       4385 	ld de,filedata
043045 01 00 00 01       4386 	ld bc,65536
043049 3E 01             4387 	ld a,mos_load
04304B 5B CF             4388 	RST.LIL 08h
04304D 21 FD 01 00       4389 	ld hl,BUF_59_011
043051 01 0F 00 00       4390 	ld bc,15
043055 11 2D 00 00       4391 	ld de,45
043059 DD 21 A3 02 00    4392 	ld ix,675
04305E CD 3E A7 04       4393 	call vdu_load_img
043062 C9                4394 	ret
043063                   4395 
043063                   4396 ld_59_012:
043063 21 AD 47 04       4397 	ld hl,F59_012
043067 22 CD A5 04       4398 	ld (cur_filename),hl
04306B 11 AD A7 04       4399 	ld de,filedata
04306F 01 00 00 01       4400 	ld bc,65536
043073 3E 01             4401 	ld a,mos_load
043075 5B CF             4402 	RST.LIL 08h
043077 21 FE 01 00       4403 	ld hl,BUF_59_012
04307B 01 05 00 00       4404 	ld bc,5
04307F 11 2D 00 00       4405 	ld de,45
043083 DD 21 E1 00 00    4406 	ld ix,225
043088 CD 3E A7 04       4407 	call vdu_load_img
04308C C9                4408 	ret
04308D                   4409 
04308D                   4410 ld_59_013:
04308D 21 C1 47 04       4411 	ld hl,F59_013
043091 22 CD A5 04       4412 	ld (cur_filename),hl
043095 11 AD A7 04       4413 	ld de,filedata
043099 01 00 00 01       4414 	ld bc,65536
04309D 3E 01             4415 	ld a,mos_load
04309F 5B CF             4416 	RST.LIL 08h
0430A1 21 FF 01 00       4417 	ld hl,BUF_59_013
0430A5 01 05 00 00       4418 	ld bc,5
0430A9 11 2B 00 00       4419 	ld de,43
0430AD DD 21 D7 00 00    4420 	ld ix,215
0430B2 CD 3E A7 04       4421 	call vdu_load_img
0430B6 C9                4422 	ret
0430B7                   4423 
0430B7                   4424 ld_59_014:
0430B7 21 D5 47 04       4425 	ld hl,F59_014
0430BB 22 CD A5 04       4426 	ld (cur_filename),hl
0430BF 11 AD A7 04       4427 	ld de,filedata
0430C3 01 00 00 01       4428 	ld bc,65536
0430C7 3E 01             4429 	ld a,mos_load
0430C9 5B CF             4430 	RST.LIL 08h
0430CB 21 00 02 00       4431 	ld hl,BUF_59_014
0430CF 01 0F 00 00       4432 	ld bc,15
0430D3 11 2D 00 00       4433 	ld de,45
0430D7 DD 21 A3 02 00    4434 	ld ix,675
0430DC CD 3E A7 04       4435 	call vdu_load_img
0430E0 C9                4436 	ret
0430E1                   4437 
0430E1                   4438 ld_59_015:
0430E1 21 E9 47 04       4439 	ld hl,F59_015
0430E5 22 CD A5 04       4440 	ld (cur_filename),hl
0430E9 11 AD A7 04       4441 	ld de,filedata
0430ED 01 00 00 01       4442 	ld bc,65536
0430F1 3E 01             4443 	ld a,mos_load
0430F3 5B CF             4444 	RST.LIL 08h
0430F5 21 01 02 00       4445 	ld hl,BUF_59_015
0430F9 01 19 00 00       4446 	ld bc,25
0430FD 11 2D 00 00       4447 	ld de,45
043101 DD 21 65 04 00    4448 	ld ix,1125
043106 CD 3E A7 04       4449 	call vdu_load_img
04310A C9                4450 	ret
04310B                   4451 
04310B                   4452 ld_59_016:
04310B 21 FD 47 04       4453 	ld hl,F59_016
04310F 22 CD A5 04       4454 	ld (cur_filename),hl
043113 11 AD A7 04       4455 	ld de,filedata
043117 01 00 00 01       4456 	ld bc,65536
04311B 3E 01             4457 	ld a,mos_load
04311D 5B CF             4458 	RST.LIL 08h
04311F 21 02 02 00       4459 	ld hl,BUF_59_016
043123 01 23 00 00       4460 	ld bc,35
043127 11 2D 00 00       4461 	ld de,45
04312B DD 21 27 06 00    4462 	ld ix,1575
043130 CD 3E A7 04       4463 	call vdu_load_img
043134 C9                4464 	ret
043135                   4465 
043135                   4466 ld_59_020:
043135 21 11 48 04       4467 	ld hl,F59_020
043139 22 CD A5 04       4468 	ld (cur_filename),hl
04313D 11 AD A7 04       4469 	ld de,filedata
043141 01 00 00 01       4470 	ld bc,65536
043145 3E 01             4471 	ld a,mos_load
043147 5B CF             4472 	RST.LIL 08h
043149 21 03 02 00       4473 	ld hl,BUF_59_020
04314D 01 2E 00 00       4474 	ld bc,46
043151 11 2D 00 00       4475 	ld de,45
043155 DD 21 16 08 00    4476 	ld ix,2070
04315A CD 3E A7 04       4477 	call vdu_load_img
04315E C9                4478 	ret
04315F                   4479 
04315F                   4480 ld_59_024:
04315F 21 25 48 04       4481 	ld hl,F59_024
043163 22 CD A5 04       4482 	ld (cur_filename),hl
043167 11 AD A7 04       4483 	ld de,filedata
04316B 01 00 00 01       4484 	ld bc,65536
04316F 3E 01             4485 	ld a,mos_load
043171 5B CF             4486 	RST.LIL 08h
043173 21 04 02 00       4487 	ld hl,BUF_59_024
043177 01 2E 00 00       4488 	ld bc,46
04317B 11 40 00 00       4489 	ld de,64
04317F DD 21 80 0B 00    4490 	ld ix,2944
043184 CD 3E A7 04       4491 	call vdu_load_img
043188 C9                4492 	ret
043189                   4493 
043189                   4494 ld_59_025:
043189 21 39 48 04       4495 	ld hl,F59_025
04318D 22 CD A5 04       4496 	ld (cur_filename),hl
043191 11 AD A7 04       4497 	ld de,filedata
043195 01 00 00 01       4498 	ld bc,65536
043199 3E 01             4499 	ld a,mos_load
04319B 5B CF             4500 	RST.LIL 08h
04319D 21 05 02 00       4501 	ld hl,BUF_59_025
0431A1 01 1C 00 00       4502 	ld bc,28
0431A5 11 40 00 00       4503 	ld de,64
0431A9 DD 21 00 07 00    4504 	ld ix,1792
0431AE CD 3E A7 04       4505 	call vdu_load_img
0431B2 C9                4506 	ret
0431B3                   4507 
0431B3                   4508 ld_59_026:
0431B3 21 4D 48 04       4509 	ld hl,F59_026
0431B7 22 CD A5 04       4510 	ld (cur_filename),hl
0431BB 11 AD A7 04       4511 	ld de,filedata
0431BF 01 00 00 01       4512 	ld bc,65536
0431C3 3E 01             4513 	ld a,mos_load
0431C5 5B CF             4514 	RST.LIL 08h
0431C7 21 06 02 00       4515 	ld hl,BUF_59_026
0431CB 01 09 00 00       4516 	ld bc,9
0431CF 11 40 00 00       4517 	ld de,64
0431D3 DD 21 40 02 00    4518 	ld ix,576
0431D8 CD 3E A7 04       4519 	call vdu_load_img
0431DC C9                4520 	ret
0431DD                   4521 
0431DD                   4522 ld_59_027:
0431DD 21 61 48 04       4523 	ld hl,F59_027
0431E1 22 CD A5 04       4524 	ld (cur_filename),hl
0431E5 11 AD A7 04       4525 	ld de,filedata
0431E9 01 00 00 01       4526 	ld bc,65536
0431ED 3E 01             4527 	ld a,mos_load
0431EF 5B CF             4528 	RST.LIL 08h
0431F1 21 07 02 00       4529 	ld hl,BUF_59_027
0431F5 01 0A 00 00       4530 	ld bc,10
0431F9 11 3E 00 00       4531 	ld de,62
0431FD DD 21 6C 02 00    4532 	ld ix,620
043202 CD 3E A7 04       4533 	call vdu_load_img
043206 C9                4534 	ret
043207                   4535 
043207                   4536 ld_59_028:
043207 21 75 48 04       4537 	ld hl,F59_028
04320B 22 CD A5 04       4538 	ld (cur_filename),hl
04320F 11 AD A7 04       4539 	ld de,filedata
043213 01 00 00 01       4540 	ld bc,65536
043217 3E 01             4541 	ld a,mos_load
043219 5B CF             4542 	RST.LIL 08h
04321B 21 08 02 00       4543 	ld hl,BUF_59_028
04321F 01 1C 00 00       4544 	ld bc,28
043223 11 40 00 00       4545 	ld de,64
043227 DD 21 00 07 00    4546 	ld ix,1792
04322C CD 3E A7 04       4547 	call vdu_load_img
043230 C9                4548 	ret
043231                   4549 
043231                   4550 ld_59_029:
043231 21 89 48 04       4551 	ld hl,F59_029
043235 22 CD A5 04       4552 	ld (cur_filename),hl
043239 11 AD A7 04       4553 	ld de,filedata
04323D 01 00 00 01       4554 	ld bc,65536
043241 3E 01             4555 	ld a,mos_load
043243 5B CF             4556 	RST.LIL 08h
043245 21 09 02 00       4557 	ld hl,BUF_59_029
043249 01 2F 00 00       4558 	ld bc,47
04324D 11 40 00 00       4559 	ld de,64
043251 DD 21 C0 0B 00    4560 	ld ix,3008
043256 CD 3E A7 04       4561 	call vdu_load_img
04325A C9                4562 	ret
04325B                   4563 
04325B                   4564 ld_59_032:
04325B 21 9D 48 04       4565 	ld hl,F59_032
04325F 22 CD A5 04       4566 	ld (cur_filename),hl
043263 11 AD A7 04       4567 	ld de,filedata
043267 01 00 00 01       4568 	ld bc,65536
04326B 3E 01             4569 	ld a,mos_load
04326D 5B CF             4570 	RST.LIL 08h
04326F 21 0A 02 00       4571 	ld hl,BUF_59_032
043273 01 41 00 00       4572 	ld bc,65
043277 11 40 00 00       4573 	ld de,64
04327B DD 21 40 10 00    4574 	ld ix,4160
043280 CD 3E A7 04       4575 	call vdu_load_img
043284 C9                4576 	ret
043285                   4577 
043285                   4578 ld_59_035:
043285 21 B1 48 04       4579 	ld hl,F59_035
043289 22 CD A5 04       4580 	ld (cur_filename),hl
04328D 11 AD A7 04       4581 	ld de,filedata
043291 01 00 00 01       4582 	ld bc,65536
043295 3E 01             4583 	ld a,mos_load
043297 5B CF             4584 	RST.LIL 08h
043299 21 0B 02 00       4585 	ld hl,BUF_59_035
04329D 01 3F 00 00       4586 	ld bc,63
0432A1 11 6B 00 00       4587 	ld de,107
0432A5 DD 21 55 1A 00    4588 	ld ix,6741
0432AA CD 3E A7 04       4589 	call vdu_load_img
0432AE C9                4590 	ret
0432AF                   4591 
0432AF                   4592 ld_59_036:
0432AF 21 C5 48 04       4593 	ld hl,F59_036
0432B3 22 CD A5 04       4594 	ld (cur_filename),hl
0432B7 11 AD A7 04       4595 	ld de,filedata
0432BB 01 00 00 01       4596 	ld bc,65536
0432BF 3E 01             4597 	ld a,mos_load
0432C1 5B CF             4598 	RST.LIL 08h
0432C3 21 0C 02 00       4599 	ld hl,BUF_59_036
0432C7 01 16 00 00       4600 	ld bc,22
0432CB 11 6B 00 00       4601 	ld de,107
0432CF DD 21 32 09 00    4602 	ld ix,2354
0432D4 CD 3E A7 04       4603 	call vdu_load_img
0432D8 C9                4604 	ret
0432D9                   4605 
0432D9                   4606 ld_59_037:
0432D9 21 D9 48 04       4607 	ld hl,F59_037
0432DD 22 CD A5 04       4608 	ld (cur_filename),hl
0432E1 11 AD A7 04       4609 	ld de,filedata
0432E5 01 00 00 01       4610 	ld bc,65536
0432E9 3E 01             4611 	ld a,mos_load
0432EB 5B CF             4612 	RST.LIL 08h
0432ED 21 0D 02 00       4613 	ld hl,BUF_59_037
0432F1 01 15 00 00       4614 	ld bc,21
0432F5 11 69 00 00       4615 	ld de,105
0432F9 DD 21 9D 08 00    4616 	ld ix,2205
0432FE CD 3E A7 04       4617 	call vdu_load_img
043302 C9                4618 	ret
043303                   4619 
043303                   4620 ld_59_038:
043303 21 ED 48 04       4621 	ld hl,F59_038
043307 22 CD A5 04       4622 	ld (cur_filename),hl
04330B 11 AD A7 04       4623 	ld de,filedata
04330F 01 00 00 01       4624 	ld bc,65536
043313 3E 01             4625 	ld a,mos_load
043315 5B CF             4626 	RST.LIL 08h
043317 21 0E 02 00       4627 	ld hl,BUF_59_038
04331B 01 3F 00 00       4628 	ld bc,63
04331F 11 6B 00 00       4629 	ld de,107
043323 DD 21 55 1A 00    4630 	ld ix,6741
043328 CD 3E A7 04       4631 	call vdu_load_img
04332C C9                4632 	ret
04332D                   4633 
04332D                   4634 ld_59_040:
04332D 21 01 49 04       4635 	ld hl,F59_040
043331 22 CD A5 04       4636 	ld (cur_filename),hl
043335 11 AD A7 04       4637 	ld de,filedata
043339 01 00 00 01       4638 	ld bc,65536
04333D 3E 01             4639 	ld a,mos_load
04333F 5B CF             4640 	RST.LIL 08h
043341 21 0F 02 00       4641 	ld hl,BUF_59_040
043345 01 6C 00 00       4642 	ld bc,108
043349 11 6B 00 00       4643 	ld de,107
04334D DD 21 24 2D 00    4644 	ld ix,11556
043352 CD 3E A7 04       4645 	call vdu_load_img
043356 C9                4646 	ret
043357                   4647 
043357                   4648 ld_59_042:
043357 21 15 49 04       4649 	ld hl,F59_042
04335B 22 CD A5 04       4650 	ld (cur_filename),hl
04335F 11 AD A7 04       4651 	ld de,filedata
043363 01 00 00 01       4652 	ld bc,65536
043367 3E 01             4653 	ld a,mos_load
043369 5B CF             4654 	RST.LIL 08h
04336B 21 10 02 00       4655 	ld hl,BUF_59_042
04336F 01 6A 00 00       4656 	ld bc,106
043373 11 A0 00 00       4657 	ld de,160
043377 DD 21 40 42 00    4658 	ld ix,16960
04337C CD 3E A7 04       4659 	call vdu_load_img
043380 C9                4660 	ret
043381                   4661 
043381                   4662 ld_59_043:
043381 21 29 49 04       4663 	ld hl,F59_043
043385 22 CD A5 04       4664 	ld (cur_filename),hl
043389 11 AD A7 04       4665 	ld de,filedata
04338D 01 00 00 01       4666 	ld bc,65536
043391 3E 01             4667 	ld a,mos_load
043393 5B CF             4668 	RST.LIL 08h
043395 21 11 02 00       4669 	ld hl,BUF_59_043
043399 01 6B 00 00       4670 	ld bc,107
04339D 11 A0 00 00       4671 	ld de,160
0433A1 DD 21 E0 42 00    4672 	ld ix,17120
0433A6 CD 3E A7 04       4673 	call vdu_load_img
0433AA C9                4674 	ret
0433AB                   4675 
0433AB                   4676 ld_59_044:
0433AB 21 3D 49 04       4677 	ld hl,F59_044
0433AF 22 CD A5 04       4678 	ld (cur_filename),hl
0433B3 11 AD A7 04       4679 	ld de,filedata
0433B7 01 00 00 01       4680 	ld bc,65536
0433BB 3E 01             4681 	ld a,mos_load
0433BD 5B CF             4682 	RST.LIL 08h
0433BF 21 12 02 00       4683 	ld hl,BUF_59_044
0433C3 01 40 01 00       4684 	ld bc,320
0433C7 11 A0 00 00       4685 	ld de,160
0433CB DD 21 00 C8 00    4686 	ld ix,51200
0433D0 CD 3E A7 04       4687 	call vdu_load_img
0433D4 C9                4688 	ret
0433D5                   4689 
0433D5                   4690 ; File name lookups:
0433D5 70 61 6E 65 6C 73 4691 F10_004: db "panels/10_004.rgba2",0
       2F 31 30 5F 30 30 
       34 2E 72 67 62 61 
       32 00             
0433E9 70 61 6E 65 6C 73 4692 F10_009: db "panels/10_009.rgba2",0
       2F 31 30 5F 30 30 
       39 2E 72 67 62 61 
       32 00             
0433FD 70 61 6E 65 6C 73 4693 F10_010: db "panels/10_010.rgba2",0
       2F 31 30 5F 30 31 
       30 2E 72 67 62 61 
       32 00             
043411 70 61 6E 65 6C 73 4694 F10_011: db "panels/10_011.rgba2",0
       2F 31 30 5F 30 31 
       31 2E 72 67 62 61 
       32 00             
043425 70 61 6E 65 6C 73 4695 F10_012: db "panels/10_012.rgba2",0
       2F 31 30 5F 30 31 
       32 2E 72 67 62 61 
       32 00             
043439 70 61 6E 65 6C 73 4696 F10_013: db "panels/10_013.rgba2",0
       2F 31 30 5F 30 31 
       33 2E 72 67 62 61 
       32 00             
04344D 70 61 6E 65 6C 73 4697 F10_014: db "panels/10_014.rgba2",0
       2F 31 30 5F 30 31 
       34 2E 72 67 62 61 
       32 00             
043461 70 61 6E 65 6C 73 4698 F10_015: db "panels/10_015.rgba2",0
       2F 31 30 5F 30 31 
       35 2E 72 67 62 61 
       32 00             
043475 70 61 6E 65 6C 73 4699 F10_016: db "panels/10_016.rgba2",0
       2F 31 30 5F 30 31 
       36 2E 72 67 62 61 
       32 00             
043489 70 61 6E 65 6C 73 4700 F10_020: db "panels/10_020.rgba2",0
       2F 31 30 5F 30 32 
       30 2E 72 67 62 61 
       32 00             
04349D 70 61 6E 65 6C 73 4701 F10_024: db "panels/10_024.rgba2",0
       2F 31 30 5F 30 32 
       34 2E 72 67 62 61 
       32 00             
0434B1 70 61 6E 65 6C 73 4702 F10_025: db "panels/10_025.rgba2",0
       2F 31 30 5F 30 32 
       35 2E 72 67 62 61 
       32 00             
0434C5 70 61 6E 65 6C 73 4703 F10_026: db "panels/10_026.rgba2",0
       2F 31 30 5F 30 32 
       36 2E 72 67 62 61 
       32 00             
0434D9 70 61 6E 65 6C 73 4704 F10_027: db "panels/10_027.rgba2",0
       2F 31 30 5F 30 32 
       37 2E 72 67 62 61 
       32 00             
0434ED 70 61 6E 65 6C 73 4705 F10_028: db "panels/10_028.rgba2",0
       2F 31 30 5F 30 32 
       38 2E 72 67 62 61 
       32 00             
043501 70 61 6E 65 6C 73 4706 F10_029: db "panels/10_029.rgba2",0
       2F 31 30 5F 30 32 
       39 2E 72 67 62 61 
       32 00             
043515 70 61 6E 65 6C 73 4707 F10_032: db "panels/10_032.rgba2",0
       2F 31 30 5F 30 33 
       32 2E 72 67 62 61 
       32 00             
043529 70 61 6E 65 6C 73 4708 F10_035: db "panels/10_035.rgba2",0
       2F 31 30 5F 30 33 
       35 2E 72 67 62 61 
       32 00             
04353D 70 61 6E 65 6C 73 4709 F10_036: db "panels/10_036.rgba2",0
       2F 31 30 5F 30 33 
       36 2E 72 67 62 61 
       32 00             
043551 70 61 6E 65 6C 73 4710 F10_037: db "panels/10_037.rgba2",0
       2F 31 30 5F 30 33 
       37 2E 72 67 62 61 
       32 00             
043565 70 61 6E 65 6C 73 4711 F10_038: db "panels/10_038.rgba2",0
       2F 31 30 5F 30 33 
       38 2E 72 67 62 61 
       32 00             
043579 70 61 6E 65 6C 73 4712 F10_040: db "panels/10_040.rgba2",0
       2F 31 30 5F 30 34 
       30 2E 72 67 62 61 
       32 00             
04358D 70 61 6E 65 6C 73 4713 F10_042: db "panels/10_042.rgba2",0
       2F 31 30 5F 30 34 
       32 2E 72 67 62 61 
       32 00             
0435A1 70 61 6E 65 6C 73 4714 F10_043: db "panels/10_043.rgba2",0
       2F 31 30 5F 30 34 
       33 2E 72 67 62 61 
       32 00             
0435B5 70 61 6E 65 6C 73 4715 F10_044: db "panels/10_044.rgba2",0
       2F 31 30 5F 30 34 
       34 2E 72 67 62 61 
       32 00             
0435C9 70 61 6E 65 6C 73 4716 F11_004: db "panels/11_004.rgba2",0
       2F 31 31 5F 30 30 
       34 2E 72 67 62 61 
       32 00             
0435DD 70 61 6E 65 6C 73 4717 F11_009: db "panels/11_009.rgba2",0
       2F 31 31 5F 30 30 
       39 2E 72 67 62 61 
       32 00             
0435F1 70 61 6E 65 6C 73 4718 F11_010: db "panels/11_010.rgba2",0
       2F 31 31 5F 30 31 
       30 2E 72 67 62 61 
       32 00             
043605 70 61 6E 65 6C 73 4719 F11_011: db "panels/11_011.rgba2",0
       2F 31 31 5F 30 31 
       31 2E 72 67 62 61 
       32 00             
043619 70 61 6E 65 6C 73 4720 F11_012: db "panels/11_012.rgba2",0
       2F 31 31 5F 30 31 
       32 2E 72 67 62 61 
       32 00             
04362D 70 61 6E 65 6C 73 4721 F11_013: db "panels/11_013.rgba2",0
       2F 31 31 5F 30 31 
       33 2E 72 67 62 61 
       32 00             
043641 70 61 6E 65 6C 73 4722 F11_014: db "panels/11_014.rgba2",0
       2F 31 31 5F 30 31 
       34 2E 72 67 62 61 
       32 00             
043655 70 61 6E 65 6C 73 4723 F11_015: db "panels/11_015.rgba2",0
       2F 31 31 5F 30 31 
       35 2E 72 67 62 61 
       32 00             
043669 70 61 6E 65 6C 73 4724 F11_016: db "panels/11_016.rgba2",0
       2F 31 31 5F 30 31 
       36 2E 72 67 62 61 
       32 00             
04367D 70 61 6E 65 6C 73 4725 F11_020: db "panels/11_020.rgba2",0
       2F 31 31 5F 30 32 
       30 2E 72 67 62 61 
       32 00             
043691 70 61 6E 65 6C 73 4726 F11_024: db "panels/11_024.rgba2",0
       2F 31 31 5F 30 32 
       34 2E 72 67 62 61 
       32 00             
0436A5 70 61 6E 65 6C 73 4727 F11_025: db "panels/11_025.rgba2",0
       2F 31 31 5F 30 32 
       35 2E 72 67 62 61 
       32 00             
0436B9 70 61 6E 65 6C 73 4728 F11_026: db "panels/11_026.rgba2",0
       2F 31 31 5F 30 32 
       36 2E 72 67 62 61 
       32 00             
0436CD 70 61 6E 65 6C 73 4729 F11_027: db "panels/11_027.rgba2",0
       2F 31 31 5F 30 32 
       37 2E 72 67 62 61 
       32 00             
0436E1 70 61 6E 65 6C 73 4730 F11_028: db "panels/11_028.rgba2",0
       2F 31 31 5F 30 32 
       38 2E 72 67 62 61 
       32 00             
0436F5 70 61 6E 65 6C 73 4731 F11_029: db "panels/11_029.rgba2",0
       2F 31 31 5F 30 32 
       39 2E 72 67 62 61 
       32 00             
043709 70 61 6E 65 6C 73 4732 F11_032: db "panels/11_032.rgba2",0
       2F 31 31 5F 30 33 
       32 2E 72 67 62 61 
       32 00             
04371D 70 61 6E 65 6C 73 4733 F11_035: db "panels/11_035.rgba2",0
       2F 31 31 5F 30 33 
       35 2E 72 67 62 61 
       32 00             
043731 70 61 6E 65 6C 73 4734 F11_036: db "panels/11_036.rgba2",0
       2F 31 31 5F 30 33 
       36 2E 72 67 62 61 
       32 00             
043745 70 61 6E 65 6C 73 4735 F11_037: db "panels/11_037.rgba2",0
       2F 31 31 5F 30 33 
       37 2E 72 67 62 61 
       32 00             
043759 70 61 6E 65 6C 73 4736 F11_038: db "panels/11_038.rgba2",0
       2F 31 31 5F 30 33 
       38 2E 72 67 62 61 
       32 00             
04376D 70 61 6E 65 6C 73 4737 F11_040: db "panels/11_040.rgba2",0
       2F 31 31 5F 30 34 
       30 2E 72 67 62 61 
       32 00             
043781 70 61 6E 65 6C 73 4738 F11_042: db "panels/11_042.rgba2",0
       2F 31 31 5F 30 34 
       32 2E 72 67 62 61 
       32 00             
043795 70 61 6E 65 6C 73 4739 F11_043: db "panels/11_043.rgba2",0
       2F 31 31 5F 30 34 
       33 2E 72 67 62 61 
       32 00             
0437A9 70 61 6E 65 6C 73 4740 F11_044: db "panels/11_044.rgba2",0
       2F 31 31 5F 30 34 
       34 2E 72 67 62 61 
       32 00             
0437BD 70 61 6E 65 6C 73 4741 F12_004: db "panels/12_004.rgba2",0
       2F 31 32 5F 30 30 
       34 2E 72 67 62 61 
       32 00             
0437D1 70 61 6E 65 6C 73 4742 F12_009: db "panels/12_009.rgba2",0
       2F 31 32 5F 30 30 
       39 2E 72 67 62 61 
       32 00             
0437E5 70 61 6E 65 6C 73 4743 F12_010: db "panels/12_010.rgba2",0
       2F 31 32 5F 30 31 
       30 2E 72 67 62 61 
       32 00             
0437F9 70 61 6E 65 6C 73 4744 F12_011: db "panels/12_011.rgba2",0
       2F 31 32 5F 30 31 
       31 2E 72 67 62 61 
       32 00             
04380D 70 61 6E 65 6C 73 4745 F12_012: db "panels/12_012.rgba2",0
       2F 31 32 5F 30 31 
       32 2E 72 67 62 61 
       32 00             
043821 70 61 6E 65 6C 73 4746 F12_013: db "panels/12_013.rgba2",0
       2F 31 32 5F 30 31 
       33 2E 72 67 62 61 
       32 00             
043835 70 61 6E 65 6C 73 4747 F12_014: db "panels/12_014.rgba2",0
       2F 31 32 5F 30 31 
       34 2E 72 67 62 61 
       32 00             
043849 70 61 6E 65 6C 73 4748 F12_015: db "panels/12_015.rgba2",0
       2F 31 32 5F 30 31 
       35 2E 72 67 62 61 
       32 00             
04385D 70 61 6E 65 6C 73 4749 F12_016: db "panels/12_016.rgba2",0
       2F 31 32 5F 30 31 
       36 2E 72 67 62 61 
       32 00             
043871 70 61 6E 65 6C 73 4750 F12_020: db "panels/12_020.rgba2",0
       2F 31 32 5F 30 32 
       30 2E 72 67 62 61 
       32 00             
043885 70 61 6E 65 6C 73 4751 F12_024: db "panels/12_024.rgba2",0
       2F 31 32 5F 30 32 
       34 2E 72 67 62 61 
       32 00             
043899 70 61 6E 65 6C 73 4752 F12_025: db "panels/12_025.rgba2",0
       2F 31 32 5F 30 32 
       35 2E 72 67 62 61 
       32 00             
0438AD 70 61 6E 65 6C 73 4753 F12_026: db "panels/12_026.rgba2",0
       2F 31 32 5F 30 32 
       36 2E 72 67 62 61 
       32 00             
0438C1 70 61 6E 65 6C 73 4754 F12_027: db "panels/12_027.rgba2",0
       2F 31 32 5F 30 32 
       37 2E 72 67 62 61 
       32 00             
0438D5 70 61 6E 65 6C 73 4755 F12_028: db "panels/12_028.rgba2",0
       2F 31 32 5F 30 32 
       38 2E 72 67 62 61 
       32 00             
0438E9 70 61 6E 65 6C 73 4756 F12_029: db "panels/12_029.rgba2",0
       2F 31 32 5F 30 32 
       39 2E 72 67 62 61 
       32 00             
0438FD 70 61 6E 65 6C 73 4757 F12_032: db "panels/12_032.rgba2",0
       2F 31 32 5F 30 33 
       32 2E 72 67 62 61 
       32 00             
043911 70 61 6E 65 6C 73 4758 F12_035: db "panels/12_035.rgba2",0
       2F 31 32 5F 30 33 
       35 2E 72 67 62 61 
       32 00             
043925 70 61 6E 65 6C 73 4759 F12_036: db "panels/12_036.rgba2",0
       2F 31 32 5F 30 33 
       36 2E 72 67 62 61 
       32 00             
043939 70 61 6E 65 6C 73 4760 F12_037: db "panels/12_037.rgba2",0
       2F 31 32 5F 30 33 
       37 2E 72 67 62 61 
       32 00             
04394D 70 61 6E 65 6C 73 4761 F12_038: db "panels/12_038.rgba2",0
       2F 31 32 5F 30 33 
       38 2E 72 67 62 61 
       32 00             
043961 70 61 6E 65 6C 73 4762 F12_040: db "panels/12_040.rgba2",0
       2F 31 32 5F 30 34 
       30 2E 72 67 62 61 
       32 00             
043975 70 61 6E 65 6C 73 4763 F12_042: db "panels/12_042.rgba2",0
       2F 31 32 5F 30 34 
       32 2E 72 67 62 61 
       32 00             
043989 70 61 6E 65 6C 73 4764 F12_043: db "panels/12_043.rgba2",0
       2F 31 32 5F 30 34 
       33 2E 72 67 62 61 
       32 00             
04399D 70 61 6E 65 6C 73 4765 F12_044: db "panels/12_044.rgba2",0
       2F 31 32 5F 30 34 
       34 2E 72 67 62 61 
       32 00             
0439B1 70 61 6E 65 6C 73 4766 F13_004: db "panels/13_004.rgba2",0
       2F 31 33 5F 30 30 
       34 2E 72 67 62 61 
       32 00             
0439C5 70 61 6E 65 6C 73 4767 F13_009: db "panels/13_009.rgba2",0
       2F 31 33 5F 30 30 
       39 2E 72 67 62 61 
       32 00             
0439D9 70 61 6E 65 6C 73 4768 F13_010: db "panels/13_010.rgba2",0
       2F 31 33 5F 30 31 
       30 2E 72 67 62 61 
       32 00             
0439ED 70 61 6E 65 6C 73 4769 F13_011: db "panels/13_011.rgba2",0
       2F 31 33 5F 30 31 
       31 2E 72 67 62 61 
       32 00             
043A01 70 61 6E 65 6C 73 4770 F13_012: db "panels/13_012.rgba2",0
       2F 31 33 5F 30 31 
       32 2E 72 67 62 61 
       32 00             
043A15 70 61 6E 65 6C 73 4771 F13_013: db "panels/13_013.rgba2",0
       2F 31 33 5F 30 31 
       33 2E 72 67 62 61 
       32 00             
043A29 70 61 6E 65 6C 73 4772 F13_014: db "panels/13_014.rgba2",0
       2F 31 33 5F 30 31 
       34 2E 72 67 62 61 
       32 00             
043A3D 70 61 6E 65 6C 73 4773 F13_015: db "panels/13_015.rgba2",0
       2F 31 33 5F 30 31 
       35 2E 72 67 62 61 
       32 00             
043A51 70 61 6E 65 6C 73 4774 F13_016: db "panels/13_016.rgba2",0
       2F 31 33 5F 30 31 
       36 2E 72 67 62 61 
       32 00             
043A65 70 61 6E 65 6C 73 4775 F13_020: db "panels/13_020.rgba2",0
       2F 31 33 5F 30 32 
       30 2E 72 67 62 61 
       32 00             
043A79 70 61 6E 65 6C 73 4776 F13_024: db "panels/13_024.rgba2",0
       2F 31 33 5F 30 32 
       34 2E 72 67 62 61 
       32 00             
043A8D 70 61 6E 65 6C 73 4777 F13_025: db "panels/13_025.rgba2",0
       2F 31 33 5F 30 32 
       35 2E 72 67 62 61 
       32 00             
043AA1 70 61 6E 65 6C 73 4778 F13_026: db "panels/13_026.rgba2",0
       2F 31 33 5F 30 32 
       36 2E 72 67 62 61 
       32 00             
043AB5 70 61 6E 65 6C 73 4779 F13_027: db "panels/13_027.rgba2",0
       2F 31 33 5F 30 32 
       37 2E 72 67 62 61 
       32 00             
043AC9 70 61 6E 65 6C 73 4780 F13_028: db "panels/13_028.rgba2",0
       2F 31 33 5F 30 32 
       38 2E 72 67 62 61 
       32 00             
043ADD 70 61 6E 65 6C 73 4781 F13_029: db "panels/13_029.rgba2",0
       2F 31 33 5F 30 32 
       39 2E 72 67 62 61 
       32 00             
043AF1 70 61 6E 65 6C 73 4782 F13_032: db "panels/13_032.rgba2",0
       2F 31 33 5F 30 33 
       32 2E 72 67 62 61 
       32 00             
043B05 70 61 6E 65 6C 73 4783 F13_035: db "panels/13_035.rgba2",0
       2F 31 33 5F 30 33 
       35 2E 72 67 62 61 
       32 00             
043B19 70 61 6E 65 6C 73 4784 F13_036: db "panels/13_036.rgba2",0
       2F 31 33 5F 30 33 
       36 2E 72 67 62 61 
       32 00             
043B2D 70 61 6E 65 6C 73 4785 F13_037: db "panels/13_037.rgba2",0
       2F 31 33 5F 30 33 
       37 2E 72 67 62 61 
       32 00             
043B41 70 61 6E 65 6C 73 4786 F13_038: db "panels/13_038.rgba2",0
       2F 31 33 5F 30 33 
       38 2E 72 67 62 61 
       32 00             
043B55 70 61 6E 65 6C 73 4787 F13_040: db "panels/13_040.rgba2",0
       2F 31 33 5F 30 34 
       30 2E 72 67 62 61 
       32 00             
043B69 70 61 6E 65 6C 73 4788 F13_042: db "panels/13_042.rgba2",0
       2F 31 33 5F 30 34 
       32 2E 72 67 62 61 
       32 00             
043B7D 70 61 6E 65 6C 73 4789 F13_043: db "panels/13_043.rgba2",0
       2F 31 33 5F 30 34 
       33 2E 72 67 62 61 
       32 00             
043B91 70 61 6E 65 6C 73 4790 F13_044: db "panels/13_044.rgba2",0
       2F 31 33 5F 30 34 
       34 2E 72 67 62 61 
       32 00             
043BA5 70 61 6E 65 6C 73 4791 F14_004: db "panels/14_004.rgba2",0
       2F 31 34 5F 30 30 
       34 2E 72 67 62 61 
       32 00             
043BB9 70 61 6E 65 6C 73 4792 F14_009: db "panels/14_009.rgba2",0
       2F 31 34 5F 30 30 
       39 2E 72 67 62 61 
       32 00             
043BCD 70 61 6E 65 6C 73 4793 F14_010: db "panels/14_010.rgba2",0
       2F 31 34 5F 30 31 
       30 2E 72 67 62 61 
       32 00             
043BE1 70 61 6E 65 6C 73 4794 F14_011: db "panels/14_011.rgba2",0
       2F 31 34 5F 30 31 
       31 2E 72 67 62 61 
       32 00             
043BF5 70 61 6E 65 6C 73 4795 F14_012: db "panels/14_012.rgba2",0
       2F 31 34 5F 30 31 
       32 2E 72 67 62 61 
       32 00             
043C09 70 61 6E 65 6C 73 4796 F14_013: db "panels/14_013.rgba2",0
       2F 31 34 5F 30 31 
       33 2E 72 67 62 61 
       32 00             
043C1D 70 61 6E 65 6C 73 4797 F14_014: db "panels/14_014.rgba2",0
       2F 31 34 5F 30 31 
       34 2E 72 67 62 61 
       32 00             
043C31 70 61 6E 65 6C 73 4798 F14_015: db "panels/14_015.rgba2",0
       2F 31 34 5F 30 31 
       35 2E 72 67 62 61 
       32 00             
043C45 70 61 6E 65 6C 73 4799 F14_016: db "panels/14_016.rgba2",0
       2F 31 34 5F 30 31 
       36 2E 72 67 62 61 
       32 00             
043C59 70 61 6E 65 6C 73 4800 F14_020: db "panels/14_020.rgba2",0
       2F 31 34 5F 30 32 
       30 2E 72 67 62 61 
       32 00             
043C6D 70 61 6E 65 6C 73 4801 F14_024: db "panels/14_024.rgba2",0
       2F 31 34 5F 30 32 
       34 2E 72 67 62 61 
       32 00             
043C81 70 61 6E 65 6C 73 4802 F14_025: db "panels/14_025.rgba2",0
       2F 31 34 5F 30 32 
       35 2E 72 67 62 61 
       32 00             
043C95 70 61 6E 65 6C 73 4803 F14_026: db "panels/14_026.rgba2",0
       2F 31 34 5F 30 32 
       36 2E 72 67 62 61 
       32 00             
043CA9 70 61 6E 65 6C 73 4804 F14_027: db "panels/14_027.rgba2",0
       2F 31 34 5F 30 32 
       37 2E 72 67 62 61 
       32 00             
043CBD 70 61 6E 65 6C 73 4805 F14_028: db "panels/14_028.rgba2",0
       2F 31 34 5F 30 32 
       38 2E 72 67 62 61 
       32 00             
043CD1 70 61 6E 65 6C 73 4806 F14_029: db "panels/14_029.rgba2",0
       2F 31 34 5F 30 32 
       39 2E 72 67 62 61 
       32 00             
043CE5 70 61 6E 65 6C 73 4807 F14_032: db "panels/14_032.rgba2",0
       2F 31 34 5F 30 33 
       32 2E 72 67 62 61 
       32 00             
043CF9 70 61 6E 65 6C 73 4808 F14_035: db "panels/14_035.rgba2",0
       2F 31 34 5F 30 33 
       35 2E 72 67 62 61 
       32 00             
043D0D 70 61 6E 65 6C 73 4809 F14_036: db "panels/14_036.rgba2",0
       2F 31 34 5F 30 33 
       36 2E 72 67 62 61 
       32 00             
043D21 70 61 6E 65 6C 73 4810 F14_037: db "panels/14_037.rgba2",0
       2F 31 34 5F 30 33 
       37 2E 72 67 62 61 
       32 00             
043D35 70 61 6E 65 6C 73 4811 F14_038: db "panels/14_038.rgba2",0
       2F 31 34 5F 30 33 
       38 2E 72 67 62 61 
       32 00             
043D49 70 61 6E 65 6C 73 4812 F14_040: db "panels/14_040.rgba2",0
       2F 31 34 5F 30 34 
       30 2E 72 67 62 61 
       32 00             
043D5D 70 61 6E 65 6C 73 4813 F14_042: db "panels/14_042.rgba2",0
       2F 31 34 5F 30 34 
       32 2E 72 67 62 61 
       32 00             
043D71 70 61 6E 65 6C 73 4814 F14_043: db "panels/14_043.rgba2",0
       2F 31 34 5F 30 34 
       33 2E 72 67 62 61 
       32 00             
043D85 70 61 6E 65 6C 73 4815 F14_044: db "panels/14_044.rgba2",0
       2F 31 34 5F 30 34 
       34 2E 72 67 62 61 
       32 00             
043D99 70 61 6E 65 6C 73 4816 F15_004: db "panels/15_004.rgba2",0
       2F 31 35 5F 30 30 
       34 2E 72 67 62 61 
       32 00             
043DAD 70 61 6E 65 6C 73 4817 F15_009: db "panels/15_009.rgba2",0
       2F 31 35 5F 30 30 
       39 2E 72 67 62 61 
       32 00             
043DC1 70 61 6E 65 6C 73 4818 F15_010: db "panels/15_010.rgba2",0
       2F 31 35 5F 30 31 
       30 2E 72 67 62 61 
       32 00             
043DD5 70 61 6E 65 6C 73 4819 F15_011: db "panels/15_011.rgba2",0
       2F 31 35 5F 30 31 
       31 2E 72 67 62 61 
       32 00             
043DE9 70 61 6E 65 6C 73 4820 F15_012: db "panels/15_012.rgba2",0
       2F 31 35 5F 30 31 
       32 2E 72 67 62 61 
       32 00             
043DFD 70 61 6E 65 6C 73 4821 F15_013: db "panels/15_013.rgba2",0
       2F 31 35 5F 30 31 
       33 2E 72 67 62 61 
       32 00             
043E11 70 61 6E 65 6C 73 4822 F15_014: db "panels/15_014.rgba2",0
       2F 31 35 5F 30 31 
       34 2E 72 67 62 61 
       32 00             
043E25 70 61 6E 65 6C 73 4823 F15_015: db "panels/15_015.rgba2",0
       2F 31 35 5F 30 31 
       35 2E 72 67 62 61 
       32 00             
043E39 70 61 6E 65 6C 73 4824 F15_016: db "panels/15_016.rgba2",0
       2F 31 35 5F 30 31 
       36 2E 72 67 62 61 
       32 00             
043E4D 70 61 6E 65 6C 73 4825 F15_020: db "panels/15_020.rgba2",0
       2F 31 35 5F 30 32 
       30 2E 72 67 62 61 
       32 00             
043E61 70 61 6E 65 6C 73 4826 F15_024: db "panels/15_024.rgba2",0
       2F 31 35 5F 30 32 
       34 2E 72 67 62 61 
       32 00             
043E75 70 61 6E 65 6C 73 4827 F15_025: db "panels/15_025.rgba2",0
       2F 31 35 5F 30 32 
       35 2E 72 67 62 61 
       32 00             
043E89 70 61 6E 65 6C 73 4828 F15_026: db "panels/15_026.rgba2",0
       2F 31 35 5F 30 32 
       36 2E 72 67 62 61 
       32 00             
043E9D 70 61 6E 65 6C 73 4829 F15_027: db "panels/15_027.rgba2",0
       2F 31 35 5F 30 32 
       37 2E 72 67 62 61 
       32 00             
043EB1 70 61 6E 65 6C 73 4830 F15_028: db "panels/15_028.rgba2",0
       2F 31 35 5F 30 32 
       38 2E 72 67 62 61 
       32 00             
043EC5 70 61 6E 65 6C 73 4831 F15_029: db "panels/15_029.rgba2",0
       2F 31 35 5F 30 32 
       39 2E 72 67 62 61 
       32 00             
043ED9 70 61 6E 65 6C 73 4832 F15_032: db "panels/15_032.rgba2",0
       2F 31 35 5F 30 33 
       32 2E 72 67 62 61 
       32 00             
043EED 70 61 6E 65 6C 73 4833 F15_035: db "panels/15_035.rgba2",0
       2F 31 35 5F 30 33 
       35 2E 72 67 62 61 
       32 00             
043F01 70 61 6E 65 6C 73 4834 F15_036: db "panels/15_036.rgba2",0
       2F 31 35 5F 30 33 
       36 2E 72 67 62 61 
       32 00             
043F15 70 61 6E 65 6C 73 4835 F15_037: db "panels/15_037.rgba2",0
       2F 31 35 5F 30 33 
       37 2E 72 67 62 61 
       32 00             
043F29 70 61 6E 65 6C 73 4836 F15_038: db "panels/15_038.rgba2",0
       2F 31 35 5F 30 33 
       38 2E 72 67 62 61 
       32 00             
043F3D 70 61 6E 65 6C 73 4837 F15_040: db "panels/15_040.rgba2",0
       2F 31 35 5F 30 34 
       30 2E 72 67 62 61 
       32 00             
043F51 70 61 6E 65 6C 73 4838 F15_042: db "panels/15_042.rgba2",0
       2F 31 35 5F 30 34 
       32 2E 72 67 62 61 
       32 00             
043F65 70 61 6E 65 6C 73 4839 F15_043: db "panels/15_043.rgba2",0
       2F 31 35 5F 30 34 
       33 2E 72 67 62 61 
       32 00             
043F79 70 61 6E 65 6C 73 4840 F15_044: db "panels/15_044.rgba2",0
       2F 31 35 5F 30 34 
       34 2E 72 67 62 61 
       32 00             
043F8D 70 61 6E 65 6C 73 4841 F16_004: db "panels/16_004.rgba2",0
       2F 31 36 5F 30 30 
       34 2E 72 67 62 61 
       32 00             
043FA1 70 61 6E 65 6C 73 4842 F16_009: db "panels/16_009.rgba2",0
       2F 31 36 5F 30 30 
       39 2E 72 67 62 61 
       32 00             
043FB5 70 61 6E 65 6C 73 4843 F16_010: db "panels/16_010.rgba2",0
       2F 31 36 5F 30 31 
       30 2E 72 67 62 61 
       32 00             
043FC9 70 61 6E 65 6C 73 4844 F16_011: db "panels/16_011.rgba2",0
       2F 31 36 5F 30 31 
       31 2E 72 67 62 61 
       32 00             
043FDD 70 61 6E 65 6C 73 4845 F16_012: db "panels/16_012.rgba2",0
       2F 31 36 5F 30 31 
       32 2E 72 67 62 61 
       32 00             
043FF1 70 61 6E 65 6C 73 4846 F16_013: db "panels/16_013.rgba2",0
       2F 31 36 5F 30 31 
       33 2E 72 67 62 61 
       32 00             
044005 70 61 6E 65 6C 73 4847 F16_014: db "panels/16_014.rgba2",0
       2F 31 36 5F 30 31 
       34 2E 72 67 62 61 
       32 00             
044019 70 61 6E 65 6C 73 4848 F16_015: db "panels/16_015.rgba2",0
       2F 31 36 5F 30 31 
       35 2E 72 67 62 61 
       32 00             
04402D 70 61 6E 65 6C 73 4849 F16_016: db "panels/16_016.rgba2",0
       2F 31 36 5F 30 31 
       36 2E 72 67 62 61 
       32 00             
044041 70 61 6E 65 6C 73 4850 F16_020: db "panels/16_020.rgba2",0
       2F 31 36 5F 30 32 
       30 2E 72 67 62 61 
       32 00             
044055 70 61 6E 65 6C 73 4851 F16_024: db "panels/16_024.rgba2",0
       2F 31 36 5F 30 32 
       34 2E 72 67 62 61 
       32 00             
044069 70 61 6E 65 6C 73 4852 F16_025: db "panels/16_025.rgba2",0
       2F 31 36 5F 30 32 
       35 2E 72 67 62 61 
       32 00             
04407D 70 61 6E 65 6C 73 4853 F16_026: db "panels/16_026.rgba2",0
       2F 31 36 5F 30 32 
       36 2E 72 67 62 61 
       32 00             
044091 70 61 6E 65 6C 73 4854 F16_027: db "panels/16_027.rgba2",0
       2F 31 36 5F 30 32 
       37 2E 72 67 62 61 
       32 00             
0440A5 70 61 6E 65 6C 73 4855 F16_028: db "panels/16_028.rgba2",0
       2F 31 36 5F 30 32 
       38 2E 72 67 62 61 
       32 00             
0440B9 70 61 6E 65 6C 73 4856 F16_029: db "panels/16_029.rgba2",0
       2F 31 36 5F 30 32 
       39 2E 72 67 62 61 
       32 00             
0440CD 70 61 6E 65 6C 73 4857 F16_032: db "panels/16_032.rgba2",0
       2F 31 36 5F 30 33 
       32 2E 72 67 62 61 
       32 00             
0440E1 70 61 6E 65 6C 73 4858 F16_035: db "panels/16_035.rgba2",0
       2F 31 36 5F 30 33 
       35 2E 72 67 62 61 
       32 00             
0440F5 70 61 6E 65 6C 73 4859 F16_036: db "panels/16_036.rgba2",0
       2F 31 36 5F 30 33 
       36 2E 72 67 62 61 
       32 00             
044109 70 61 6E 65 6C 73 4860 F16_037: db "panels/16_037.rgba2",0
       2F 31 36 5F 30 33 
       37 2E 72 67 62 61 
       32 00             
04411D 70 61 6E 65 6C 73 4861 F16_038: db "panels/16_038.rgba2",0
       2F 31 36 5F 30 33 
       38 2E 72 67 62 61 
       32 00             
044131 70 61 6E 65 6C 73 4862 F16_040: db "panels/16_040.rgba2",0
       2F 31 36 5F 30 34 
       30 2E 72 67 62 61 
       32 00             
044145 70 61 6E 65 6C 73 4863 F16_042: db "panels/16_042.rgba2",0
       2F 31 36 5F 30 34 
       32 2E 72 67 62 61 
       32 00             
044159 70 61 6E 65 6C 73 4864 F16_043: db "panels/16_043.rgba2",0
       2F 31 36 5F 30 34 
       33 2E 72 67 62 61 
       32 00             
04416D 70 61 6E 65 6C 73 4865 F16_044: db "panels/16_044.rgba2",0
       2F 31 36 5F 30 34 
       34 2E 72 67 62 61 
       32 00             
044181 70 61 6E 65 6C 73 4866 F17_004: db "panels/17_004.rgba2",0
       2F 31 37 5F 30 30 
       34 2E 72 67 62 61 
       32 00             
044195 70 61 6E 65 6C 73 4867 F17_009: db "panels/17_009.rgba2",0
       2F 31 37 5F 30 30 
       39 2E 72 67 62 61 
       32 00             
0441A9 70 61 6E 65 6C 73 4868 F17_010: db "panels/17_010.rgba2",0
       2F 31 37 5F 30 31 
       30 2E 72 67 62 61 
       32 00             
0441BD 70 61 6E 65 6C 73 4869 F17_011: db "panels/17_011.rgba2",0
       2F 31 37 5F 30 31 
       31 2E 72 67 62 61 
       32 00             
0441D1 70 61 6E 65 6C 73 4870 F17_012: db "panels/17_012.rgba2",0
       2F 31 37 5F 30 31 
       32 2E 72 67 62 61 
       32 00             
0441E5 70 61 6E 65 6C 73 4871 F17_013: db "panels/17_013.rgba2",0
       2F 31 37 5F 30 31 
       33 2E 72 67 62 61 
       32 00             
0441F9 70 61 6E 65 6C 73 4872 F17_014: db "panels/17_014.rgba2",0
       2F 31 37 5F 30 31 
       34 2E 72 67 62 61 
       32 00             
04420D 70 61 6E 65 6C 73 4873 F17_015: db "panels/17_015.rgba2",0
       2F 31 37 5F 30 31 
       35 2E 72 67 62 61 
       32 00             
044221 70 61 6E 65 6C 73 4874 F17_016: db "panels/17_016.rgba2",0
       2F 31 37 5F 30 31 
       36 2E 72 67 62 61 
       32 00             
044235 70 61 6E 65 6C 73 4875 F17_020: db "panels/17_020.rgba2",0
       2F 31 37 5F 30 32 
       30 2E 72 67 62 61 
       32 00             
044249 70 61 6E 65 6C 73 4876 F17_024: db "panels/17_024.rgba2",0
       2F 31 37 5F 30 32 
       34 2E 72 67 62 61 
       32 00             
04425D 70 61 6E 65 6C 73 4877 F17_025: db "panels/17_025.rgba2",0
       2F 31 37 5F 30 32 
       35 2E 72 67 62 61 
       32 00             
044271 70 61 6E 65 6C 73 4878 F17_026: db "panels/17_026.rgba2",0
       2F 31 37 5F 30 32 
       36 2E 72 67 62 61 
       32 00             
044285 70 61 6E 65 6C 73 4879 F17_027: db "panels/17_027.rgba2",0
       2F 31 37 5F 30 32 
       37 2E 72 67 62 61 
       32 00             
044299 70 61 6E 65 6C 73 4880 F17_028: db "panels/17_028.rgba2",0
       2F 31 37 5F 30 32 
       38 2E 72 67 62 61 
       32 00             
0442AD 70 61 6E 65 6C 73 4881 F17_029: db "panels/17_029.rgba2",0
       2F 31 37 5F 30 32 
       39 2E 72 67 62 61 
       32 00             
0442C1 70 61 6E 65 6C 73 4882 F17_032: db "panels/17_032.rgba2",0
       2F 31 37 5F 30 33 
       32 2E 72 67 62 61 
       32 00             
0442D5 70 61 6E 65 6C 73 4883 F17_035: db "panels/17_035.rgba2",0
       2F 31 37 5F 30 33 
       35 2E 72 67 62 61 
       32 00             
0442E9 70 61 6E 65 6C 73 4884 F17_036: db "panels/17_036.rgba2",0
       2F 31 37 5F 30 33 
       36 2E 72 67 62 61 
       32 00             
0442FD 70 61 6E 65 6C 73 4885 F17_037: db "panels/17_037.rgba2",0
       2F 31 37 5F 30 33 
       37 2E 72 67 62 61 
       32 00             
044311 70 61 6E 65 6C 73 4886 F17_038: db "panels/17_038.rgba2",0
       2F 31 37 5F 30 33 
       38 2E 72 67 62 61 
       32 00             
044325 70 61 6E 65 6C 73 4887 F17_040: db "panels/17_040.rgba2",0
       2F 31 37 5F 30 34 
       30 2E 72 67 62 61 
       32 00             
044339 70 61 6E 65 6C 73 4888 F17_042: db "panels/17_042.rgba2",0
       2F 31 37 5F 30 34 
       32 2E 72 67 62 61 
       32 00             
04434D 70 61 6E 65 6C 73 4889 F17_043: db "panels/17_043.rgba2",0
       2F 31 37 5F 30 34 
       33 2E 72 67 62 61 
       32 00             
044361 70 61 6E 65 6C 73 4890 F17_044: db "panels/17_044.rgba2",0
       2F 31 37 5F 30 34 
       34 2E 72 67 62 61 
       32 00             
044375 70 61 6E 65 6C 73 4891 F57_004: db "panels/57_004.rgba2",0
       2F 35 37 5F 30 30 
       34 2E 72 67 62 61 
       32 00             
044389 70 61 6E 65 6C 73 4892 F57_009: db "panels/57_009.rgba2",0
       2F 35 37 5F 30 30 
       39 2E 72 67 62 61 
       32 00             
04439D 70 61 6E 65 6C 73 4893 F57_010: db "panels/57_010.rgba2",0
       2F 35 37 5F 30 31 
       30 2E 72 67 62 61 
       32 00             
0443B1 70 61 6E 65 6C 73 4894 F57_011: db "panels/57_011.rgba2",0
       2F 35 37 5F 30 31 
       31 2E 72 67 62 61 
       32 00             
0443C5 70 61 6E 65 6C 73 4895 F57_012: db "panels/57_012.rgba2",0
       2F 35 37 5F 30 31 
       32 2E 72 67 62 61 
       32 00             
0443D9 70 61 6E 65 6C 73 4896 F57_013: db "panels/57_013.rgba2",0
       2F 35 37 5F 30 31 
       33 2E 72 67 62 61 
       32 00             
0443ED 70 61 6E 65 6C 73 4897 F57_014: db "panels/57_014.rgba2",0
       2F 35 37 5F 30 31 
       34 2E 72 67 62 61 
       32 00             
044401 70 61 6E 65 6C 73 4898 F57_015: db "panels/57_015.rgba2",0
       2F 35 37 5F 30 31 
       35 2E 72 67 62 61 
       32 00             
044415 70 61 6E 65 6C 73 4899 F57_016: db "panels/57_016.rgba2",0
       2F 35 37 5F 30 31 
       36 2E 72 67 62 61 
       32 00             
044429 70 61 6E 65 6C 73 4900 F57_020: db "panels/57_020.rgba2",0
       2F 35 37 5F 30 32 
       30 2E 72 67 62 61 
       32 00             
04443D 70 61 6E 65 6C 73 4901 F57_024: db "panels/57_024.rgba2",0
       2F 35 37 5F 30 32 
       34 2E 72 67 62 61 
       32 00             
044451 70 61 6E 65 6C 73 4902 F57_025: db "panels/57_025.rgba2",0
       2F 35 37 5F 30 32 
       35 2E 72 67 62 61 
       32 00             
044465 70 61 6E 65 6C 73 4903 F57_026: db "panels/57_026.rgba2",0
       2F 35 37 5F 30 32 
       36 2E 72 67 62 61 
       32 00             
044479 70 61 6E 65 6C 73 4904 F57_027: db "panels/57_027.rgba2",0
       2F 35 37 5F 30 32 
       37 2E 72 67 62 61 
       32 00             
04448D 70 61 6E 65 6C 73 4905 F57_028: db "panels/57_028.rgba2",0
       2F 35 37 5F 30 32 
       38 2E 72 67 62 61 
       32 00             
0444A1 70 61 6E 65 6C 73 4906 F57_029: db "panels/57_029.rgba2",0
       2F 35 37 5F 30 32 
       39 2E 72 67 62 61 
       32 00             
0444B5 70 61 6E 65 6C 73 4907 F57_032: db "panels/57_032.rgba2",0
       2F 35 37 5F 30 33 
       32 2E 72 67 62 61 
       32 00             
0444C9 70 61 6E 65 6C 73 4908 F57_035: db "panels/57_035.rgba2",0
       2F 35 37 5F 30 33 
       35 2E 72 67 62 61 
       32 00             
0444DD 70 61 6E 65 6C 73 4909 F57_036: db "panels/57_036.rgba2",0
       2F 35 37 5F 30 33 
       36 2E 72 67 62 61 
       32 00             
0444F1 70 61 6E 65 6C 73 4910 F57_037: db "panels/57_037.rgba2",0
       2F 35 37 5F 30 33 
       37 2E 72 67 62 61 
       32 00             
044505 70 61 6E 65 6C 73 4911 F57_038: db "panels/57_038.rgba2",0
       2F 35 37 5F 30 33 
       38 2E 72 67 62 61 
       32 00             
044519 70 61 6E 65 6C 73 4912 F57_040: db "panels/57_040.rgba2",0
       2F 35 37 5F 30 34 
       30 2E 72 67 62 61 
       32 00             
04452D 70 61 6E 65 6C 73 4913 F57_042: db "panels/57_042.rgba2",0
       2F 35 37 5F 30 34 
       32 2E 72 67 62 61 
       32 00             
044541 70 61 6E 65 6C 73 4914 F57_043: db "panels/57_043.rgba2",0
       2F 35 37 5F 30 34 
       33 2E 72 67 62 61 
       32 00             
044555 70 61 6E 65 6C 73 4915 F57_044: db "panels/57_044.rgba2",0
       2F 35 37 5F 30 34 
       34 2E 72 67 62 61 
       32 00             
044569 70 61 6E 65 6C 73 4916 F58_004: db "panels/58_004.rgba2",0
       2F 35 38 5F 30 30 
       34 2E 72 67 62 61 
       32 00             
04457D 70 61 6E 65 6C 73 4917 F58_009: db "panels/58_009.rgba2",0
       2F 35 38 5F 30 30 
       39 2E 72 67 62 61 
       32 00             
044591 70 61 6E 65 6C 73 4918 F58_010: db "panels/58_010.rgba2",0
       2F 35 38 5F 30 31 
       30 2E 72 67 62 61 
       32 00             
0445A5 70 61 6E 65 6C 73 4919 F58_011: db "panels/58_011.rgba2",0
       2F 35 38 5F 30 31 
       31 2E 72 67 62 61 
       32 00             
0445B9 70 61 6E 65 6C 73 4920 F58_012: db "panels/58_012.rgba2",0
       2F 35 38 5F 30 31 
       32 2E 72 67 62 61 
       32 00             
0445CD 70 61 6E 65 6C 73 4921 F58_013: db "panels/58_013.rgba2",0
       2F 35 38 5F 30 31 
       33 2E 72 67 62 61 
       32 00             
0445E1 70 61 6E 65 6C 73 4922 F58_014: db "panels/58_014.rgba2",0
       2F 35 38 5F 30 31 
       34 2E 72 67 62 61 
       32 00             
0445F5 70 61 6E 65 6C 73 4923 F58_015: db "panels/58_015.rgba2",0
       2F 35 38 5F 30 31 
       35 2E 72 67 62 61 
       32 00             
044609 70 61 6E 65 6C 73 4924 F58_016: db "panels/58_016.rgba2",0
       2F 35 38 5F 30 31 
       36 2E 72 67 62 61 
       32 00             
04461D 70 61 6E 65 6C 73 4925 F58_020: db "panels/58_020.rgba2",0
       2F 35 38 5F 30 32 
       30 2E 72 67 62 61 
       32 00             
044631 70 61 6E 65 6C 73 4926 F58_024: db "panels/58_024.rgba2",0
       2F 35 38 5F 30 32 
       34 2E 72 67 62 61 
       32 00             
044645 70 61 6E 65 6C 73 4927 F58_025: db "panels/58_025.rgba2",0
       2F 35 38 5F 30 32 
       35 2E 72 67 62 61 
       32 00             
044659 70 61 6E 65 6C 73 4928 F58_026: db "panels/58_026.rgba2",0
       2F 35 38 5F 30 32 
       36 2E 72 67 62 61 
       32 00             
04466D 70 61 6E 65 6C 73 4929 F58_027: db "panels/58_027.rgba2",0
       2F 35 38 5F 30 32 
       37 2E 72 67 62 61 
       32 00             
044681 70 61 6E 65 6C 73 4930 F58_028: db "panels/58_028.rgba2",0
       2F 35 38 5F 30 32 
       38 2E 72 67 62 61 
       32 00             
044695 70 61 6E 65 6C 73 4931 F58_029: db "panels/58_029.rgba2",0
       2F 35 38 5F 30 32 
       39 2E 72 67 62 61 
       32 00             
0446A9 70 61 6E 65 6C 73 4932 F58_032: db "panels/58_032.rgba2",0
       2F 35 38 5F 30 33 
       32 2E 72 67 62 61 
       32 00             
0446BD 70 61 6E 65 6C 73 4933 F58_035: db "panels/58_035.rgba2",0
       2F 35 38 5F 30 33 
       35 2E 72 67 62 61 
       32 00             
0446D1 70 61 6E 65 6C 73 4934 F58_036: db "panels/58_036.rgba2",0
       2F 35 38 5F 30 33 
       36 2E 72 67 62 61 
       32 00             
0446E5 70 61 6E 65 6C 73 4935 F58_037: db "panels/58_037.rgba2",0
       2F 35 38 5F 30 33 
       37 2E 72 67 62 61 
       32 00             
0446F9 70 61 6E 65 6C 73 4936 F58_038: db "panels/58_038.rgba2",0
       2F 35 38 5F 30 33 
       38 2E 72 67 62 61 
       32 00             
04470D 70 61 6E 65 6C 73 4937 F58_040: db "panels/58_040.rgba2",0
       2F 35 38 5F 30 34 
       30 2E 72 67 62 61 
       32 00             
044721 70 61 6E 65 6C 73 4938 F58_042: db "panels/58_042.rgba2",0
       2F 35 38 5F 30 34 
       32 2E 72 67 62 61 
       32 00             
044735 70 61 6E 65 6C 73 4939 F58_043: db "panels/58_043.rgba2",0
       2F 35 38 5F 30 34 
       33 2E 72 67 62 61 
       32 00             
044749 70 61 6E 65 6C 73 4940 F58_044: db "panels/58_044.rgba2",0
       2F 35 38 5F 30 34 
       34 2E 72 67 62 61 
       32 00             
04475D 70 61 6E 65 6C 73 4941 F59_004: db "panels/59_004.rgba2",0
       2F 35 39 5F 30 30 
       34 2E 72 67 62 61 
       32 00             
044771 70 61 6E 65 6C 73 4942 F59_009: db "panels/59_009.rgba2",0
       2F 35 39 5F 30 30 
       39 2E 72 67 62 61 
       32 00             
044785 70 61 6E 65 6C 73 4943 F59_010: db "panels/59_010.rgba2",0
       2F 35 39 5F 30 31 
       30 2E 72 67 62 61 
       32 00             
044799 70 61 6E 65 6C 73 4944 F59_011: db "panels/59_011.rgba2",0
       2F 35 39 5F 30 31 
       31 2E 72 67 62 61 
       32 00             
0447AD 70 61 6E 65 6C 73 4945 F59_012: db "panels/59_012.rgba2",0
       2F 35 39 5F 30 31 
       32 2E 72 67 62 61 
       32 00             
0447C1 70 61 6E 65 6C 73 4946 F59_013: db "panels/59_013.rgba2",0
       2F 35 39 5F 30 31 
       33 2E 72 67 62 61 
       32 00             
0447D5 70 61 6E 65 6C 73 4947 F59_014: db "panels/59_014.rgba2",0
       2F 35 39 5F 30 31 
       34 2E 72 67 62 61 
       32 00             
0447E9 70 61 6E 65 6C 73 4948 F59_015: db "panels/59_015.rgba2",0
       2F 35 39 5F 30 31 
       35 2E 72 67 62 61 
       32 00             
0447FD 70 61 6E 65 6C 73 4949 F59_016: db "panels/59_016.rgba2",0
       2F 35 39 5F 30 31 
       36 2E 72 67 62 61 
       32 00             
044811 70 61 6E 65 6C 73 4950 F59_020: db "panels/59_020.rgba2",0
       2F 35 39 5F 30 32 
       30 2E 72 67 62 61 
       32 00             
044825 70 61 6E 65 6C 73 4951 F59_024: db "panels/59_024.rgba2",0
       2F 35 39 5F 30 32 
       34 2E 72 67 62 61 
       32 00             
044839 70 61 6E 65 6C 73 4952 F59_025: db "panels/59_025.rgba2",0
       2F 35 39 5F 30 32 
       35 2E 72 67 62 61 
       32 00             
04484D 70 61 6E 65 6C 73 4953 F59_026: db "panels/59_026.rgba2",0
       2F 35 39 5F 30 32 
       36 2E 72 67 62 61 
       32 00             
044861 70 61 6E 65 6C 73 4954 F59_027: db "panels/59_027.rgba2",0
       2F 35 39 5F 30 32 
       37 2E 72 67 62 61 
       32 00             
044875 70 61 6E 65 6C 73 4955 F59_028: db "panels/59_028.rgba2",0
       2F 35 39 5F 30 32 
       38 2E 72 67 62 61 
       32 00             
044889 70 61 6E 65 6C 73 4956 F59_029: db "panels/59_029.rgba2",0
       2F 35 39 5F 30 32 
       39 2E 72 67 62 61 
       32 00             
04489D 70 61 6E 65 6C 73 4957 F59_032: db "panels/59_032.rgba2",0
       2F 35 39 5F 30 33 
       32 2E 72 67 62 61 
       32 00             
0448B1 70 61 6E 65 6C 73 4958 F59_035: db "panels/59_035.rgba2",0
       2F 35 39 5F 30 33 
       35 2E 72 67 62 61 
       32 00             
0448C5 70 61 6E 65 6C 73 4959 F59_036: db "panels/59_036.rgba2",0
       2F 35 39 5F 30 33 
       36 2E 72 67 62 61 
       32 00             
0448D9 70 61 6E 65 6C 73 4960 F59_037: db "panels/59_037.rgba2",0
       2F 35 39 5F 30 33 
       37 2E 72 67 62 61 
       32 00             
0448ED 70 61 6E 65 6C 73 4961 F59_038: db "panels/59_038.rgba2",0
       2F 35 39 5F 30 33 
       38 2E 72 67 62 61 
       32 00             
044901 70 61 6E 65 6C 73 4962 F59_040: db "panels/59_040.rgba2",0
       2F 35 39 5F 30 34 
       30 2E 72 67 62 61 
       32 00             
044915 70 61 6E 65 6C 73 4963 F59_042: db "panels/59_042.rgba2",0
       2F 35 39 5F 30 34 
       32 2E 72 67 62 61 
       32 00             
044929 70 61 6E 65 6C 73 4964 F59_043: db "panels/59_043.rgba2",0
       2F 35 39 5F 30 34 
       33 2E 72 67 62 61 
       32 00             
04493D 70 61 6E 65 6C 73 4965 F59_044: db "panels/59_044.rgba2",0
       2F 35 39 5F 30 34 
       34 2E 72 67 62 61 
       32 00             
044951                   4966 
044951                   4967 ; sprite buffer ids:
044951                   4968 BUF_20_004: equ 0x0213
044951                   4969 BUF_20_020: equ 0x0214
044951                   4970 BUF_20_032: equ 0x0215
044951                   4971 BUF_20_040: equ 0x0216
044951                   4972 BUF_20_044: equ 0x0217
044951                   4973 BUF_21_004: equ 0x0218
044951                   4974 BUF_21_020: equ 0x0219
044951                   4975 BUF_21_032: equ 0x021A
044951                   4976 BUF_21_040: equ 0x021B
044951                   4977 BUF_21_044: equ 0x021C
044951                   4978 BUF_22_004: equ 0x021D
044951                   4979 BUF_22_020: equ 0x021E
044951                   4980 BUF_22_032: equ 0x021F
044951                   4981 BUF_22_040: equ 0x0220
044951                   4982 BUF_22_044: equ 0x0221
044951                   4983 BUF_23_004: equ 0x0222
044951                   4984 BUF_23_020: equ 0x0223
044951                   4985 BUF_23_032: equ 0x0224
044951                   4986 BUF_23_040: equ 0x0225
044951                   4987 BUF_23_044: equ 0x0226
044951                   4988 BUF_24_004: equ 0x0227
044951                   4989 BUF_24_020: equ 0x0228
044951                   4990 BUF_24_032: equ 0x0229
044951                   4991 BUF_24_040: equ 0x022A
044951                   4992 BUF_24_044: equ 0x022B
044951                   4993 BUF_40_004: equ 0x022C
044951                   4994 BUF_40_020: equ 0x022D
044951                   4995 BUF_40_032: equ 0x022E
044951                   4996 BUF_40_040: equ 0x022F
044951                   4997 BUF_40_044: equ 0x0230
044951                   4998 BUF_41_004: equ 0x0231
044951                   4999 BUF_41_020: equ 0x0232
044951                   5000 BUF_41_032: equ 0x0233
044951                   5001 BUF_41_040: equ 0x0234
044951                   5002 BUF_41_044: equ 0x0235
044951                   5003 BUF_42_004: equ 0x0236
044951                   5004 BUF_42_020: equ 0x0237
044951                   5005 BUF_42_032: equ 0x0238
044951                   5006 BUF_42_040: equ 0x0239
044951                   5007 BUF_42_044: equ 0x023A
044951                   5008 BUF_43_004: equ 0x023B
044951                   5009 BUF_43_020: equ 0x023C
044951                   5010 BUF_43_032: equ 0x023D
044951                   5011 BUF_43_040: equ 0x023E
044951                   5012 BUF_43_044: equ 0x023F
044951                   5013 BUF_44_004: equ 0x0240
044951                   5014 BUF_44_020: equ 0x0241
044951                   5015 BUF_44_032: equ 0x0242
044951                   5016 BUF_44_040: equ 0x0243
044951                   5017 BUF_44_044: equ 0x0244
044951                   5018 BUF_45_004: equ 0x0245
044951                   5019 BUF_45_020: equ 0x0246
044951                   5020 BUF_45_032: equ 0x0247
044951                   5021 BUF_45_040: equ 0x0248
044951                   5022 BUF_45_044: equ 0x0249
044951                   5023 BUF_46_004: equ 0x024A
044951                   5024 BUF_46_020: equ 0x024B
044951                   5025 BUF_46_032: equ 0x024C
044951                   5026 BUF_46_040: equ 0x024D
044951                   5027 BUF_46_044: equ 0x024E
044951                   5028 BUF_47_004: equ 0x024F
044951                   5029 BUF_47_020: equ 0x0250
044951                   5030 BUF_47_032: equ 0x0251
044951                   5031 BUF_47_040: equ 0x0252
044951                   5032 BUF_47_044: equ 0x0253
044951                   5033 BUF_48_004: equ 0x0254
044951                   5034 BUF_48_020: equ 0x0255
044951                   5035 BUF_48_032: equ 0x0256
044951                   5036 BUF_48_040: equ 0x0257
044951                   5037 BUF_48_044: equ 0x0258
044951                   5038 BUF_49_004: equ 0x0259
044951                   5039 BUF_49_020: equ 0x025A
044951                   5040 BUF_49_032: equ 0x025B
044951                   5041 BUF_49_040: equ 0x025C
044951                   5042 BUF_49_044: equ 0x025D
044951                   5043 BUF_50_004: equ 0x025E
044951                   5044 BUF_50_020: equ 0x025F
044951                   5045 BUF_50_032: equ 0x0260
044951                   5046 BUF_50_040: equ 0x0261
044951                   5047 BUF_50_044: equ 0x0262
044951                   5048 BUF_51_004: equ 0x0263
044951                   5049 BUF_51_020: equ 0x0264
044951                   5050 BUF_51_032: equ 0x0265
044951                   5051 BUF_51_040: equ 0x0266
044951                   5052 BUF_51_044: equ 0x0267
044951                   5053 BUF_52_004: equ 0x0268
044951                   5054 BUF_52_020: equ 0x0269
044951                   5055 BUF_52_032: equ 0x026A
044951                   5056 BUF_52_040: equ 0x026B
044951                   5057 BUF_52_044: equ 0x026C
044951                   5058 
044951                   5059 sprite_num_panels: equ 90
044951                   5060 
044951                   5061 ; sprite buffer id reverse lookup:
044951                   5062 sprite_buffer_id_lut:
044951 13 02 00          5063 	dl BUF_20_004
044954 14 02 00          5064 	dl BUF_20_020
044957 15 02 00          5065 	dl BUF_20_032
04495A 16 02 00          5066 	dl BUF_20_040
04495D 17 02 00          5067 	dl BUF_20_044
044960 18 02 00          5068 	dl BUF_21_004
044963 19 02 00          5069 	dl BUF_21_020
044966 1A 02 00          5070 	dl BUF_21_032
044969 1B 02 00          5071 	dl BUF_21_040
04496C 1C 02 00          5072 	dl BUF_21_044
04496F 1D 02 00          5073 	dl BUF_22_004
044972 1E 02 00          5074 	dl BUF_22_020
044975 1F 02 00          5075 	dl BUF_22_032
044978 20 02 00          5076 	dl BUF_22_040
04497B 21 02 00          5077 	dl BUF_22_044
04497E 22 02 00          5078 	dl BUF_23_004
044981 23 02 00          5079 	dl BUF_23_020
044984 24 02 00          5080 	dl BUF_23_032
044987 25 02 00          5081 	dl BUF_23_040
04498A 26 02 00          5082 	dl BUF_23_044
04498D 27 02 00          5083 	dl BUF_24_004
044990 28 02 00          5084 	dl BUF_24_020
044993 29 02 00          5085 	dl BUF_24_032
044996 2A 02 00          5086 	dl BUF_24_040
044999 2B 02 00          5087 	dl BUF_24_044
04499C 2C 02 00          5088 	dl BUF_40_004
04499F 2D 02 00          5089 	dl BUF_40_020
0449A2 2E 02 00          5090 	dl BUF_40_032
0449A5 2F 02 00          5091 	dl BUF_40_040
0449A8 30 02 00          5092 	dl BUF_40_044
0449AB 31 02 00          5093 	dl BUF_41_004
0449AE 32 02 00          5094 	dl BUF_41_020
0449B1 33 02 00          5095 	dl BUF_41_032
0449B4 34 02 00          5096 	dl BUF_41_040
0449B7 35 02 00          5097 	dl BUF_41_044
0449BA 36 02 00          5098 	dl BUF_42_004
0449BD 37 02 00          5099 	dl BUF_42_020
0449C0 38 02 00          5100 	dl BUF_42_032
0449C3 39 02 00          5101 	dl BUF_42_040
0449C6 3A 02 00          5102 	dl BUF_42_044
0449C9 3B 02 00          5103 	dl BUF_43_004
0449CC 3C 02 00          5104 	dl BUF_43_020
0449CF 3D 02 00          5105 	dl BUF_43_032
0449D2 3E 02 00          5106 	dl BUF_43_040
0449D5 3F 02 00          5107 	dl BUF_43_044
0449D8 40 02 00          5108 	dl BUF_44_004
0449DB 41 02 00          5109 	dl BUF_44_020
0449DE 42 02 00          5110 	dl BUF_44_032
0449E1 43 02 00          5111 	dl BUF_44_040
0449E4 44 02 00          5112 	dl BUF_44_044
0449E7 45 02 00          5113 	dl BUF_45_004
0449EA 46 02 00          5114 	dl BUF_45_020
0449ED 47 02 00          5115 	dl BUF_45_032
0449F0 48 02 00          5116 	dl BUF_45_040
0449F3 49 02 00          5117 	dl BUF_45_044
0449F6 4A 02 00          5118 	dl BUF_46_004
0449F9 4B 02 00          5119 	dl BUF_46_020
0449FC 4C 02 00          5120 	dl BUF_46_032
0449FF 4D 02 00          5121 	dl BUF_46_040
044A02 4E 02 00          5122 	dl BUF_46_044
044A05 4F 02 00          5123 	dl BUF_47_004
044A08 50 02 00          5124 	dl BUF_47_020
044A0B 51 02 00          5125 	dl BUF_47_032
044A0E 52 02 00          5126 	dl BUF_47_040
044A11 53 02 00          5127 	dl BUF_47_044
044A14 54 02 00          5128 	dl BUF_48_004
044A17 55 02 00          5129 	dl BUF_48_020
044A1A 56 02 00          5130 	dl BUF_48_032
044A1D 57 02 00          5131 	dl BUF_48_040
044A20 58 02 00          5132 	dl BUF_48_044
044A23 59 02 00          5133 	dl BUF_49_004
044A26 5A 02 00          5134 	dl BUF_49_020
044A29 5B 02 00          5135 	dl BUF_49_032
044A2C 5C 02 00          5136 	dl BUF_49_040
044A2F 5D 02 00          5137 	dl BUF_49_044
044A32 5E 02 00          5138 	dl BUF_50_004
044A35 5F 02 00          5139 	dl BUF_50_020
044A38 60 02 00          5140 	dl BUF_50_032
044A3B 61 02 00          5141 	dl BUF_50_040
044A3E 62 02 00          5142 	dl BUF_50_044
044A41 63 02 00          5143 	dl BUF_51_004
044A44 64 02 00          5144 	dl BUF_51_020
044A47 65 02 00          5145 	dl BUF_51_032
044A4A 66 02 00          5146 	dl BUF_51_040
044A4D 67 02 00          5147 	dl BUF_51_044
044A50 68 02 00          5148 	dl BUF_52_004
044A53 69 02 00          5149 	dl BUF_52_020
044A56 6A 02 00          5150 	dl BUF_52_032
044A59 6B 02 00          5151 	dl BUF_52_040
044A5C 6C 02 00          5152 	dl BUF_52_044
044A5F                   5153 
044A5F                   5154 ; sprite load routines jump table:
044A5F                   5155 sprite_load_panels_table:
044A5F 6D 4B 04          5156 	dl ld_20_004
044A62 97 4B 04          5157 	dl ld_20_020
044A65 C1 4B 04          5158 	dl ld_20_032
044A68 EB 4B 04          5159 	dl ld_20_040
044A6B 15 4C 04          5160 	dl ld_20_044
044A6E 3F 4C 04          5161 	dl ld_21_004
044A71 69 4C 04          5162 	dl ld_21_020
044A74 93 4C 04          5163 	dl ld_21_032
044A77 BD 4C 04          5164 	dl ld_21_040
044A7A E7 4C 04          5165 	dl ld_21_044
044A7D 11 4D 04          5166 	dl ld_22_004
044A80 3B 4D 04          5167 	dl ld_22_020
044A83 65 4D 04          5168 	dl ld_22_032
044A86 8F 4D 04          5169 	dl ld_22_040
044A89 B9 4D 04          5170 	dl ld_22_044
044A8C E3 4D 04          5171 	dl ld_23_004
044A8F 0D 4E 04          5172 	dl ld_23_020
044A92 37 4E 04          5173 	dl ld_23_032
044A95 61 4E 04          5174 	dl ld_23_040
044A98 8B 4E 04          5175 	dl ld_23_044
044A9B B5 4E 04          5176 	dl ld_24_004
044A9E DF 4E 04          5177 	dl ld_24_020
044AA1 09 4F 04          5178 	dl ld_24_032
044AA4 33 4F 04          5179 	dl ld_24_040
044AA7 5D 4F 04          5180 	dl ld_24_044
044AAA 87 4F 04          5181 	dl ld_40_004
044AAD B1 4F 04          5182 	dl ld_40_020
044AB0 DB 4F 04          5183 	dl ld_40_032
044AB3 05 50 04          5184 	dl ld_40_040
044AB6 2F 50 04          5185 	dl ld_40_044
044AB9 59 50 04          5186 	dl ld_41_004
044ABC 83 50 04          5187 	dl ld_41_020
044ABF AD 50 04          5188 	dl ld_41_032
044AC2 D7 50 04          5189 	dl ld_41_040
044AC5 01 51 04          5190 	dl ld_41_044
044AC8 2B 51 04          5191 	dl ld_42_004
044ACB 55 51 04          5192 	dl ld_42_020
044ACE 7F 51 04          5193 	dl ld_42_032
044AD1 A9 51 04          5194 	dl ld_42_040
044AD4 D3 51 04          5195 	dl ld_42_044
044AD7 FD 51 04          5196 	dl ld_43_004
044ADA 27 52 04          5197 	dl ld_43_020
044ADD 51 52 04          5198 	dl ld_43_032
044AE0 7B 52 04          5199 	dl ld_43_040
044AE3 A5 52 04          5200 	dl ld_43_044
044AE6 CF 52 04          5201 	dl ld_44_004
044AE9 F9 52 04          5202 	dl ld_44_020
044AEC 23 53 04          5203 	dl ld_44_032
044AEF 4D 53 04          5204 	dl ld_44_040
044AF2 77 53 04          5205 	dl ld_44_044
044AF5 A1 53 04          5206 	dl ld_45_004
044AF8 CB 53 04          5207 	dl ld_45_020
044AFB F5 53 04          5208 	dl ld_45_032
044AFE 1F 54 04          5209 	dl ld_45_040
044B01 49 54 04          5210 	dl ld_45_044
044B04 73 54 04          5211 	dl ld_46_004
044B07 9D 54 04          5212 	dl ld_46_020
044B0A C7 54 04          5213 	dl ld_46_032
044B0D F1 54 04          5214 	dl ld_46_040
044B10 1B 55 04          5215 	dl ld_46_044
044B13 45 55 04          5216 	dl ld_47_004
044B16 6F 55 04          5217 	dl ld_47_020
044B19 99 55 04          5218 	dl ld_47_032
044B1C C3 55 04          5219 	dl ld_47_040
044B1F ED 55 04          5220 	dl ld_47_044
044B22 17 56 04          5221 	dl ld_48_004
044B25 41 56 04          5222 	dl ld_48_020
044B28 6B 56 04          5223 	dl ld_48_032
044B2B 95 56 04          5224 	dl ld_48_040
044B2E BF 56 04          5225 	dl ld_48_044
044B31 E9 56 04          5226 	dl ld_49_004
044B34 13 57 04          5227 	dl ld_49_020
044B37 3D 57 04          5228 	dl ld_49_032
044B3A 67 57 04          5229 	dl ld_49_040
044B3D 91 57 04          5230 	dl ld_49_044
044B40 BB 57 04          5231 	dl ld_50_004
044B43 E5 57 04          5232 	dl ld_50_020
044B46 0F 58 04          5233 	dl ld_50_032
044B49 39 58 04          5234 	dl ld_50_040
044B4C 63 58 04          5235 	dl ld_50_044
044B4F 8D 58 04          5236 	dl ld_51_004
044B52 B7 58 04          5237 	dl ld_51_020
044B55 E1 58 04          5238 	dl ld_51_032
044B58 0B 59 04          5239 	dl ld_51_040
044B5B 35 59 04          5240 	dl ld_51_044
044B5E 5F 59 04          5241 	dl ld_52_004
044B61 89 59 04          5242 	dl ld_52_020
044B64 B3 59 04          5243 	dl ld_52_032
044B67 DD 59 04          5244 	dl ld_52_040
044B6A 07 5A 04          5245 	dl ld_52_044
044B6D                   5246 
044B6D                   5247 ; Import sprite .rgba2 bitmap files and load them into VDP buffers
044B6D                   5248 
044B6D                   5249 ld_20_004:
044B6D 21 31 5A 04       5250 	ld hl,F20_004
044B71 22 CD A5 04       5251 	ld (cur_filename),hl
044B75 11 AD A7 04       5252 	ld de,filedata
044B79 01 00 00 01       5253 	ld bc,65536
044B7D 3E 01             5254 	ld a,mos_load
044B7F 5B CF             5255 	RST.LIL 08h
044B81 21 13 02 00       5256 	ld hl,BUF_20_004
044B85 01 14 00 00       5257 	ld bc,20
044B89 11 14 00 00       5258 	ld de,20
044B8D DD 21 90 01 00    5259 	ld ix,400
044B92 CD 3E A7 04       5260 	call vdu_load_img
044B96 C9                5261 	ret
044B97                   5262 
044B97                   5263 ld_20_020:
044B97 21 45 5A 04       5264 	ld hl,F20_020
044B9B 22 CD A5 04       5265 	ld (cur_filename),hl
044B9F 11 AD A7 04       5266 	ld de,filedata
044BA3 01 00 00 01       5267 	ld bc,65536
044BA7 3E 01             5268 	ld a,mos_load
044BA9 5B CF             5269 	RST.LIL 08h
044BAB 21 14 02 00       5270 	ld hl,BUF_20_020
044BAF 01 19 00 00       5271 	ld bc,25
044BB3 11 1A 00 00       5272 	ld de,26
044BB7 DD 21 8A 02 00    5273 	ld ix,650
044BBC CD 3E A7 04       5274 	call vdu_load_img
044BC0 C9                5275 	ret
044BC1                   5276 
044BC1                   5277 ld_20_032:
044BC1 21 59 5A 04       5278 	ld hl,F20_032
044BC5 22 CD A5 04       5279 	ld (cur_filename),hl
044BC9 11 AD A7 04       5280 	ld de,filedata
044BCD 01 00 00 01       5281 	ld bc,65536
044BD1 3E 01             5282 	ld a,mos_load
044BD3 5B CF             5283 	RST.LIL 08h
044BD5 21 15 02 00       5284 	ld hl,BUF_20_032
044BD9 01 25 00 00       5285 	ld bc,37
044BDD 11 27 00 00       5286 	ld de,39
044BE1 DD 21 A3 05 00    5287 	ld ix,1443
044BE6 CD 3E A7 04       5288 	call vdu_load_img
044BEA C9                5289 	ret
044BEB                   5290 
044BEB                   5291 ld_20_040:
044BEB 21 6D 5A 04       5292 	ld hl,F20_040
044BEF 22 CD A5 04       5293 	ld (cur_filename),hl
044BF3 11 AD A7 04       5294 	ld de,filedata
044BF7 01 00 00 01       5295 	ld bc,65536
044BFB 3E 01             5296 	ld a,mos_load
044BFD 5B CF             5297 	RST.LIL 08h
044BFF 21 16 02 00       5298 	ld hl,BUF_20_040
044C03 01 3C 00 00       5299 	ld bc,60
044C07 11 40 00 00       5300 	ld de,64
044C0B DD 21 00 0F 00    5301 	ld ix,3840
044C10 CD 3E A7 04       5302 	call vdu_load_img
044C14 C9                5303 	ret
044C15                   5304 
044C15                   5305 ld_20_044:
044C15 21 81 5A 04       5306 	ld hl,F20_044
044C19 22 CD A5 04       5307 	ld (cur_filename),hl
044C1D 11 AD A7 04       5308 	ld de,filedata
044C21 01 00 00 01       5309 	ld bc,65536
044C25 3E 01             5310 	ld a,mos_load
044C27 5B CF             5311 	RST.LIL 08h
044C29 21 17 02 00       5312 	ld hl,BUF_20_044
044C2D 01 79 00 00       5313 	ld bc,121
044C31 11 73 00 00       5314 	ld de,115
044C35 DD 21 5B 36 00    5315 	ld ix,13915
044C3A CD 3E A7 04       5316 	call vdu_load_img
044C3E C9                5317 	ret
044C3F                   5318 
044C3F                   5319 ld_21_004:
044C3F 21 95 5A 04       5320 	ld hl,F21_004
044C43 22 CD A5 04       5321 	ld (cur_filename),hl
044C47 11 AD A7 04       5322 	ld de,filedata
044C4B 01 00 00 01       5323 	ld bc,65536
044C4F 3E 01             5324 	ld a,mos_load
044C51 5B CF             5325 	RST.LIL 08h
044C53 21 18 02 00       5326 	ld hl,BUF_21_004
044C57 01 10 00 00       5327 	ld bc,16
044C5B 11 11 00 00       5328 	ld de,17
044C5F DD 21 10 01 00    5329 	ld ix,272
044C64 CD 3E A7 04       5330 	call vdu_load_img
044C68 C9                5331 	ret
044C69                   5332 
044C69                   5333 ld_21_020:
044C69 21 A9 5A 04       5334 	ld hl,F21_020
044C6D 22 CD A5 04       5335 	ld (cur_filename),hl
044C71 11 AD A7 04       5336 	ld de,filedata
044C75 01 00 00 01       5337 	ld bc,65536
044C79 3E 01             5338 	ld a,mos_load
044C7B 5B CF             5339 	RST.LIL 08h
044C7D 21 19 02 00       5340 	ld hl,BUF_21_020
044C81 01 15 00 00       5341 	ld bc,21
044C85 11 16 00 00       5342 	ld de,22
044C89 DD 21 CE 01 00    5343 	ld ix,462
044C8E CD 3E A7 04       5344 	call vdu_load_img
044C92 C9                5345 	ret
044C93                   5346 
044C93                   5347 ld_21_032:
044C93 21 BD 5A 04       5348 	ld hl,F21_032
044C97 22 CD A5 04       5349 	ld (cur_filename),hl
044C9B 11 AD A7 04       5350 	ld de,filedata
044C9F 01 00 00 01       5351 	ld bc,65536
044CA3 3E 01             5352 	ld a,mos_load
044CA5 5B CF             5353 	RST.LIL 08h
044CA7 21 1A 02 00       5354 	ld hl,BUF_21_032
044CAB 01 1F 00 00       5355 	ld bc,31
044CAF 11 21 00 00       5356 	ld de,33
044CB3 DD 21 FF 03 00    5357 	ld ix,1023
044CB8 CD 3E A7 04       5358 	call vdu_load_img
044CBC C9                5359 	ret
044CBD                   5360 
044CBD                   5361 ld_21_040:
044CBD 21 D1 5A 04       5362 	ld hl,F21_040
044CC1 22 CD A5 04       5363 	ld (cur_filename),hl
044CC5 11 AD A7 04       5364 	ld de,filedata
044CC9 01 00 00 01       5365 	ld bc,65536
044CCD 3E 01             5366 	ld a,mos_load
044CCF 5B CF             5367 	RST.LIL 08h
044CD1 21 1B 02 00       5368 	ld hl,BUF_21_040
044CD5 01 32 00 00       5369 	ld bc,50
044CD9 11 36 00 00       5370 	ld de,54
044CDD DD 21 8C 0A 00    5371 	ld ix,2700
044CE2 CD 3E A7 04       5372 	call vdu_load_img
044CE6 C9                5373 	ret
044CE7                   5374 
044CE7                   5375 ld_21_044:
044CE7 21 E5 5A 04       5376 	ld hl,F21_044
044CEB 22 CD A5 04       5377 	ld (cur_filename),hl
044CEF 11 AD A7 04       5378 	ld de,filedata
044CF3 01 00 00 01       5379 	ld bc,65536
044CF7 3E 01             5380 	ld a,mos_load
044CF9 5B CF             5381 	RST.LIL 08h
044CFB 21 1C 02 00       5382 	ld hl,BUF_21_044
044CFF 01 97 00 00       5383 	ld bc,151
044D03 11 55 00 00       5384 	ld de,85
044D07 DD 21 23 32 00    5385 	ld ix,12835
044D0C CD 3E A7 04       5386 	call vdu_load_img
044D10 C9                5387 	ret
044D11                   5388 
044D11                   5389 ld_22_004:
044D11 21 F9 5A 04       5390 	ld hl,F22_004
044D15 22 CD A5 04       5391 	ld (cur_filename),hl
044D19 11 AD A7 04       5392 	ld de,filedata
044D1D 01 00 00 01       5393 	ld bc,65536
044D21 3E 01             5394 	ld a,mos_load
044D23 5B CF             5395 	RST.LIL 08h
044D25 21 1D 02 00       5396 	ld hl,BUF_22_004
044D29 01 11 00 00       5397 	ld bc,17
044D2D 11 0B 00 00       5398 	ld de,11
044D31 DD 21 BB 00 00    5399 	ld ix,187
044D36 CD 3E A7 04       5400 	call vdu_load_img
044D3A C9                5401 	ret
044D3B                   5402 
044D3B                   5403 ld_22_020:
044D3B 21 0D 5B 04       5404 	ld hl,F22_020
044D3F 22 CD A5 04       5405 	ld (cur_filename),hl
044D43 11 AD A7 04       5406 	ld de,filedata
044D47 01 00 00 01       5407 	ld bc,65536
044D4B 3E 01             5408 	ld a,mos_load
044D4D 5B CF             5409 	RST.LIL 08h
044D4F 21 1E 02 00       5410 	ld hl,BUF_22_020
044D53 01 16 00 00       5411 	ld bc,22
044D57 11 0E 00 00       5412 	ld de,14
044D5B DD 21 34 01 00    5413 	ld ix,308
044D60 CD 3E A7 04       5414 	call vdu_load_img
044D64 C9                5415 	ret
044D65                   5416 
044D65                   5417 ld_22_032:
044D65 21 21 5B 04       5418 	ld hl,F22_032
044D69 22 CD A5 04       5419 	ld (cur_filename),hl
044D6D 11 AD A7 04       5420 	ld de,filedata
044D71 01 00 00 01       5421 	ld bc,65536
044D75 3E 01             5422 	ld a,mos_load
044D77 5B CF             5423 	RST.LIL 08h
044D79 21 1F 02 00       5424 	ld hl,BUF_22_032
044D7D 01 1E 00 00       5425 	ld bc,30
044D81 11 16 00 00       5426 	ld de,22
044D85 DD 21 94 02 00    5427 	ld ix,660
044D8A CD 3E A7 04       5428 	call vdu_load_img
044D8E C9                5429 	ret
044D8F                   5430 
044D8F                   5431 ld_22_040:
044D8F 21 35 5B 04       5432 	ld hl,F22_040
044D93 22 CD A5 04       5433 	ld (cur_filename),hl
044D97 11 AD A7 04       5434 	ld de,filedata
044D9B 01 00 00 01       5435 	ld bc,65536
044D9F 3E 01             5436 	ld a,mos_load
044DA1 5B CF             5437 	RST.LIL 08h
044DA3 21 20 02 00       5438 	ld hl,BUF_22_040
044DA7 01 33 00 00       5439 	ld bc,51
044DAB 11 24 00 00       5440 	ld de,36
044DAF DD 21 2C 07 00    5441 	ld ix,1836
044DB4 CD 3E A7 04       5442 	call vdu_load_img
044DB8 C9                5443 	ret
044DB9                   5444 
044DB9                   5445 ld_22_044:
044DB9 21 49 5B 04       5446 	ld hl,F22_044
044DBD 22 CD A5 04       5447 	ld (cur_filename),hl
044DC1 11 AD A7 04       5448 	ld de,filedata
044DC5 01 00 00 01       5449 	ld bc,65536
044DC9 3E 01             5450 	ld a,mos_load
044DCB 5B CF             5451 	RST.LIL 08h
044DCD 21 21 02 00       5452 	ld hl,BUF_22_044
044DD1 01 96 00 00       5453 	ld bc,150
044DD5 11 1E 00 00       5454 	ld de,30
044DD9 DD 21 94 11 00    5455 	ld ix,4500
044DDE CD 3E A7 04       5456 	call vdu_load_img
044DE2 C9                5457 	ret
044DE3                   5458 
044DE3                   5459 ld_23_004:
044DE3 21 5D 5B 04       5460 	ld hl,F23_004
044DE7 22 CD A5 04       5461 	ld (cur_filename),hl
044DEB 11 AD A7 04       5462 	ld de,filedata
044DEF 01 00 00 01       5463 	ld bc,65536
044DF3 3E 01             5464 	ld a,mos_load
044DF5 5B CF             5465 	RST.LIL 08h
044DF7 21 22 02 00       5466 	ld hl,BUF_23_004
044DFB 01 15 00 00       5467 	ld bc,21
044DFF 11 09 00 00       5468 	ld de,9
044E03 DD 21 BD 00 00    5469 	ld ix,189
044E08 CD 3E A7 04       5470 	call vdu_load_img
044E0C C9                5471 	ret
044E0D                   5472 
044E0D                   5473 ld_23_020:
044E0D 21 71 5B 04       5474 	ld hl,F23_020
044E11 22 CD A5 04       5475 	ld (cur_filename),hl
044E15 11 AD A7 04       5476 	ld de,filedata
044E19 01 00 00 01       5477 	ld bc,65536
044E1D 3E 01             5478 	ld a,mos_load
044E1F 5B CF             5479 	RST.LIL 08h
044E21 21 23 02 00       5480 	ld hl,BUF_23_020
044E25 01 1A 00 00       5481 	ld bc,26
044E29 11 0C 00 00       5482 	ld de,12
044E2D DD 21 38 01 00    5483 	ld ix,312
044E32 CD 3E A7 04       5484 	call vdu_load_img
044E36 C9                5485 	ret
044E37                   5486 
044E37                   5487 ld_23_032:
044E37 21 85 5B 04       5488 	ld hl,F23_032
044E3B 22 CD A5 04       5489 	ld (cur_filename),hl
044E3F 11 AD A7 04       5490 	ld de,filedata
044E43 01 00 00 01       5491 	ld bc,65536
044E47 3E 01             5492 	ld a,mos_load
044E49 5B CF             5493 	RST.LIL 08h
044E4B 21 24 02 00       5494 	ld hl,BUF_23_032
044E4F 01 24 00 00       5495 	ld bc,36
044E53 11 11 00 00       5496 	ld de,17
044E57 DD 21 64 02 00    5497 	ld ix,612
044E5C CD 3E A7 04       5498 	call vdu_load_img
044E60 C9                5499 	ret
044E61                   5500 
044E61                   5501 ld_23_040:
044E61 21 99 5B 04       5502 	ld hl,F23_040
044E65 22 CD A5 04       5503 	ld (cur_filename),hl
044E69 11 AD A7 04       5504 	ld de,filedata
044E6D 01 00 00 01       5505 	ld bc,65536
044E71 3E 01             5506 	ld a,mos_load
044E73 5B CF             5507 	RST.LIL 08h
044E75 21 25 02 00       5508 	ld hl,BUF_23_040
044E79 01 3D 00 00       5509 	ld bc,61
044E7D 11 1B 00 00       5510 	ld de,27
044E81 DD 21 6F 06 00    5511 	ld ix,1647
044E86 CD 3E A7 04       5512 	call vdu_load_img
044E8A C9                5513 	ret
044E8B                   5514 
044E8B                   5515 ld_23_044:
044E8B 21 AD 5B 04       5516 	ld hl,F23_044
044E8F 22 CD A5 04       5517 	ld (cur_filename),hl
044E93 11 AD A7 04       5518 	ld de,filedata
044E97 01 00 00 01       5519 	ld bc,65536
044E9B 3E 01             5520 	ld a,mos_load
044E9D 5B CF             5521 	RST.LIL 08h
044E9F 21 26 02 00       5522 	ld hl,BUF_23_044
044EA3 01 B4 00 00       5523 	ld bc,180
044EA7 11 01 00 00       5524 	ld de,1
044EAB DD 21 B4 00 00    5525 	ld ix,180
044EB0 CD 3E A7 04       5526 	call vdu_load_img
044EB4 C9                5527 	ret
044EB5                   5528 
044EB5                   5529 ld_24_004:
044EB5 21 C1 5B 04       5530 	ld hl,F24_004
044EB9 22 CD A5 04       5531 	ld (cur_filename),hl
044EBD 11 AD A7 04       5532 	ld de,filedata
044EC1 01 00 00 01       5533 	ld bc,65536
044EC5 3E 01             5534 	ld a,mos_load
044EC7 5B CF             5535 	RST.LIL 08h
044EC9 21 27 02 00       5536 	ld hl,BUF_24_004
044ECD 01 10 00 00       5537 	ld bc,16
044ED1 11 11 00 00       5538 	ld de,17
044ED5 DD 21 10 01 00    5539 	ld ix,272
044EDA CD 3E A7 04       5540 	call vdu_load_img
044EDE C9                5541 	ret
044EDF                   5542 
044EDF                   5543 ld_24_020:
044EDF 21 D5 5B 04       5544 	ld hl,F24_020
044EE3 22 CD A5 04       5545 	ld (cur_filename),hl
044EE7 11 AD A7 04       5546 	ld de,filedata
044EEB 01 00 00 01       5547 	ld bc,65536
044EEF 3E 01             5548 	ld a,mos_load
044EF1 5B CF             5549 	RST.LIL 08h
044EF3 21 28 02 00       5550 	ld hl,BUF_24_020
044EF7 01 15 00 00       5551 	ld bc,21
044EFB 11 16 00 00       5552 	ld de,22
044EFF DD 21 CE 01 00    5553 	ld ix,462
044F04 CD 3E A7 04       5554 	call vdu_load_img
044F08 C9                5555 	ret
044F09                   5556 
044F09                   5557 ld_24_032:
044F09 21 E9 5B 04       5558 	ld hl,F24_032
044F0D 22 CD A5 04       5559 	ld (cur_filename),hl
044F11 11 AD A7 04       5560 	ld de,filedata
044F15 01 00 00 01       5561 	ld bc,65536
044F19 3E 01             5562 	ld a,mos_load
044F1B 5B CF             5563 	RST.LIL 08h
044F1D 21 29 02 00       5564 	ld hl,BUF_24_032
044F21 01 1F 00 00       5565 	ld bc,31
044F25 11 21 00 00       5566 	ld de,33
044F29 DD 21 FF 03 00    5567 	ld ix,1023
044F2E CD 3E A7 04       5568 	call vdu_load_img
044F32 C9                5569 	ret
044F33                   5570 
044F33                   5571 ld_24_040:
044F33 21 FD 5B 04       5572 	ld hl,F24_040
044F37 22 CD A5 04       5573 	ld (cur_filename),hl
044F3B 11 AD A7 04       5574 	ld de,filedata
044F3F 01 00 00 01       5575 	ld bc,65536
044F43 3E 01             5576 	ld a,mos_load
044F45 5B CF             5577 	RST.LIL 08h
044F47 21 2A 02 00       5578 	ld hl,BUF_24_040
044F4B 01 32 00 00       5579 	ld bc,50
044F4F 11 36 00 00       5580 	ld de,54
044F53 DD 21 8C 0A 00    5581 	ld ix,2700
044F58 CD 3E A7 04       5582 	call vdu_load_img
044F5C C9                5583 	ret
044F5D                   5584 
044F5D                   5585 ld_24_044:
044F5D 21 11 5C 04       5586 	ld hl,F24_044
044F61 22 CD A5 04       5587 	ld (cur_filename),hl
044F65 11 AD A7 04       5588 	ld de,filedata
044F69 01 00 00 01       5589 	ld bc,65536
044F6D 3E 01             5590 	ld a,mos_load
044F6F 5B CF             5591 	RST.LIL 08h
044F71 21 2B 02 00       5592 	ld hl,BUF_24_044
044F75 01 97 00 00       5593 	ld bc,151
044F79 11 55 00 00       5594 	ld de,85
044F7D DD 21 23 32 00    5595 	ld ix,12835
044F82 CD 3E A7 04       5596 	call vdu_load_img
044F86 C9                5597 	ret
044F87                   5598 
044F87                   5599 ld_40_004:
044F87 21 25 5C 04       5600 	ld hl,F40_004
044F8B 22 CD A5 04       5601 	ld (cur_filename),hl
044F8F 11 AD A7 04       5602 	ld de,filedata
044F93 01 00 00 01       5603 	ld bc,65536
044F97 3E 01             5604 	ld a,mos_load
044F99 5B CF             5605 	RST.LIL 08h
044F9B 21 2C 02 00       5606 	ld hl,BUF_40_004
044F9F 01 12 00 00       5607 	ld bc,18
044FA3 11 09 00 00       5608 	ld de,9
044FA7 DD 21 A2 00 00    5609 	ld ix,162
044FAC CD 3E A7 04       5610 	call vdu_load_img
044FB0 C9                5611 	ret
044FB1                   5612 
044FB1                   5613 ld_40_020:
044FB1 21 39 5C 04       5614 	ld hl,F40_020
044FB5 22 CD A5 04       5615 	ld (cur_filename),hl
044FB9 11 AD A7 04       5616 	ld de,filedata
044FBD 01 00 00 01       5617 	ld bc,65536
044FC1 3E 01             5618 	ld a,mos_load
044FC3 5B CF             5619 	RST.LIL 08h
044FC5 21 2D 02 00       5620 	ld hl,BUF_40_020
044FC9 01 17 00 00       5621 	ld bc,23
044FCD 11 0B 00 00       5622 	ld de,11
044FD1 DD 21 FD 00 00    5623 	ld ix,253
044FD6 CD 3E A7 04       5624 	call vdu_load_img
044FDA C9                5625 	ret
044FDB                   5626 
044FDB                   5627 ld_40_032:
044FDB 21 4D 5C 04       5628 	ld hl,F40_032
044FDF 22 CD A5 04       5629 	ld (cur_filename),hl
044FE3 11 AD A7 04       5630 	ld de,filedata
044FE7 01 00 00 01       5631 	ld bc,65536
044FEB 3E 01             5632 	ld a,mos_load
044FED 5B CF             5633 	RST.LIL 08h
044FEF 21 2E 02 00       5634 	ld hl,BUF_40_032
044FF3 01 20 00 00       5635 	ld bc,32
044FF7 11 12 00 00       5636 	ld de,18
044FFB DD 21 40 02 00    5637 	ld ix,576
045000 CD 3E A7 04       5638 	call vdu_load_img
045004 C9                5639 	ret
045005                   5640 
045005                   5641 ld_40_040:
045005 21 61 5C 04       5642 	ld hl,F40_040
045009 22 CD A5 04       5643 	ld (cur_filename),hl
04500D 11 AD A7 04       5644 	ld de,filedata
045011 01 00 00 01       5645 	ld bc,65536
045015 3E 01             5646 	ld a,mos_load
045017 5B CF             5647 	RST.LIL 08h
045019 21 2F 02 00       5648 	ld hl,BUF_40_040
04501D 01 36 00 00       5649 	ld bc,54
045021 11 1D 00 00       5650 	ld de,29
045025 DD 21 1E 06 00    5651 	ld ix,1566
04502A CD 3E A7 04       5652 	call vdu_load_img
04502E C9                5653 	ret
04502F                   5654 
04502F                   5655 ld_40_044:
04502F 21 75 5C 04       5656 	ld hl,F40_044
045033 22 CD A5 04       5657 	ld (cur_filename),hl
045037 11 AD A7 04       5658 	ld de,filedata
04503B 01 00 00 01       5659 	ld bc,65536
04503F 3E 01             5660 	ld a,mos_load
045041 5B CF             5661 	RST.LIL 08h
045043 21 30 02 00       5662 	ld hl,BUF_40_044
045047 01 5A 00 00       5663 	ld bc,90
04504B 11 0A 00 00       5664 	ld de,10
04504F DD 21 84 03 00    5665 	ld ix,900
045054 CD 3E A7 04       5666 	call vdu_load_img
045058 C9                5667 	ret
045059                   5668 
045059                   5669 ld_41_004:
045059 21 89 5C 04       5670 	ld hl,F41_004
04505D 22 CD A5 04       5671 	ld (cur_filename),hl
045061 11 AD A7 04       5672 	ld de,filedata
045065 01 00 00 01       5673 	ld bc,65536
045069 3E 01             5674 	ld a,mos_load
04506B 5B CF             5675 	RST.LIL 08h
04506D 21 31 02 00       5676 	ld hl,BUF_41_004
045071 01 12 00 00       5677 	ld bc,18
045075 11 0F 00 00       5678 	ld de,15
045079 DD 21 0E 01 00    5679 	ld ix,270
04507E CD 3E A7 04       5680 	call vdu_load_img
045082 C9                5681 	ret
045083                   5682 
045083                   5683 ld_41_020:
045083 21 9D 5C 04       5684 	ld hl,F41_020
045087 22 CD A5 04       5685 	ld (cur_filename),hl
04508B 11 AD A7 04       5686 	ld de,filedata
04508F 01 00 00 01       5687 	ld bc,65536
045093 3E 01             5688 	ld a,mos_load
045095 5B CF             5689 	RST.LIL 08h
045097 21 32 02 00       5690 	ld hl,BUF_41_020
04509B 01 17 00 00       5691 	ld bc,23
04509F 11 14 00 00       5692 	ld de,20
0450A3 DD 21 CC 01 00    5693 	ld ix,460
0450A8 CD 3E A7 04       5694 	call vdu_load_img
0450AC C9                5695 	ret
0450AD                   5696 
0450AD                   5697 ld_41_032:
0450AD 21 B1 5C 04       5698 	ld hl,F41_032
0450B1 22 CD A5 04       5699 	ld (cur_filename),hl
0450B5 11 AD A7 04       5700 	ld de,filedata
0450B9 01 00 00 01       5701 	ld bc,65536
0450BD 3E 01             5702 	ld a,mos_load
0450BF 5B CF             5703 	RST.LIL 08h
0450C1 21 33 02 00       5704 	ld hl,BUF_41_032
0450C5 01 20 00 00       5705 	ld bc,32
0450C9 11 1E 00 00       5706 	ld de,30
0450CD DD 21 C0 03 00    5707 	ld ix,960
0450D2 CD 3E A7 04       5708 	call vdu_load_img
0450D6 C9                5709 	ret
0450D7                   5710 
0450D7                   5711 ld_41_040:
0450D7 21 C5 5C 04       5712 	ld hl,F41_040
0450DB 22 CD A5 04       5713 	ld (cur_filename),hl
0450DF 11 AD A7 04       5714 	ld de,filedata
0450E3 01 00 00 01       5715 	ld bc,65536
0450E7 3E 01             5716 	ld a,mos_load
0450E9 5B CF             5717 	RST.LIL 08h
0450EB 21 34 02 00       5718 	ld hl,BUF_41_040
0450EF 01 36 00 00       5719 	ld bc,54
0450F3 11 31 00 00       5720 	ld de,49
0450F7 DD 21 56 0A 00    5721 	ld ix,2646
0450FC CD 3E A7 04       5722 	call vdu_load_img
045100 C9                5723 	ret
045101                   5724 
045101                   5725 ld_41_044:
045101 21 D9 5C 04       5726 	ld hl,F41_044
045105 22 CD A5 04       5727 	ld (cur_filename),hl
045109 11 AD A7 04       5728 	ld de,filedata
04510D 01 00 00 01       5729 	ld bc,65536
045111 3E 01             5730 	ld a,mos_load
045113 5B CF             5731 	RST.LIL 08h
045115 21 35 02 00       5732 	ld hl,BUF_41_044
045119 01 82 00 00       5733 	ld bc,130
04511D 11 46 00 00       5734 	ld de,70
045121 DD 21 8C 23 00    5735 	ld ix,9100
045126 CD 3E A7 04       5736 	call vdu_load_img
04512A C9                5737 	ret
04512B                   5738 
04512B                   5739 ld_42_004:
04512B 21 ED 5C 04       5740 	ld hl,F42_004
04512F 22 CD A5 04       5741 	ld (cur_filename),hl
045133 11 AD A7 04       5742 	ld de,filedata
045137 01 00 00 01       5743 	ld bc,65536
04513B 3E 01             5744 	ld a,mos_load
04513D 5B CF             5745 	RST.LIL 08h
04513F 21 36 02 00       5746 	ld hl,BUF_42_004
045143 01 0F 00 00       5747 	ld bc,15
045147 11 0C 00 00       5748 	ld de,12
04514B DD 21 B4 00 00    5749 	ld ix,180
045150 CD 3E A7 04       5750 	call vdu_load_img
045154 C9                5751 	ret
045155                   5752 
045155                   5753 ld_42_020:
045155 21 01 5D 04       5754 	ld hl,F42_020
045159 22 CD A5 04       5755 	ld (cur_filename),hl
04515D 11 AD A7 04       5756 	ld de,filedata
045161 01 00 00 01       5757 	ld bc,65536
045165 3E 01             5758 	ld a,mos_load
045167 5B CF             5759 	RST.LIL 08h
045169 21 37 02 00       5760 	ld hl,BUF_42_020
04516D 01 14 00 00       5761 	ld bc,20
045171 11 10 00 00       5762 	ld de,16
045175 DD 21 40 01 00    5763 	ld ix,320
04517A CD 3E A7 04       5764 	call vdu_load_img
04517E C9                5765 	ret
04517F                   5766 
04517F                   5767 ld_42_032:
04517F 21 15 5D 04       5768 	ld hl,F42_032
045183 22 CD A5 04       5769 	ld (cur_filename),hl
045187 11 AD A7 04       5770 	ld de,filedata
04518B 01 00 00 01       5771 	ld bc,65536
04518F 3E 01             5772 	ld a,mos_load
045191 5B CF             5773 	RST.LIL 08h
045193 21 38 02 00       5774 	ld hl,BUF_42_032
045197 01 1C 00 00       5775 	ld bc,28
04519B 11 18 00 00       5776 	ld de,24
04519F DD 21 A0 02 00    5777 	ld ix,672
0451A4 CD 3E A7 04       5778 	call vdu_load_img
0451A8 C9                5779 	ret
0451A9                   5780 
0451A9                   5781 ld_42_040:
0451A9 21 29 5D 04       5782 	ld hl,F42_040
0451AD 22 CD A5 04       5783 	ld (cur_filename),hl
0451B1 11 AD A7 04       5784 	ld de,filedata
0451B5 01 00 00 01       5785 	ld bc,65536
0451B9 3E 01             5786 	ld a,mos_load
0451BB 5B CF             5787 	RST.LIL 08h
0451BD 21 39 02 00       5788 	ld hl,BUF_42_040
0451C1 01 2F 00 00       5789 	ld bc,47
0451C5 11 27 00 00       5790 	ld de,39
0451C9 DD 21 29 07 00    5791 	ld ix,1833
0451CE CD 3E A7 04       5792 	call vdu_load_img
0451D2 C9                5793 	ret
0451D3                   5794 
0451D3                   5795 ld_42_044:
0451D3 21 3D 5D 04       5796 	ld hl,F42_044
0451D7 22 CD A5 04       5797 	ld (cur_filename),hl
0451DB 11 AD A7 04       5798 	ld de,filedata
0451DF 01 00 00 01       5799 	ld bc,65536
0451E3 3E 01             5800 	ld a,mos_load
0451E5 5B CF             5801 	RST.LIL 08h
0451E7 21 3A 02 00       5802 	ld hl,BUF_42_044
0451EB 01 64 00 00       5803 	ld bc,100
0451EF 11 28 00 00       5804 	ld de,40
0451F3 DD 21 A0 0F 00    5805 	ld ix,4000
0451F8 CD 3E A7 04       5806 	call vdu_load_img
0451FC C9                5807 	ret
0451FD                   5808 
0451FD                   5809 ld_43_004:
0451FD 21 51 5D 04       5810 	ld hl,F43_004
045201 22 CD A5 04       5811 	ld (cur_filename),hl
045205 11 AD A7 04       5812 	ld de,filedata
045209 01 00 00 01       5813 	ld bc,65536
04520D 3E 01             5814 	ld a,mos_load
04520F 5B CF             5815 	RST.LIL 08h
045211 21 3B 02 00       5816 	ld hl,BUF_43_004
045215 01 12 00 00       5817 	ld bc,18
045219 11 05 00 00       5818 	ld de,5
04521D DD 21 5A 00 00    5819 	ld ix,90
045222 CD 3E A7 04       5820 	call vdu_load_img
045226 C9                5821 	ret
045227                   5822 
045227                   5823 ld_43_020:
045227 21 65 5D 04       5824 	ld hl,F43_020
04522B 22 CD A5 04       5825 	ld (cur_filename),hl
04522F 11 AD A7 04       5826 	ld de,filedata
045233 01 00 00 01       5827 	ld bc,65536
045237 3E 01             5828 	ld a,mos_load
045239 5B CF             5829 	RST.LIL 08h
04523B 21 3C 02 00       5830 	ld hl,BUF_43_020
04523F 01 17 00 00       5831 	ld bc,23
045243 11 07 00 00       5832 	ld de,7
045247 DD 21 A1 00 00    5833 	ld ix,161
04524C CD 3E A7 04       5834 	call vdu_load_img
045250 C9                5835 	ret
045251                   5836 
045251                   5837 ld_43_032:
045251 21 79 5D 04       5838 	ld hl,F43_032
045255 22 CD A5 04       5839 	ld (cur_filename),hl
045259 11 AD A7 04       5840 	ld de,filedata
04525D 01 00 00 01       5841 	ld bc,65536
045261 3E 01             5842 	ld a,mos_load
045263 5B CF             5843 	RST.LIL 08h
045265 21 3D 02 00       5844 	ld hl,BUF_43_032
045269 01 20 00 00       5845 	ld bc,32
04526D 11 0C 00 00       5846 	ld de,12
045271 DD 21 80 01 00    5847 	ld ix,384
045276 CD 3E A7 04       5848 	call vdu_load_img
04527A C9                5849 	ret
04527B                   5850 
04527B                   5851 ld_43_040:
04527B 21 8D 5D 04       5852 	ld hl,F43_040
04527F 22 CD A5 04       5853 	ld (cur_filename),hl
045283 11 AD A7 04       5854 	ld de,filedata
045287 01 00 00 01       5855 	ld bc,65536
04528B 3E 01             5856 	ld a,mos_load
04528D 5B CF             5857 	RST.LIL 08h
04528F 21 3E 02 00       5858 	ld hl,BUF_43_040
045293 01 36 00 00       5859 	ld bc,54
045297 11 13 00 00       5860 	ld de,19
04529B DD 21 02 04 00    5861 	ld ix,1026
0452A0 CD 3E A7 04       5862 	call vdu_load_img
0452A4 C9                5863 	ret
0452A5                   5864 
0452A5                   5865 ld_43_044:
0452A5 21 A1 5D 04       5866 	ld hl,F43_044
0452A9 22 CD A5 04       5867 	ld (cur_filename),hl
0452AD 11 AD A7 04       5868 	ld de,filedata
0452B1 01 00 00 01       5869 	ld bc,65536
0452B5 3E 01             5870 	ld a,mos_load
0452B7 5B CF             5871 	RST.LIL 08h
0452B9 21 3F 02 00       5872 	ld hl,BUF_43_044
0452BD 01 01 00 00       5873 	ld bc,1
0452C1 11 01 00 00       5874 	ld de,1
0452C5 DD 21 01 00 00    5875 	ld ix,1
0452CA CD 3E A7 04       5876 	call vdu_load_img
0452CE C9                5877 	ret
0452CF                   5878 
0452CF                   5879 ld_44_004:
0452CF 21 B5 5D 04       5880 	ld hl,F44_004
0452D3 22 CD A5 04       5881 	ld (cur_filename),hl
0452D7 11 AD A7 04       5882 	ld de,filedata
0452DB 01 00 00 01       5883 	ld bc,65536
0452DF 3E 01             5884 	ld a,mos_load
0452E1 5B CF             5885 	RST.LIL 08h
0452E3 21 40 02 00       5886 	ld hl,BUF_44_004
0452E7 01 0D 00 00       5887 	ld bc,13
0452EB 11 0A 00 00       5888 	ld de,10
0452EF DD 21 82 00 00    5889 	ld ix,130
0452F4 CD 3E A7 04       5890 	call vdu_load_img
0452F8 C9                5891 	ret
0452F9                   5892 
0452F9                   5893 ld_44_020:
0452F9 21 C9 5D 04       5894 	ld hl,F44_020
0452FD 22 CD A5 04       5895 	ld (cur_filename),hl
045301 11 AD A7 04       5896 	ld de,filedata
045305 01 00 00 01       5897 	ld bc,65536
045309 3E 01             5898 	ld a,mos_load
04530B 5B CF             5899 	RST.LIL 08h
04530D 21 41 02 00       5900 	ld hl,BUF_44_020
045311 01 11 00 00       5901 	ld bc,17
045315 11 0D 00 00       5902 	ld de,13
045319 DD 21 DD 00 00    5903 	ld ix,221
04531E CD 3E A7 04       5904 	call vdu_load_img
045322 C9                5905 	ret
045323                   5906 
045323                   5907 ld_44_032:
045323 21 DD 5D 04       5908 	ld hl,F44_032
045327 22 CD A5 04       5909 	ld (cur_filename),hl
04532B 11 AD A7 04       5910 	ld de,filedata
04532F 01 00 00 01       5911 	ld bc,65536
045333 3E 01             5912 	ld a,mos_load
045335 5B CF             5913 	RST.LIL 08h
045337 21 42 02 00       5914 	ld hl,BUF_44_032
04533B 01 1A 00 00       5915 	ld bc,26
04533F 11 14 00 00       5916 	ld de,20
045343 DD 21 08 02 00    5917 	ld ix,520
045348 CD 3E A7 04       5918 	call vdu_load_img
04534C C9                5919 	ret
04534D                   5920 
04534D                   5921 ld_44_040:
04534D 21 F1 5D 04       5922 	ld hl,F44_040
045351 22 CD A5 04       5923 	ld (cur_filename),hl
045355 11 AD A7 04       5924 	ld de,filedata
045359 01 00 00 01       5925 	ld bc,65536
04535D 3E 01             5926 	ld a,mos_load
04535F 5B CF             5927 	RST.LIL 08h
045361 21 43 02 00       5928 	ld hl,BUF_44_040
045365 01 2B 00 00       5929 	ld bc,43
045369 11 20 00 00       5930 	ld de,32
04536D DD 21 60 05 00    5931 	ld ix,1376
045372 CD 3E A7 04       5932 	call vdu_load_img
045376 C9                5933 	ret
045377                   5934 
045377                   5935 ld_44_044:
045377 21 05 5E 04       5936 	ld hl,F44_044
04537B 22 CD A5 04       5937 	ld (cur_filename),hl
04537F 11 AD A7 04       5938 	ld de,filedata
045383 01 00 00 01       5939 	ld bc,65536
045387 3E 01             5940 	ld a,mos_load
045389 5B CF             5941 	RST.LIL 08h
04538B 21 44 02 00       5942 	ld hl,BUF_44_044
04538F 01 5A 00 00       5943 	ld bc,90
045393 11 14 00 00       5944 	ld de,20
045397 DD 21 08 07 00    5945 	ld ix,1800
04539C CD 3E A7 04       5946 	call vdu_load_img
0453A0 C9                5947 	ret
0453A1                   5948 
0453A1                   5949 ld_45_004:
0453A1 21 19 5E 04       5950 	ld hl,F45_004
0453A5 22 CD A5 04       5951 	ld (cur_filename),hl
0453A9 11 AD A7 04       5952 	ld de,filedata
0453AD 01 00 00 01       5953 	ld bc,65536
0453B1 3E 01             5954 	ld a,mos_load
0453B3 5B CF             5955 	RST.LIL 08h
0453B5 21 45 02 00       5956 	ld hl,BUF_45_004
0453B9 01 12 00 00       5957 	ld bc,18
0453BD 11 0B 00 00       5958 	ld de,11
0453C1 DD 21 C6 00 00    5959 	ld ix,198
0453C6 CD 3E A7 04       5960 	call vdu_load_img
0453CA C9                5961 	ret
0453CB                   5962 
0453CB                   5963 ld_45_020:
0453CB 21 2D 5E 04       5964 	ld hl,F45_020
0453CF 22 CD A5 04       5965 	ld (cur_filename),hl
0453D3 11 AD A7 04       5966 	ld de,filedata
0453D7 01 00 00 01       5967 	ld bc,65536
0453DB 3E 01             5968 	ld a,mos_load
0453DD 5B CF             5969 	RST.LIL 08h
0453DF 21 46 02 00       5970 	ld hl,BUF_45_020
0453E3 01 17 00 00       5971 	ld bc,23
0453E7 11 0E 00 00       5972 	ld de,14
0453EB DD 21 42 01 00    5973 	ld ix,322
0453F0 CD 3E A7 04       5974 	call vdu_load_img
0453F4 C9                5975 	ret
0453F5                   5976 
0453F5                   5977 ld_45_032:
0453F5 21 41 5E 04       5978 	ld hl,F45_032
0453F9 22 CD A5 04       5979 	ld (cur_filename),hl
0453FD 11 AD A7 04       5980 	ld de,filedata
045401 01 00 00 01       5981 	ld bc,65536
045405 3E 01             5982 	ld a,mos_load
045407 5B CF             5983 	RST.LIL 08h
045409 21 47 02 00       5984 	ld hl,BUF_45_032
04540D 01 20 00 00       5985 	ld bc,32
045411 11 16 00 00       5986 	ld de,22
045415 DD 21 C0 02 00    5987 	ld ix,704
04541A CD 3E A7 04       5988 	call vdu_load_img
04541E C9                5989 	ret
04541F                   5990 
04541F                   5991 ld_45_040:
04541F 21 55 5E 04       5992 	ld hl,F45_040
045423 22 CD A5 04       5993 	ld (cur_filename),hl
045427 11 AD A7 04       5994 	ld de,filedata
04542B 01 00 00 01       5995 	ld bc,65536
04542F 3E 01             5996 	ld a,mos_load
045431 5B CF             5997 	RST.LIL 08h
045433 21 48 02 00       5998 	ld hl,BUF_45_040
045437 01 36 00 00       5999 	ld bc,54
04543B 11 24 00 00       6000 	ld de,36
04543F DD 21 98 07 00    6001 	ld ix,1944
045444 CD 3E A7 04       6002 	call vdu_load_img
045448 C9                6003 	ret
045449                   6004 
045449                   6005 ld_45_044:
045449 21 69 5E 04       6006 	ld hl,F45_044
04544D 22 CD A5 04       6007 	ld (cur_filename),hl
045451 11 AD A7 04       6008 	ld de,filedata
045455 01 00 00 01       6009 	ld bc,65536
045459 3E 01             6010 	ld a,mos_load
04545B 5B CF             6011 	RST.LIL 08h
04545D 21 49 02 00       6012 	ld hl,BUF_45_044
045461 01 82 00 00       6013 	ld bc,130
045465 11 1E 00 00       6014 	ld de,30
045469 DD 21 3C 0F 00    6015 	ld ix,3900
04546E CD 3E A7 04       6016 	call vdu_load_img
045472 C9                6017 	ret
045473                   6018 
045473                   6019 ld_46_004:
045473 21 7D 5E 04       6020 	ld hl,F46_004
045477 22 CD A5 04       6021 	ld (cur_filename),hl
04547B 11 AD A7 04       6022 	ld de,filedata
04547F 01 00 00 01       6023 	ld bc,65536
045483 3E 01             6024 	ld a,mos_load
045485 5B CF             6025 	RST.LIL 08h
045487 21 4A 02 00       6026 	ld hl,BUF_46_004
04548B 01 12 00 00       6027 	ld bc,18
04548F 11 09 00 00       6028 	ld de,9
045493 DD 21 A2 00 00    6029 	ld ix,162
045498 CD 3E A7 04       6030 	call vdu_load_img
04549C C9                6031 	ret
04549D                   6032 
04549D                   6033 ld_46_020:
04549D 21 91 5E 04       6034 	ld hl,F46_020
0454A1 22 CD A5 04       6035 	ld (cur_filename),hl
0454A5 11 AD A7 04       6036 	ld de,filedata
0454A9 01 00 00 01       6037 	ld bc,65536
0454AD 3E 01             6038 	ld a,mos_load
0454AF 5B CF             6039 	RST.LIL 08h
0454B1 21 4B 02 00       6040 	ld hl,BUF_46_020
0454B5 01 17 00 00       6041 	ld bc,23
0454B9 11 0B 00 00       6042 	ld de,11
0454BD DD 21 FD 00 00    6043 	ld ix,253
0454C2 CD 3E A7 04       6044 	call vdu_load_img
0454C6 C9                6045 	ret
0454C7                   6046 
0454C7                   6047 ld_46_032:
0454C7 21 A5 5E 04       6048 	ld hl,F46_032
0454CB 22 CD A5 04       6049 	ld (cur_filename),hl
0454CF 11 AD A7 04       6050 	ld de,filedata
0454D3 01 00 00 01       6051 	ld bc,65536
0454D7 3E 01             6052 	ld a,mos_load
0454D9 5B CF             6053 	RST.LIL 08h
0454DB 21 4C 02 00       6054 	ld hl,BUF_46_032
0454DF 01 20 00 00       6055 	ld bc,32
0454E3 11 12 00 00       6056 	ld de,18
0454E7 DD 21 40 02 00    6057 	ld ix,576
0454EC CD 3E A7 04       6058 	call vdu_load_img
0454F0 C9                6059 	ret
0454F1                   6060 
0454F1                   6061 ld_46_040:
0454F1 21 B9 5E 04       6062 	ld hl,F46_040
0454F5 22 CD A5 04       6063 	ld (cur_filename),hl
0454F9 11 AD A7 04       6064 	ld de,filedata
0454FD 01 00 00 01       6065 	ld bc,65536
045501 3E 01             6066 	ld a,mos_load
045503 5B CF             6067 	RST.LIL 08h
045505 21 4D 02 00       6068 	ld hl,BUF_46_040
045509 01 36 00 00       6069 	ld bc,54
04550D 11 1D 00 00       6070 	ld de,29
045511 DD 21 1E 06 00    6071 	ld ix,1566
045516 CD 3E A7 04       6072 	call vdu_load_img
04551A C9                6073 	ret
04551B                   6074 
04551B                   6075 ld_46_044:
04551B 21 CD 5E 04       6076 	ld hl,F46_044
04551F 22 CD A5 04       6077 	ld (cur_filename),hl
045523 11 AD A7 04       6078 	ld de,filedata
045527 01 00 00 01       6079 	ld bc,65536
04552B 3E 01             6080 	ld a,mos_load
04552D 5B CF             6081 	RST.LIL 08h
04552F 21 4E 02 00       6082 	ld hl,BUF_46_044
045533 01 5A 00 00       6083 	ld bc,90
045537 11 0A 00 00       6084 	ld de,10
04553B DD 21 84 03 00    6085 	ld ix,900
045540 CD 3E A7 04       6086 	call vdu_load_img
045544 C9                6087 	ret
045545                   6088 
045545                   6089 ld_47_004:
045545 21 E1 5E 04       6090 	ld hl,F47_004
045549 22 CD A5 04       6091 	ld (cur_filename),hl
04554D 11 AD A7 04       6092 	ld de,filedata
045551 01 00 00 01       6093 	ld bc,65536
045555 3E 01             6094 	ld a,mos_load
045557 5B CF             6095 	RST.LIL 08h
045559 21 4F 02 00       6096 	ld hl,BUF_47_004
04555D 01 12 00 00       6097 	ld bc,18
045561 11 0A 00 00       6098 	ld de,10
045565 DD 21 B4 00 00    6099 	ld ix,180
04556A CD 3E A7 04       6100 	call vdu_load_img
04556E C9                6101 	ret
04556F                   6102 
04556F                   6103 ld_47_020:
04556F 21 F5 5E 04       6104 	ld hl,F47_020
045573 22 CD A5 04       6105 	ld (cur_filename),hl
045577 11 AD A7 04       6106 	ld de,filedata
04557B 01 00 00 01       6107 	ld bc,65536
04557F 3E 01             6108 	ld a,mos_load
045581 5B CF             6109 	RST.LIL 08h
045583 21 50 02 00       6110 	ld hl,BUF_47_020
045587 01 17 00 00       6111 	ld bc,23
04558B 11 0D 00 00       6112 	ld de,13
04558F DD 21 2B 01 00    6113 	ld ix,299
045594 CD 3E A7 04       6114 	call vdu_load_img
045598 C9                6115 	ret
045599                   6116 
045599                   6117 ld_47_032:
045599 21 09 5F 04       6118 	ld hl,F47_032
04559D 22 CD A5 04       6119 	ld (cur_filename),hl
0455A1 11 AD A7 04       6120 	ld de,filedata
0455A5 01 00 00 01       6121 	ld bc,65536
0455A9 3E 01             6122 	ld a,mos_load
0455AB 5B CF             6123 	RST.LIL 08h
0455AD 21 51 02 00       6124 	ld hl,BUF_47_032
0455B1 01 20 00 00       6125 	ld bc,32
0455B5 11 12 00 00       6126 	ld de,18
0455B9 DD 21 40 02 00    6127 	ld ix,576
0455BE CD 3E A7 04       6128 	call vdu_load_img
0455C2 C9                6129 	ret
0455C3                   6130 
0455C3                   6131 ld_47_040:
0455C3 21 1D 5F 04       6132 	ld hl,F47_040
0455C7 22 CD A5 04       6133 	ld (cur_filename),hl
0455CB 11 AD A7 04       6134 	ld de,filedata
0455CF 01 00 00 01       6135 	ld bc,65536
0455D3 3E 01             6136 	ld a,mos_load
0455D5 5B CF             6137 	RST.LIL 08h
0455D7 21 52 02 00       6138 	ld hl,BUF_47_040
0455DB 01 36 00 00       6139 	ld bc,54
0455DF 11 1E 00 00       6140 	ld de,30
0455E3 DD 21 54 06 00    6141 	ld ix,1620
0455E8 CD 3E A7 04       6142 	call vdu_load_img
0455EC C9                6143 	ret
0455ED                   6144 
0455ED                   6145 ld_47_044:
0455ED 21 31 5F 04       6146 	ld hl,F47_044
0455F1 22 CD A5 04       6147 	ld (cur_filename),hl
0455F5 11 AD A7 04       6148 	ld de,filedata
0455F9 01 00 00 01       6149 	ld bc,65536
0455FD 3E 01             6150 	ld a,mos_load
0455FF 5B CF             6151 	RST.LIL 08h
045601 21 53 02 00       6152 	ld hl,BUF_47_044
045605 01 1E 00 00       6153 	ld bc,30
045609 11 14 00 00       6154 	ld de,20
04560D DD 21 58 02 00    6155 	ld ix,600
045612 CD 3E A7 04       6156 	call vdu_load_img
045616 C9                6157 	ret
045617                   6158 
045617                   6159 ld_48_004:
045617 21 45 5F 04       6160 	ld hl,F48_004
04561B 22 CD A5 04       6161 	ld (cur_filename),hl
04561F 11 AD A7 04       6162 	ld de,filedata
045623 01 00 00 01       6163 	ld bc,65536
045627 3E 01             6164 	ld a,mos_load
045629 5B CF             6165 	RST.LIL 08h
04562B 21 54 02 00       6166 	ld hl,BUF_48_004
04562F 01 0D 00 00       6167 	ld bc,13
045633 11 05 00 00       6168 	ld de,5
045637 DD 21 41 00 00    6169 	ld ix,65
04563C CD 3E A7 04       6170 	call vdu_load_img
045640 C9                6171 	ret
045641                   6172 
045641                   6173 ld_48_020:
045641 21 59 5F 04       6174 	ld hl,F48_020
045645 22 CD A5 04       6175 	ld (cur_filename),hl
045649 11 AD A7 04       6176 	ld de,filedata
04564D 01 00 00 01       6177 	ld bc,65536
045651 3E 01             6178 	ld a,mos_load
045653 5B CF             6179 	RST.LIL 08h
045655 21 55 02 00       6180 	ld hl,BUF_48_020
045659 01 12 00 00       6181 	ld bc,18
04565D 11 07 00 00       6182 	ld de,7
045661 DD 21 7E 00 00    6183 	ld ix,126
045666 CD 3E A7 04       6184 	call vdu_load_img
04566A C9                6185 	ret
04566B                   6186 
04566B                   6187 ld_48_032:
04566B 21 6D 5F 04       6188 	ld hl,F48_032
04566F 22 CD A5 04       6189 	ld (cur_filename),hl
045673 11 AD A7 04       6190 	ld de,filedata
045677 01 00 00 01       6191 	ld bc,65536
04567B 3E 01             6192 	ld a,mos_load
04567D 5B CF             6193 	RST.LIL 08h
04567F 21 56 02 00       6194 	ld hl,BUF_48_032
045683 01 1A 00 00       6195 	ld bc,26
045687 11 0C 00 00       6196 	ld de,12
04568B DD 21 38 01 00    6197 	ld ix,312
045690 CD 3E A7 04       6198 	call vdu_load_img
045694 C9                6199 	ret
045695                   6200 
045695                   6201 ld_48_040:
045695 21 81 5F 04       6202 	ld hl,F48_040
045699 22 CD A5 04       6203 	ld (cur_filename),hl
04569D 11 AD A7 04       6204 	ld de,filedata
0456A1 01 00 00 01       6205 	ld bc,65536
0456A5 3E 01             6206 	ld a,mos_load
0456A7 5B CF             6207 	RST.LIL 08h
0456A9 21 57 02 00       6208 	ld hl,BUF_48_040
0456AD 01 2C 00 00       6209 	ld bc,44
0456B1 11 13 00 00       6210 	ld de,19
0456B5 DD 21 44 03 00    6211 	ld ix,836
0456BA CD 3E A7 04       6212 	call vdu_load_img
0456BE C9                6213 	ret
0456BF                   6214 
0456BF                   6215 ld_48_044:
0456BF 21 95 5F 04       6216 	ld hl,F48_044
0456C3 22 CD A5 04       6217 	ld (cur_filename),hl
0456C7 11 AD A7 04       6218 	ld de,filedata
0456CB 01 00 00 01       6219 	ld bc,65536
0456CF 3E 01             6220 	ld a,mos_load
0456D1 5B CF             6221 	RST.LIL 08h
0456D3 21 58 02 00       6222 	ld hl,BUF_48_044
0456D7 01 01 00 00       6223 	ld bc,1
0456DB 11 01 00 00       6224 	ld de,1
0456DF DD 21 01 00 00    6225 	ld ix,1
0456E4 CD 3E A7 04       6226 	call vdu_load_img
0456E8 C9                6227 	ret
0456E9                   6228 
0456E9                   6229 ld_49_004:
0456E9 21 A9 5F 04       6230 	ld hl,F49_004
0456ED 22 CD A5 04       6231 	ld (cur_filename),hl
0456F1 11 AD A7 04       6232 	ld de,filedata
0456F5 01 00 00 01       6233 	ld bc,65536
0456F9 3E 01             6234 	ld a,mos_load
0456FB 5B CF             6235 	RST.LIL 08h
0456FD 21 59 02 00       6236 	ld hl,BUF_49_004
045701 01 0F 00 00       6237 	ld bc,15
045705 11 07 00 00       6238 	ld de,7
045709 DD 21 69 00 00    6239 	ld ix,105
04570E CD 3E A7 04       6240 	call vdu_load_img
045712 C9                6241 	ret
045713                   6242 
045713                   6243 ld_49_020:
045713 21 BD 5F 04       6244 	ld hl,F49_020
045717 22 CD A5 04       6245 	ld (cur_filename),hl
04571B 11 AD A7 04       6246 	ld de,filedata
04571F 01 00 00 01       6247 	ld bc,65536
045723 3E 01             6248 	ld a,mos_load
045725 5B CF             6249 	RST.LIL 08h
045727 21 5A 02 00       6250 	ld hl,BUF_49_020
04572B 01 14 00 00       6251 	ld bc,20
04572F 11 09 00 00       6252 	ld de,9
045733 DD 21 B4 00 00    6253 	ld ix,180
045738 CD 3E A7 04       6254 	call vdu_load_img
04573C C9                6255 	ret
04573D                   6256 
04573D                   6257 ld_49_032:
04573D 21 D1 5F 04       6258 	ld hl,F49_032
045741 22 CD A5 04       6259 	ld (cur_filename),hl
045745 11 AD A7 04       6260 	ld de,filedata
045749 01 00 00 01       6261 	ld bc,65536
04574D 3E 01             6262 	ld a,mos_load
04574F 5B CF             6263 	RST.LIL 08h
045751 21 5B 02 00       6264 	ld hl,BUF_49_032
045755 01 1C 00 00       6265 	ld bc,28
045759 11 0C 00 00       6266 	ld de,12
04575D DD 21 50 01 00    6267 	ld ix,336
045762 CD 3E A7 04       6268 	call vdu_load_img
045766 C9                6269 	ret
045767                   6270 
045767                   6271 ld_49_040:
045767 21 E5 5F 04       6272 	ld hl,F49_040
04576B 22 CD A5 04       6273 	ld (cur_filename),hl
04576F 11 AD A7 04       6274 	ld de,filedata
045773 01 00 00 01       6275 	ld bc,65536
045777 3E 01             6276 	ld a,mos_load
045779 5B CF             6277 	RST.LIL 08h
04577B 21 5C 02 00       6278 	ld hl,BUF_49_040
04577F 01 2F 00 00       6279 	ld bc,47
045783 11 15 00 00       6280 	ld de,21
045787 DD 21 DB 03 00    6281 	ld ix,987
04578C CD 3E A7 04       6282 	call vdu_load_img
045790 C9                6283 	ret
045791                   6284 
045791                   6285 ld_49_044:
045791 21 F9 5F 04       6286 	ld hl,F49_044
045795 22 CD A5 04       6287 	ld (cur_filename),hl
045799 11 AD A7 04       6288 	ld de,filedata
04579D 01 00 00 01       6289 	ld bc,65536
0457A1 3E 01             6290 	ld a,mos_load
0457A3 5B CF             6291 	RST.LIL 08h
0457A5 21 5D 02 00       6292 	ld hl,BUF_49_044
0457A9 01 01 00 00       6293 	ld bc,1
0457AD 11 01 00 00       6294 	ld de,1
0457B1 DD 21 01 00 00    6295 	ld ix,1
0457B6 CD 3E A7 04       6296 	call vdu_load_img
0457BA C9                6297 	ret
0457BB                   6298 
0457BB                   6299 ld_50_004:
0457BB 21 0D 60 04       6300 	ld hl,F50_004
0457BF 22 CD A5 04       6301 	ld (cur_filename),hl
0457C3 11 AD A7 04       6302 	ld de,filedata
0457C7 01 00 00 01       6303 	ld bc,65536
0457CB 3E 01             6304 	ld a,mos_load
0457CD 5B CF             6305 	RST.LIL 08h
0457CF 21 5E 02 00       6306 	ld hl,BUF_50_004
0457D3 01 0A 00 00       6307 	ld bc,10
0457D7 11 0D 00 00       6308 	ld de,13
0457DB DD 21 82 00 00    6309 	ld ix,130
0457E0 CD 3E A7 04       6310 	call vdu_load_img
0457E4 C9                6311 	ret
0457E5                   6312 
0457E5                   6313 ld_50_020:
0457E5 21 21 60 04       6314 	ld hl,F50_020
0457E9 22 CD A5 04       6315 	ld (cur_filename),hl
0457ED 11 AD A7 04       6316 	ld de,filedata
0457F1 01 00 00 01       6317 	ld bc,65536
0457F5 3E 01             6318 	ld a,mos_load
0457F7 5B CF             6319 	RST.LIL 08h
0457F9 21 5F 02 00       6320 	ld hl,BUF_50_020
0457FD 01 0D 00 00       6321 	ld bc,13
045801 11 11 00 00       6322 	ld de,17
045805 DD 21 DD 00 00    6323 	ld ix,221
04580A CD 3E A7 04       6324 	call vdu_load_img
04580E C9                6325 	ret
04580F                   6326 
04580F                   6327 ld_50_032:
04580F 21 35 60 04       6328 	ld hl,F50_032
045813 22 CD A5 04       6329 	ld (cur_filename),hl
045817 11 AD A7 04       6330 	ld de,filedata
04581B 01 00 00 01       6331 	ld bc,65536
04581F 3E 01             6332 	ld a,mos_load
045821 5B CF             6333 	RST.LIL 08h
045823 21 60 02 00       6334 	ld hl,BUF_50_032
045827 01 12 00 00       6335 	ld bc,18
04582B 11 1A 00 00       6336 	ld de,26
04582F DD 21 D4 01 00    6337 	ld ix,468
045834 CD 3E A7 04       6338 	call vdu_load_img
045838 C9                6339 	ret
045839                   6340 
045839                   6341 ld_50_040:
045839 21 49 60 04       6342 	ld hl,F50_040
04583D 22 CD A5 04       6343 	ld (cur_filename),hl
045841 11 AD A7 04       6344 	ld de,filedata
045845 01 00 00 01       6345 	ld bc,65536
045849 3E 01             6346 	ld a,mos_load
04584B 5B CF             6347 	RST.LIL 08h
04584D 21 61 02 00       6348 	ld hl,BUF_50_040
045851 01 1E 00 00       6349 	ld bc,30
045855 11 2A 00 00       6350 	ld de,42
045859 DD 21 EC 04 00    6351 	ld ix,1260
04585E CD 3E A7 04       6352 	call vdu_load_img
045862 C9                6353 	ret
045863                   6354 
045863                   6355 ld_50_044:
045863 21 5D 60 04       6356 	ld hl,F50_044
045867 22 CD A5 04       6357 	ld (cur_filename),hl
04586B 11 AD A7 04       6358 	ld de,filedata
04586F 01 00 00 01       6359 	ld bc,65536
045873 3E 01             6360 	ld a,mos_load
045875 5B CF             6361 	RST.LIL 08h
045877 21 62 02 00       6362 	ld hl,BUF_50_044
04587B 01 46 00 00       6363 	ld bc,70
04587F 11 32 00 00       6364 	ld de,50
045883 DD 21 AC 0D 00    6365 	ld ix,3500
045888 CD 3E A7 04       6366 	call vdu_load_img
04588C C9                6367 	ret
04588D                   6368 
04588D                   6369 ld_51_004:
04588D 21 71 60 04       6370 	ld hl,F51_004
045891 22 CD A5 04       6371 	ld (cur_filename),hl
045895 11 AD A7 04       6372 	ld de,filedata
045899 01 00 00 01       6373 	ld bc,65536
04589D 3E 01             6374 	ld a,mos_load
04589F 5B CF             6375 	RST.LIL 08h
0458A1 21 63 02 00       6376 	ld hl,BUF_51_004
0458A5 01 12 00 00       6377 	ld bc,18
0458A9 11 1A 00 00       6378 	ld de,26
0458AD DD 21 D4 01 00    6379 	ld ix,468
0458B2 CD 3E A7 04       6380 	call vdu_load_img
0458B6 C9                6381 	ret
0458B7                   6382 
0458B7                   6383 ld_51_020:
0458B7 21 85 60 04       6384 	ld hl,F51_020
0458BB 22 CD A5 04       6385 	ld (cur_filename),hl
0458BF 11 AD A7 04       6386 	ld de,filedata
0458C3 01 00 00 01       6387 	ld bc,65536
0458C7 3E 01             6388 	ld a,mos_load
0458C9 5B CF             6389 	RST.LIL 08h
0458CB 21 64 02 00       6390 	ld hl,BUF_51_020
0458CF 01 17 00 00       6391 	ld bc,23
0458D3 11 21 00 00       6392 	ld de,33
0458D7 DD 21 F7 02 00    6393 	ld ix,759
0458DC CD 3E A7 04       6394 	call vdu_load_img
0458E0 C9                6395 	ret
0458E1                   6396 
0458E1                   6397 ld_51_032:
0458E1 21 99 60 04       6398 	ld hl,F51_032
0458E5 22 CD A5 04       6399 	ld (cur_filename),hl
0458E9 11 AD A7 04       6400 	ld de,filedata
0458ED 01 00 00 01       6401 	ld bc,65536
0458F1 3E 01             6402 	ld a,mos_load
0458F3 5B CF             6403 	RST.LIL 08h
0458F5 21 65 02 00       6404 	ld hl,BUF_51_032
0458F9 01 22 00 00       6405 	ld bc,34
0458FD 11 30 00 00       6406 	ld de,48
045901 DD 21 60 06 00    6407 	ld ix,1632
045906 CD 3E A7 04       6408 	call vdu_load_img
04590A C9                6409 	ret
04590B                   6410 
04590B                   6411 ld_51_040:
04590B 21 AD 60 04       6412 	ld hl,F51_040
04590F 22 CD A5 04       6413 	ld (cur_filename),hl
045913 11 AD A7 04       6414 	ld de,filedata
045917 01 00 00 01       6415 	ld bc,65536
04591B 3E 01             6416 	ld a,mos_load
04591D 5B CF             6417 	RST.LIL 08h
04591F 21 66 02 00       6418 	ld hl,BUF_51_040
045923 01 37 00 00       6419 	ld bc,55
045927 11 50 00 00       6420 	ld de,80
04592B DD 21 30 11 00    6421 	ld ix,4400
045930 CD 3E A7 04       6422 	call vdu_load_img
045934 C9                6423 	ret
045935                   6424 
045935                   6425 ld_51_044:
045935 21 C1 60 04       6426 	ld hl,F51_044
045939 22 CD A5 04       6427 	ld (cur_filename),hl
04593D 11 AD A7 04       6428 	ld de,filedata
045941 01 00 00 01       6429 	ld bc,65536
045945 3E 01             6430 	ld a,mos_load
045947 5B CF             6431 	RST.LIL 08h
045949 21 67 02 00       6432 	ld hl,BUF_51_044
04594D 01 A6 00 00       6433 	ld bc,166
045951 11 A0 00 00       6434 	ld de,160
045955 DD 21 C0 67 00    6435 	ld ix,26560
04595A CD 3E A7 04       6436 	call vdu_load_img
04595E C9                6437 	ret
04595F                   6438 
04595F                   6439 ld_52_004:
04595F 21 D5 60 04       6440 	ld hl,F52_004
045963 22 CD A5 04       6441 	ld (cur_filename),hl
045967 11 AD A7 04       6442 	ld de,filedata
04596B 01 00 00 01       6443 	ld bc,65536
04596F 3E 01             6444 	ld a,mos_load
045971 5B CF             6445 	RST.LIL 08h
045973 21 68 02 00       6446 	ld hl,BUF_52_004
045977 01 0F 00 00       6447 	ld bc,15
04597B 11 1A 00 00       6448 	ld de,26
04597F DD 21 86 01 00    6449 	ld ix,390
045984 CD 3E A7 04       6450 	call vdu_load_img
045988 C9                6451 	ret
045989                   6452 
045989                   6453 ld_52_020:
045989 21 E9 60 04       6454 	ld hl,F52_020
04598D 22 CD A5 04       6455 	ld (cur_filename),hl
045991 11 AD A7 04       6456 	ld de,filedata
045995 01 00 00 01       6457 	ld bc,65536
045999 3E 01             6458 	ld a,mos_load
04599B 5B CF             6459 	RST.LIL 08h
04599D 21 69 02 00       6460 	ld hl,BUF_52_020
0459A1 01 13 00 00       6461 	ld bc,19
0459A5 11 21 00 00       6462 	ld de,33
0459A9 DD 21 73 02 00    6463 	ld ix,627
0459AE CD 3E A7 04       6464 	call vdu_load_img
0459B2 C9                6465 	ret
0459B3                   6466 
0459B3                   6467 ld_52_032:
0459B3 21 FD 60 04       6468 	ld hl,F52_032
0459B7 22 CD A5 04       6469 	ld (cur_filename),hl
0459BB 11 AD A7 04       6470 	ld de,filedata
0459BF 01 00 00 01       6471 	ld bc,65536
0459C3 3E 01             6472 	ld a,mos_load
0459C5 5B CF             6473 	RST.LIL 08h
0459C7 21 6A 02 00       6474 	ld hl,BUF_52_032
0459CB 01 1C 00 00       6475 	ld bc,28
0459CF 11 30 00 00       6476 	ld de,48
0459D3 DD 21 40 05 00    6477 	ld ix,1344
0459D8 CD 3E A7 04       6478 	call vdu_load_img
0459DC C9                6479 	ret
0459DD                   6480 
0459DD                   6481 ld_52_040:
0459DD 21 11 61 04       6482 	ld hl,F52_040
0459E1 22 CD A5 04       6483 	ld (cur_filename),hl
0459E5 11 AD A7 04       6484 	ld de,filedata
0459E9 01 00 00 01       6485 	ld bc,65536
0459ED 3E 01             6486 	ld a,mos_load
0459EF 5B CF             6487 	RST.LIL 08h
0459F1 21 6B 02 00       6488 	ld hl,BUF_52_040
0459F5 01 2D 00 00       6489 	ld bc,45
0459F9 11 50 00 00       6490 	ld de,80
0459FD DD 21 10 0E 00    6491 	ld ix,3600
045A02 CD 3E A7 04       6492 	call vdu_load_img
045A06 C9                6493 	ret
045A07                   6494 
045A07                   6495 ld_52_044:
045A07 21 25 61 04       6496 	ld hl,F52_044
045A0B 22 CD A5 04       6497 	ld (cur_filename),hl
045A0F 11 AD A7 04       6498 	ld de,filedata
045A13 01 00 00 01       6499 	ld bc,65536
045A17 3E 01             6500 	ld a,mos_load
045A19 5B CF             6501 	RST.LIL 08h
045A1B 21 6C 02 00       6502 	ld hl,BUF_52_044
045A1F 01 88 00 00       6503 	ld bc,136
045A23 11 A0 00 00       6504 	ld de,160
045A27 DD 21 00 55 00    6505 	ld ix,21760
045A2C CD 3E A7 04       6506 	call vdu_load_img
045A30 C9                6507 	ret
045A31                   6508 
045A31                   6509 ; File name lookups:
045A31 70 61 6E 65 6C 73 6510 F20_004: db "panels/20_004.rgba2",0
       2F 32 30 5F 30 30 
       34 2E 72 67 62 61 
       32 00             
045A45 70 61 6E 65 6C 73 6511 F20_020: db "panels/20_020.rgba2",0
       2F 32 30 5F 30 32 
       30 2E 72 67 62 61 
       32 00             
045A59 70 61 6E 65 6C 73 6512 F20_032: db "panels/20_032.rgba2",0
       2F 32 30 5F 30 33 
       32 2E 72 67 62 61 
       32 00             
045A6D 70 61 6E 65 6C 73 6513 F20_040: db "panels/20_040.rgba2",0
       2F 32 30 5F 30 34 
       30 2E 72 67 62 61 
       32 00             
045A81 70 61 6E 65 6C 73 6514 F20_044: db "panels/20_044.rgba2",0
       2F 32 30 5F 30 34 
       34 2E 72 67 62 61 
       32 00             
045A95 70 61 6E 65 6C 73 6515 F21_004: db "panels/21_004.rgba2",0
       2F 32 31 5F 30 30 
       34 2E 72 67 62 61 
       32 00             
045AA9 70 61 6E 65 6C 73 6516 F21_020: db "panels/21_020.rgba2",0
       2F 32 31 5F 30 32 
       30 2E 72 67 62 61 
       32 00             
045ABD 70 61 6E 65 6C 73 6517 F21_032: db "panels/21_032.rgba2",0
       2F 32 31 5F 30 33 
       32 2E 72 67 62 61 
       32 00             
045AD1 70 61 6E 65 6C 73 6518 F21_040: db "panels/21_040.rgba2",0
       2F 32 31 5F 30 34 
       30 2E 72 67 62 61 
       32 00             
045AE5 70 61 6E 65 6C 73 6519 F21_044: db "panels/21_044.rgba2",0
       2F 32 31 5F 30 34 
       34 2E 72 67 62 61 
       32 00             
045AF9 70 61 6E 65 6C 73 6520 F22_004: db "panels/22_004.rgba2",0
       2F 32 32 5F 30 30 
       34 2E 72 67 62 61 
       32 00             
045B0D 70 61 6E 65 6C 73 6521 F22_020: db "panels/22_020.rgba2",0
       2F 32 32 5F 30 32 
       30 2E 72 67 62 61 
       32 00             
045B21 70 61 6E 65 6C 73 6522 F22_032: db "panels/22_032.rgba2",0
       2F 32 32 5F 30 33 
       32 2E 72 67 62 61 
       32 00             
045B35 70 61 6E 65 6C 73 6523 F22_040: db "panels/22_040.rgba2",0
       2F 32 32 5F 30 34 
       30 2E 72 67 62 61 
       32 00             
045B49 70 61 6E 65 6C 73 6524 F22_044: db "panels/22_044.rgba2",0
       2F 32 32 5F 30 34 
       34 2E 72 67 62 61 
       32 00             
045B5D 70 61 6E 65 6C 73 6525 F23_004: db "panels/23_004.rgba2",0
       2F 32 33 5F 30 30 
       34 2E 72 67 62 61 
       32 00             
045B71 70 61 6E 65 6C 73 6526 F23_020: db "panels/23_020.rgba2",0
       2F 32 33 5F 30 32 
       30 2E 72 67 62 61 
       32 00             
045B85 70 61 6E 65 6C 73 6527 F23_032: db "panels/23_032.rgba2",0
       2F 32 33 5F 30 33 
       32 2E 72 67 62 61 
       32 00             
045B99 70 61 6E 65 6C 73 6528 F23_040: db "panels/23_040.rgba2",0
       2F 32 33 5F 30 34 
       30 2E 72 67 62 61 
       32 00             
045BAD 70 61 6E 65 6C 73 6529 F23_044: db "panels/23_044.rgba2",0
       2F 32 33 5F 30 34 
       34 2E 72 67 62 61 
       32 00             
045BC1 70 61 6E 65 6C 73 6530 F24_004: db "panels/24_004.rgba2",0
       2F 32 34 5F 30 30 
       34 2E 72 67 62 61 
       32 00             
045BD5 70 61 6E 65 6C 73 6531 F24_020: db "panels/24_020.rgba2",0
       2F 32 34 5F 30 32 
       30 2E 72 67 62 61 
       32 00             
045BE9 70 61 6E 65 6C 73 6532 F24_032: db "panels/24_032.rgba2",0
       2F 32 34 5F 30 33 
       32 2E 72 67 62 61 
       32 00             
045BFD 70 61 6E 65 6C 73 6533 F24_040: db "panels/24_040.rgba2",0
       2F 32 34 5F 30 34 
       30 2E 72 67 62 61 
       32 00             
045C11 70 61 6E 65 6C 73 6534 F24_044: db "panels/24_044.rgba2",0
       2F 32 34 5F 30 34 
       34 2E 72 67 62 61 
       32 00             
045C25 70 61 6E 65 6C 73 6535 F40_004: db "panels/40_004.rgba2",0
       2F 34 30 5F 30 30 
       34 2E 72 67 62 61 
       32 00             
045C39 70 61 6E 65 6C 73 6536 F40_020: db "panels/40_020.rgba2",0
       2F 34 30 5F 30 32 
       30 2E 72 67 62 61 
       32 00             
045C4D 70 61 6E 65 6C 73 6537 F40_032: db "panels/40_032.rgba2",0
       2F 34 30 5F 30 33 
       32 2E 72 67 62 61 
       32 00             
045C61 70 61 6E 65 6C 73 6538 F40_040: db "panels/40_040.rgba2",0
       2F 34 30 5F 30 34 
       30 2E 72 67 62 61 
       32 00             
045C75 70 61 6E 65 6C 73 6539 F40_044: db "panels/40_044.rgba2",0
       2F 34 30 5F 30 34 
       34 2E 72 67 62 61 
       32 00             
045C89 70 61 6E 65 6C 73 6540 F41_004: db "panels/41_004.rgba2",0
       2F 34 31 5F 30 30 
       34 2E 72 67 62 61 
       32 00             
045C9D 70 61 6E 65 6C 73 6541 F41_020: db "panels/41_020.rgba2",0
       2F 34 31 5F 30 32 
       30 2E 72 67 62 61 
       32 00             
045CB1 70 61 6E 65 6C 73 6542 F41_032: db "panels/41_032.rgba2",0
       2F 34 31 5F 30 33 
       32 2E 72 67 62 61 
       32 00             
045CC5 70 61 6E 65 6C 73 6543 F41_040: db "panels/41_040.rgba2",0
       2F 34 31 5F 30 34 
       30 2E 72 67 62 61 
       32 00             
045CD9 70 61 6E 65 6C 73 6544 F41_044: db "panels/41_044.rgba2",0
       2F 34 31 5F 30 34 
       34 2E 72 67 62 61 
       32 00             
045CED 70 61 6E 65 6C 73 6545 F42_004: db "panels/42_004.rgba2",0
       2F 34 32 5F 30 30 
       34 2E 72 67 62 61 
       32 00             
045D01 70 61 6E 65 6C 73 6546 F42_020: db "panels/42_020.rgba2",0
       2F 34 32 5F 30 32 
       30 2E 72 67 62 61 
       32 00             
045D15 70 61 6E 65 6C 73 6547 F42_032: db "panels/42_032.rgba2",0
       2F 34 32 5F 30 33 
       32 2E 72 67 62 61 
       32 00             
045D29 70 61 6E 65 6C 73 6548 F42_040: db "panels/42_040.rgba2",0
       2F 34 32 5F 30 34 
       30 2E 72 67 62 61 
       32 00             
045D3D 70 61 6E 65 6C 73 6549 F42_044: db "panels/42_044.rgba2",0
       2F 34 32 5F 30 34 
       34 2E 72 67 62 61 
       32 00             
045D51 70 61 6E 65 6C 73 6550 F43_004: db "panels/43_004.rgba2",0
       2F 34 33 5F 30 30 
       34 2E 72 67 62 61 
       32 00             
045D65 70 61 6E 65 6C 73 6551 F43_020: db "panels/43_020.rgba2",0
       2F 34 33 5F 30 32 
       30 2E 72 67 62 61 
       32 00             
045D79 70 61 6E 65 6C 73 6552 F43_032: db "panels/43_032.rgba2",0
       2F 34 33 5F 30 33 
       32 2E 72 67 62 61 
       32 00             
045D8D 70 61 6E 65 6C 73 6553 F43_040: db "panels/43_040.rgba2",0
       2F 34 33 5F 30 34 
       30 2E 72 67 62 61 
       32 00             
045DA1 70 61 6E 65 6C 73 6554 F43_044: db "panels/43_044.rgba2",0
       2F 34 33 5F 30 34 
       34 2E 72 67 62 61 
       32 00             
045DB5 70 61 6E 65 6C 73 6555 F44_004: db "panels/44_004.rgba2",0
       2F 34 34 5F 30 30 
       34 2E 72 67 62 61 
       32 00             
045DC9 70 61 6E 65 6C 73 6556 F44_020: db "panels/44_020.rgba2",0
       2F 34 34 5F 30 32 
       30 2E 72 67 62 61 
       32 00             
045DDD 70 61 6E 65 6C 73 6557 F44_032: db "panels/44_032.rgba2",0
       2F 34 34 5F 30 33 
       32 2E 72 67 62 61 
       32 00             
045DF1 70 61 6E 65 6C 73 6558 F44_040: db "panels/44_040.rgba2",0
       2F 34 34 5F 30 34 
       30 2E 72 67 62 61 
       32 00             
045E05 70 61 6E 65 6C 73 6559 F44_044: db "panels/44_044.rgba2",0
       2F 34 34 5F 30 34 
       34 2E 72 67 62 61 
       32 00             
045E19 70 61 6E 65 6C 73 6560 F45_004: db "panels/45_004.rgba2",0
       2F 34 35 5F 30 30 
       34 2E 72 67 62 61 
       32 00             
045E2D 70 61 6E 65 6C 73 6561 F45_020: db "panels/45_020.rgba2",0
       2F 34 35 5F 30 32 
       30 2E 72 67 62 61 
       32 00             
045E41 70 61 6E 65 6C 73 6562 F45_032: db "panels/45_032.rgba2",0
       2F 34 35 5F 30 33 
       32 2E 72 67 62 61 
       32 00             
045E55 70 61 6E 65 6C 73 6563 F45_040: db "panels/45_040.rgba2",0
       2F 34 35 5F 30 34 
       30 2E 72 67 62 61 
       32 00             
045E69 70 61 6E 65 6C 73 6564 F45_044: db "panels/45_044.rgba2",0
       2F 34 35 5F 30 34 
       34 2E 72 67 62 61 
       32 00             
045E7D 70 61 6E 65 6C 73 6565 F46_004: db "panels/46_004.rgba2",0
       2F 34 36 5F 30 30 
       34 2E 72 67 62 61 
       32 00             
045E91 70 61 6E 65 6C 73 6566 F46_020: db "panels/46_020.rgba2",0
       2F 34 36 5F 30 32 
       30 2E 72 67 62 61 
       32 00             
045EA5 70 61 6E 65 6C 73 6567 F46_032: db "panels/46_032.rgba2",0
       2F 34 36 5F 30 33 
       32 2E 72 67 62 61 
       32 00             
045EB9 70 61 6E 65 6C 73 6568 F46_040: db "panels/46_040.rgba2",0
       2F 34 36 5F 30 34 
       30 2E 72 67 62 61 
       32 00             
045ECD 70 61 6E 65 6C 73 6569 F46_044: db "panels/46_044.rgba2",0
       2F 34 36 5F 30 34 
       34 2E 72 67 62 61 
       32 00             
045EE1 70 61 6E 65 6C 73 6570 F47_004: db "panels/47_004.rgba2",0
       2F 34 37 5F 30 30 
       34 2E 72 67 62 61 
       32 00             
045EF5 70 61 6E 65 6C 73 6571 F47_020: db "panels/47_020.rgba2",0
       2F 34 37 5F 30 32 
       30 2E 72 67 62 61 
       32 00             
045F09 70 61 6E 65 6C 73 6572 F47_032: db "panels/47_032.rgba2",0
       2F 34 37 5F 30 33 
       32 2E 72 67 62 61 
       32 00             
045F1D 70 61 6E 65 6C 73 6573 F47_040: db "panels/47_040.rgba2",0
       2F 34 37 5F 30 34 
       30 2E 72 67 62 61 
       32 00             
045F31 70 61 6E 65 6C 73 6574 F47_044: db "panels/47_044.rgba2",0
       2F 34 37 5F 30 34 
       34 2E 72 67 62 61 
       32 00             
045F45 70 61 6E 65 6C 73 6575 F48_004: db "panels/48_004.rgba2",0
       2F 34 38 5F 30 30 
       34 2E 72 67 62 61 
       32 00             
045F59 70 61 6E 65 6C 73 6576 F48_020: db "panels/48_020.rgba2",0
       2F 34 38 5F 30 32 
       30 2E 72 67 62 61 
       32 00             
045F6D 70 61 6E 65 6C 73 6577 F48_032: db "panels/48_032.rgba2",0
       2F 34 38 5F 30 33 
       32 2E 72 67 62 61 
       32 00             
045F81 70 61 6E 65 6C 73 6578 F48_040: db "panels/48_040.rgba2",0
       2F 34 38 5F 30 34 
       30 2E 72 67 62 61 
       32 00             
045F95 70 61 6E 65 6C 73 6579 F48_044: db "panels/48_044.rgba2",0
       2F 34 38 5F 30 34 
       34 2E 72 67 62 61 
       32 00             
045FA9 70 61 6E 65 6C 73 6580 F49_004: db "panels/49_004.rgba2",0
       2F 34 39 5F 30 30 
       34 2E 72 67 62 61 
       32 00             
045FBD 70 61 6E 65 6C 73 6581 F49_020: db "panels/49_020.rgba2",0
       2F 34 39 5F 30 32 
       30 2E 72 67 62 61 
       32 00             
045FD1 70 61 6E 65 6C 73 6582 F49_032: db "panels/49_032.rgba2",0
       2F 34 39 5F 30 33 
       32 2E 72 67 62 61 
       32 00             
045FE5 70 61 6E 65 6C 73 6583 F49_040: db "panels/49_040.rgba2",0
       2F 34 39 5F 30 34 
       30 2E 72 67 62 61 
       32 00             
045FF9 70 61 6E 65 6C 73 6584 F49_044: db "panels/49_044.rgba2",0
       2F 34 39 5F 30 34 
       34 2E 72 67 62 61 
       32 00             
04600D 70 61 6E 65 6C 73 6585 F50_004: db "panels/50_004.rgba2",0
       2F 35 30 5F 30 30 
       34 2E 72 67 62 61 
       32 00             
046021 70 61 6E 65 6C 73 6586 F50_020: db "panels/50_020.rgba2",0
       2F 35 30 5F 30 32 
       30 2E 72 67 62 61 
       32 00             
046035 70 61 6E 65 6C 73 6587 F50_032: db "panels/50_032.rgba2",0
       2F 35 30 5F 30 33 
       32 2E 72 67 62 61 
       32 00             
046049 70 61 6E 65 6C 73 6588 F50_040: db "panels/50_040.rgba2",0
       2F 35 30 5F 30 34 
       30 2E 72 67 62 61 
       32 00             
04605D 70 61 6E 65 6C 73 6589 F50_044: db "panels/50_044.rgba2",0
       2F 35 30 5F 30 34 
       34 2E 72 67 62 61 
       32 00             
046071 70 61 6E 65 6C 73 6590 F51_004: db "panels/51_004.rgba2",0
       2F 35 31 5F 30 30 
       34 2E 72 67 62 61 
       32 00             
046085 70 61 6E 65 6C 73 6591 F51_020: db "panels/51_020.rgba2",0
       2F 35 31 5F 30 32 
       30 2E 72 67 62 61 
       32 00             
046099 70 61 6E 65 6C 73 6592 F51_032: db "panels/51_032.rgba2",0
       2F 35 31 5F 30 33 
       32 2E 72 67 62 61 
       32 00             
0460AD 70 61 6E 65 6C 73 6593 F51_040: db "panels/51_040.rgba2",0
       2F 35 31 5F 30 34 
       30 2E 72 67 62 61 
       32 00             
0460C1 70 61 6E 65 6C 73 6594 F51_044: db "panels/51_044.rgba2",0
       2F 35 31 5F 30 34 
       34 2E 72 67 62 61 
       32 00             
0460D5 70 61 6E 65 6C 73 6595 F52_004: db "panels/52_004.rgba2",0
       2F 35 32 5F 30 30 
       34 2E 72 67 62 61 
       32 00             
0460E9 70 61 6E 65 6C 73 6596 F52_020: db "panels/52_020.rgba2",0
       2F 35 32 5F 30 32 
       30 2E 72 67 62 61 
       32 00             
0460FD 70 61 6E 65 6C 73 6597 F52_032: db "panels/52_032.rgba2",0
       2F 35 32 5F 30 33 
       32 2E 72 67 62 61 
       32 00             
046111 70 61 6E 65 6C 73 6598 F52_040: db "panels/52_040.rgba2",0
       2F 35 32 5F 30 34 
       30 2E 72 67 62 61 
       32 00             
046125 70 61 6E 65 6C 73 6599 F52_044: db "panels/52_044.rgba2",0
       2F 35 32 5F 30 34 
       34 2E 72 67 62 61 
       32 00             
046139                   6600 
046139                   6601 ; dws buffer ids:
046139                   6602 BUF_DW_6: equ 0x026D
046139                   6603 BUF_DW_7: equ 0x026E
046139                   6604 BUF_DW_8: equ 0x026F
046139                   6605 BUF_DW_9: equ 0x0270
046139                   6606 BUF_DW_10: equ 0x0271
046139                   6607 BUF_DW_11: equ 0x0272
046139                   6608 BUF_DW_12: equ 0x0273
046139                   6609 BUF_DW_13: equ 0x0274
046139                   6610 BUF_DW_14: equ 0x0275
046139                   6611 
046139                   6612 dws_num_panels: equ 9
046139                   6613 
046139                   6614 ; dws buffer id reverse lookup:
046139                   6615 dws_buffer_id_lut:
046139 6D 02 00          6616 	dl BUF_DW_6
04613C 6E 02 00          6617 	dl BUF_DW_7
04613F 6F 02 00          6618 	dl BUF_DW_8
046142 70 02 00          6619 	dl BUF_DW_9
046145 71 02 00          6620 	dl BUF_DW_10
046148 72 02 00          6621 	dl BUF_DW_11
04614B 73 02 00          6622 	dl BUF_DW_12
04614E 74 02 00          6623 	dl BUF_DW_13
046151 75 02 00          6624 	dl BUF_DW_14
046154                   6625 
046154                   6626 ; dws load routines jump table:
046154                   6627 dws_load_panels_table:
046154 6F 61 04          6628 	dl ld_dw_6
046157 99 61 04          6629 	dl ld_dw_7
04615A C3 61 04          6630 	dl ld_dw_8
04615D ED 61 04          6631 	dl ld_dw_9
046160 17 62 04          6632 	dl ld_dw_10
046163 41 62 04          6633 	dl ld_dw_11
046166 6B 62 04          6634 	dl ld_dw_12
046169 95 62 04          6635 	dl ld_dw_13
04616C BF 62 04          6636 	dl ld_dw_14
04616F                   6637 
04616F                   6638 ; Import dws .rgba2 bitmap files and load them into VDP buffers
04616F                   6639 
04616F                   6640 ld_dw_6:
04616F 21 E9 62 04       6641 	ld hl,Fdw_6
046173 22 CD A5 04       6642 	ld (cur_filename),hl
046177 11 AD A7 04       6643 	ld de,filedata
04617B 01 00 00 01       6644 	ld bc,65536
04617F 3E 01             6645 	ld a,mos_load
046181 5B CF             6646 	RST.LIL 08h
046183 21 6D 02 00       6647 	ld hl,BUF_DW_6
046187 01 40 01 00       6648 	ld bc,320
04618B 11 1E 00 00       6649 	ld de,30
04618F DD 21 80 25 00    6650 	ld ix,9600
046194 CD 3E A7 04       6651 	call vdu_load_img
046198 C9                6652 	ret
046199                   6653 
046199                   6654 ld_dw_7:
046199 21 F8 62 04       6655 	ld hl,Fdw_7
04619D 22 CD A5 04       6656 	ld (cur_filename),hl
0461A1 11 AD A7 04       6657 	ld de,filedata
0461A5 01 00 00 01       6658 	ld bc,65536
0461A9 3E 01             6659 	ld a,mos_load
0461AB 5B CF             6660 	RST.LIL 08h
0461AD 21 6E 02 00       6661 	ld hl,BUF_DW_7
0461B1 01 40 01 00       6662 	ld bc,320
0461B5 11 18 00 00       6663 	ld de,24
0461B9 DD 21 00 1E 00    6664 	ld ix,7680
0461BE CD 3E A7 04       6665 	call vdu_load_img
0461C2 C9                6666 	ret
0461C3                   6667 
0461C3                   6668 ld_dw_8:
0461C3 21 07 63 04       6669 	ld hl,Fdw_8
0461C7 22 CD A5 04       6670 	ld (cur_filename),hl
0461CB 11 AD A7 04       6671 	ld de,filedata
0461CF 01 00 00 01       6672 	ld bc,65536
0461D3 3E 01             6673 	ld a,mos_load
0461D5 5B CF             6674 	RST.LIL 08h
0461D7 21 6F 02 00       6675 	ld hl,BUF_DW_8
0461DB 01 40 01 00       6676 	ld bc,320
0461DF 11 12 00 00       6677 	ld de,18
0461E3 DD 21 80 16 00    6678 	ld ix,5760
0461E8 CD 3E A7 04       6679 	call vdu_load_img
0461EC C9                6680 	ret
0461ED                   6681 
0461ED                   6682 ld_dw_9:
0461ED 21 16 63 04       6683 	ld hl,Fdw_9
0461F1 22 CD A5 04       6684 	ld (cur_filename),hl
0461F5 11 AD A7 04       6685 	ld de,filedata
0461F9 01 00 00 01       6686 	ld bc,65536
0461FD 3E 01             6687 	ld a,mos_load
0461FF 5B CF             6688 	RST.LIL 08h
046201 21 70 02 00       6689 	ld hl,BUF_DW_9
046205 01 40 01 00       6690 	ld bc,320
046209 11 10 00 00       6691 	ld de,16
04620D DD 21 00 14 00    6692 	ld ix,5120
046212 CD 3E A7 04       6693 	call vdu_load_img
046216 C9                6694 	ret
046217                   6695 
046217                   6696 ld_dw_10:
046217 21 25 63 04       6697 	ld hl,Fdw_10
04621B 22 CD A5 04       6698 	ld (cur_filename),hl
04621F 11 AD A7 04       6699 	ld de,filedata
046223 01 00 00 01       6700 	ld bc,65536
046227 3E 01             6701 	ld a,mos_load
046229 5B CF             6702 	RST.LIL 08h
04622B 21 71 02 00       6703 	ld hl,BUF_DW_10
04622F 01 40 01 00       6704 	ld bc,320
046233 11 10 00 00       6705 	ld de,16
046237 DD 21 00 14 00    6706 	ld ix,5120
04623C CD 3E A7 04       6707 	call vdu_load_img
046240 C9                6708 	ret
046241                   6709 
046241                   6710 ld_dw_11:
046241 21 35 63 04       6711 	ld hl,Fdw_11
046245 22 CD A5 04       6712 	ld (cur_filename),hl
046249 11 AD A7 04       6713 	ld de,filedata
04624D 01 00 00 01       6714 	ld bc,65536
046251 3E 01             6715 	ld a,mos_load
046253 5B CF             6716 	RST.LIL 08h
046255 21 72 02 00       6717 	ld hl,BUF_DW_11
046259 01 40 01 00       6718 	ld bc,320
04625D 11 0E 00 00       6719 	ld de,14
046261 DD 21 80 11 00    6720 	ld ix,4480
046266 CD 3E A7 04       6721 	call vdu_load_img
04626A C9                6722 	ret
04626B                   6723 
04626B                   6724 ld_dw_12:
04626B 21 45 63 04       6725 	ld hl,Fdw_12
04626F 22 CD A5 04       6726 	ld (cur_filename),hl
046273 11 AD A7 04       6727 	ld de,filedata
046277 01 00 00 01       6728 	ld bc,65536
04627B 3E 01             6729 	ld a,mos_load
04627D 5B CF             6730 	RST.LIL 08h
04627F 21 73 02 00       6731 	ld hl,BUF_DW_12
046283 01 40 01 00       6732 	ld bc,320
046287 11 0C 00 00       6733 	ld de,12
04628B DD 21 00 0F 00    6734 	ld ix,3840
046290 CD 3E A7 04       6735 	call vdu_load_img
046294 C9                6736 	ret
046295                   6737 
046295                   6738 ld_dw_13:
046295 21 55 63 04       6739 	ld hl,Fdw_13
046299 22 CD A5 04       6740 	ld (cur_filename),hl
04629D 11 AD A7 04       6741 	ld de,filedata
0462A1 01 00 00 01       6742 	ld bc,65536
0462A5 3E 01             6743 	ld a,mos_load
0462A7 5B CF             6744 	RST.LIL 08h
0462A9 21 74 02 00       6745 	ld hl,BUF_DW_13
0462AD 01 40 01 00       6746 	ld bc,320
0462B1 11 0C 00 00       6747 	ld de,12
0462B5 DD 21 00 0F 00    6748 	ld ix,3840
0462BA CD 3E A7 04       6749 	call vdu_load_img
0462BE C9                6750 	ret
0462BF                   6751 
0462BF                   6752 ld_dw_14:
0462BF 21 65 63 04       6753 	ld hl,Fdw_14
0462C3 22 CD A5 04       6754 	ld (cur_filename),hl
0462C7 11 AD A7 04       6755 	ld de,filedata
0462CB 01 00 00 01       6756 	ld bc,65536
0462CF 3E 01             6757 	ld a,mos_load
0462D1 5B CF             6758 	RST.LIL 08h
0462D3 21 75 02 00       6759 	ld hl,BUF_DW_14
0462D7 01 40 01 00       6760 	ld bc,320
0462DB 11 0C 00 00       6761 	ld de,12
0462DF DD 21 00 0F 00    6762 	ld ix,3840
0462E4 CD 3E A7 04       6763 	call vdu_load_img
0462E8 C9                6764 	ret
0462E9                   6765 
0462E9                   6766 ; File name lookups:
0462E9 64 77 73 2F 64 77 6767 Fdw_6: db "dws/dw_6.rgba2",0
       5F 36 2E 72 67 62 
       61 32 00          
0462F8 64 77 73 2F 64 77 6768 Fdw_7: db "dws/dw_7.rgba2",0
       5F 37 2E 72 67 62 
       61 32 00          
046307 64 77 73 2F 64 77 6769 Fdw_8: db "dws/dw_8.rgba2",0
       5F 38 2E 72 67 62 
       61 32 00          
046316 64 77 73 2F 64 77 6770 Fdw_9: db "dws/dw_9.rgba2",0
       5F 39 2E 72 67 62 
       61 32 00          
046325 64 77 73 2F 64 77 6771 Fdw_10: db "dws/dw_10.rgba2",0
       5F 31 30 2E 72 67 
       62 61 32 00       
046335 64 77 73 2F 64 77 6772 Fdw_11: db "dws/dw_11.rgba2",0
       5F 31 31 2E 72 67 
       62 61 32 00       
046345 64 77 73 2F 64 77 6773 Fdw_12: db "dws/dw_12.rgba2",0
       5F 31 32 2E 72 67 
       62 61 32 00       
046355 64 77 73 2F 64 77 6774 Fdw_13: db "dws/dw_13.rgba2",0
       5F 31 33 2E 72 67 
       62 61 32 00       
046365 64 77 73 2F 64 77 6775 Fdw_14: db "dws/dw_14.rgba2",0
       5F 31 34 2E 72 67 
       62 61 32 00       
046375                   0019 	; include "src/asm/images_CMP.asm"
046375                   0020 	include "src/asm/fonts_bmp.asm"
046375                   0001 ; plots a bitmap character to the screen
046375                   0002 ; inputs: a; ascii character to plot
046375                   0003 ;      bc,de = x,y screen coordinates in pixels
046375                   0004 ;      ix pointed at the font definition lut
046375                   0005 ; returns: bc as the next x coordinate to plot
046375                   0006 ;          pretty pixels which hopefully resemble readable text
046375                   0007 ; destroys: lotsa stuff
046375                   0008 font_bmp_plot:
046375                   0009 ; back up bc,de
046375 C5                0010     push bc
046376 D5                0011     push de
046377                   0012 ; get the buffer id of the character
046377 D6 20             0013     sub 32 ; lookup table starts at ascii 32
046379 06 06             0014     ld b,6 ; six bytes per lookup record
04637B 4F                0015     ld c,a
04637C ED 4C             0016     mlt bc
04637E DD 09             0017     add ix,bc ; now ix points to the character definition
046380 DD 27 03          0018     ld hl,(ix+3) ; hl has the buffer id
046383 CD C1 9B 04       0019     call vdu_buff_select
046387                   0020 ; plot the character
046387 D1                0021     pop de
046388 DD 7E 02          0022     ld a,(ix+2) ; a has the y-offset of the character
04638B 83                0023     add a,e ; add the y-coordinate
04638C 5F                0024     ld e,a
04638D 3E 00             0025     ld a,0 ; can't xor it because we need carry
04638F 8A                0026     adc a,d
046390 57                0027     ld d,a ; plot_y now correct for the character
046391 C1                0028     pop bc ; plot_x
046392 C5                0029     push bc ; we want it back after the plot
046393 CD 92 9D 04       0030     call vdu_plot_bmp
046397                   0031 ; now set bc to the next x coordinate
046397 C1                0032     pop bc
046398 DD 7E 00          0033     ld a,(ix+0) ; a has the width of the character
04639B C6 02             0034     add a,2 ; add a little padding between characters
04639D 81                0035     add a,c ; bump the original x-coordinate
04639E 4F                0036     ld c,a
04639F 3E 00             0037     ld a,0 ; can't xor it because we need carry
0463A1 88                0038     adc a,b
0463A2 47                0039     ld b,a ; plot_x now correct for the next character
0463A3 C9                0040     ret
0463A4                   0041 
0463A4                   0042 ; plots a zero-terminated string of bitmap characters to the screen
0463A4                   0043 ; inputs: hl; pointer to the string
0463A4                   0044 ;       bc,de = x,y screen coordinates in pixels
0463A4                   0045 ;       ix pointed at the font definition lut
0463A4                   0046 ; returns: bc as the next x coordinate to plot
0463A4                   0047 ;          de as the next y coordinate to plot
0463A4                   0048 ;          pretty pixels which hopefully resemble readable text
0463A4                   0049 font_bmp_print:
0463A4                   0050 @next_char:
0463A4                   0051 ; fetch the next character in the string
0463A4 7E                0052     ld a,(hl) ; a has the ascii value of the character
0463A5 FE 00             0053     cp 0 ; is it zero?
0463A7 C8                0054     ret z ; if so, we're done
0463A8 23                0055     inc hl ; point to the next character
0463A9 E5                0056     push hl ; save the pointer
0463AA D5                0057     push de ; save our y-coordinate
0463AB DD E5             0058     push ix ; save the font lut pointer
0463AD CD 75 63 04       0059     call font_bmp_plot ; plot the character
0463B1 DD E1             0060     pop ix ; restore the font lut pointer
0463B3 D1                0061     pop de ; restore our y-coordinate
0463B4 E1                0062     pop hl ; restore the pointer
0463B5 C3 A4 63 04       0063     jp @next_char ; loop
0463B9                   0021 	include "src/asm/maps.asm"
0463B9                   0001 ; ############# MAP CONSTANTS #############
0463B9                   0002 ; map tables addresses
0463B9                   0003 cell_status: 		equ 0xB7E000 ; base of on-chip high speed SRAM
0463B9                   0004 cell_views: 		equ 0xB7E400 ; cell_status + 256*4
0463B9                   0005 
0463B9                   0006 ; map status/type flags
0463B9                   0007 cell_is_door:     	equ %10000000  ; Bit 7: door flag
0463B9                   0008 cell_is_wall:     	equ %01000000  ; Bit 6: wall flag
0463B9                   0009 cell_is_trigger:  	equ %00100000  ; Bit 5: trigger flag
0463B9                   0010 cell_is_blocking: 	equ %00010000  ; Bit 4: blocking flag
0463B9                   0011 cell_is_start:		equ %00001000  ; Bit 3: start flag
0463B9                   0012 cell_is_to_room:    equ %00000100  ; Bit 2: to room flag
0463B9                   0013 ; bits 1 and 0 are the render_type mask
0463B9                   0014 render_type_cube:   equ %00000000  ; 0
0463B9                   0015 render_type_floor:  equ %00000001  ; 1
0463B9                   0016 render_type_null:   equ %00000010  ; 2
0463B9                   0017 render_type_sprite: equ %00000011  ; 3
0463B9                   0018 
0463B9                   0019 ; HOW THE MAP TABLE IS LAID OUT
0463B9                   0020 ; map table field offset constants
0463B9                   0021 ; (mind the little-endianess)
0463B9                   0022 map_type_status: 	equ 0
0463B9                   0023 map_img_idx: 		equ 1
0463B9                   0024 map_obj_id: 		equ 2
0463B9                   0025 map_sprite_id: 		equ 3
0463B9                   0026 map_record_size: 	equ 4 ; bytes per cell_status record
0463B9                   0027 
0463B9                   0028 ; gets cell info from a directional displacement from a given map location
0463B9                   0029 ; inputs: ; d = distance ; e = direction, b,c = y,x
0463B9                   0030 ; returns: ix = pointer to cell_status lut; a = obj_id; hl = address of cell base render routine
0463B9                   0031 ; calls: get_dx_dy, get_cell_from_coords
0463B9                   0032 get_neighbor:
0463B9                   0033 ; modulo 4 on orientation
0463B9 7B                0034     ld a,e
0463BA E6 03             0035     and 0x03
0463BC 5F                0036     ld e,a
0463BD CD EC 63 04       0037 	call get_dx_dy ; d,e = dy,dx
0463C1                   0038 ; add add b,c to the deltas in d,e
0463C1 79                0039 	ld a,c
0463C2 83                0040 	add a,e
0463C3 5F                0041 	ld e,a
0463C4 78                0042 	ld a,b
0463C5 82                0043 	add a,d
0463C6 57                0044 	ld d,a
0463C7                   0045 ; fall through to get_cell_from_coords
0463C7                   0046 
0463C7                   0047 ; gets cell info from a given x,y map coordinate
0463C7                   0048 ; inputs: ; d,e = map_y,map_x
0463C7                   0049 ; returns: ix = pointer to cell_status lut; a = obj_id, bc = cell_id
0463C7                   0050 get_cell_from_coords:
0463C7                   0051 ; modulo 16 on input coords
0463C7 7B                0052 	ld a,e
0463C8 E6 0F             0053 	and 0x0F
0463CA 5F                0054 	ld e,a
0463CB 7A                0055 	ld a,d
0463CC E6 0F             0056 	and 0x0F
0463CE 57                0057 	ld d,a
0463CF                   0058 ; get cell_id from x,y
0463CF 42                0059 	ld b,d ; y
0463D0 0E 10             0060 	ld c,16 ; number of cells in a column
0463D2 ED 4C             0061 	mlt bc ; bc = cell_id of y,0
0463D4 21 00 00 00       0062 	ld hl,0 ; make sure uhl is zero
0463D8 6B                0063 	ld l,e ; x
0463D9 09                0064 	add hl,bc ; hl = cell_id of x,y
0463DA E5                0065 	push hl ; so we can return cell_id
0463DB 4D                0066 	ld c,l ; c = cell_id
0463DC                   0067 ; get address of cell record in cell_status table
0463DC 06 04             0068 	ld b,map_record_size ; b = bytes per record
0463DE ED 4C             0069 	mlt bc ; bc = offset to cell record
0463E0 DD 21 00 E0 B7    0070 	ld ix,cell_status ; base address of lookup table
0463E5 DD 09             0071 	add ix,bc ; ix = address of cell record
0463E7 DD 7E 02          0072 	ld a,(ix+map_obj_id) ; a = obj_id
0463EA C1                0073 	pop bc ; bc = cell_id
0463EB C9                0074 	ret
0463EC                   0075 
0463EC                   0076 ; gets dx,dy from orientation and distance
0463EC                   0077 ; d = distance ; e = orientation
0463EC                   0078 ; returns: d,e = dy,dx
0463EC                   0079 get_dx_dy:
0463EC                   0080 ; modulo 4 on orientation
0463EC 7B                0081 	ld a,e
0463ED E6 03             0082 	and 0x03
0463EF FE 00             0083 	cp 0
0463F1 28 11             0084 	jr z,@north
0463F3 FE 01             0085 	cp 1
0463F5 28 14             0086 	jr z,@east
0463F7 FE 02             0087 	cp 2
0463F9 28 14             0088 	jr z,@south
0463FB FE 03             0089 	cp 3
0463FD 28 13             0090 	jr z,@west
0463FF                   0091 ; if none of those, return zeroes
0463FF 11 00 00 00       0092 	ld de,0
046403 C9                0093 	ret
046404                   0094 @north:
046404                   0095 ; x = 0, y = -d
046404 1E 00             0096 	ld e,0
046406 7A                0097 	ld a,d
046407 ED 44             0098 	neg
046409 57                0099 	ld d,a
04640A C9                0100 	ret
04640B                   0101 @east:
04640B                   0102 ; x = d, y = 0
04640B 5A                0103 	ld e,d
04640C 16 00             0104 	ld d,0
04640E C9                0105 	ret
04640F                   0106 @south:
04640F                   0107 ; x = 0, y = d
04640F 1E 00             0108 	ld e,0
046411 C9                0109 	ret
046412                   0110 @west:
046412                   0111 ; x = -d, y = 0
046412 7A                0112 	ld a,d
046413 ED 44             0113 	neg
046415 5F                0114 	ld e,a
046416 16 00             0115 	ld d,0
046418 C9                0116 	ret
046419                   0117 
046419                   0118 ; gets the direction from a dy,dx pair
046419                   0119 ; basically atan2(dy,dx) but for only the 4 cardinal directions
046419                   0120 ; inputs: ; d = dy ; e = dx
046419                   0121 ; returns: a = orientation
046419                   0122 get_dir_from_dy_dx:
046419 AF                0123 	xor a
04641A 93                0124 	sub e
04641B 28 06             0125 	jr z,@not_x
04641D 3E 01             0126 	ld a,1
04641F F8                0127 	ret m
046420 3E 03             0128 	ld a,3
046422 C9                0129 	ret
046423                   0130 @not_x:
046423 AF                0131 	xor a
046424 92                0132 	sub d
046425 C8                0133 	ret z
046426 3E 02             0134 	ld a,2
046428 F8                0135 	ret m
046429 AF                0136 	xor a
04642A C9                0137 	ret
04642B                   0138 
04642B                   0139 
04642B                   0140 ; translate camera relative x,y deltas to map x,y deltas
04642B                   0141 ; inputs: ; d = dy ; e = dx ; a = camera orientation
04642B                   0142 ; returns:	d = map_dy ; e = map_dx
04642B                   0143 trans_dx_dy:
04642B                   0144 ; modulo 4 on orientation
04642B E6 03             0145 	and 0x03
04642D 28 11             0146 	jr z,@north
04642F FE 01             0147 	cp 1 ; east
046431 28 12             0148 	jr z,@east
046433 FE 02             0149 	cp 2 ; south
046435 28 12             0150 	jr z,@south
046437 FE 03             0151 	cp 3 ; west
046439 28 13             0152 	jr z,@west
04643B                   0153 ; if none of those, return zeroes
04643B 11 00 00 00       0154 	ld de,0
04643F C9                0155 	ret
046440                   0156 @north: ; invert y axis, x unnchanged
046440 7A                0157 	ld a,d
046441 ED 44             0158 	neg
046443 57                0159 	ld d,a
046444 C9                0160 	ret
046445                   0161 @east: ; +x = +y, +y = +x
046445 7A                0162 	ld a,d
046446 53                0163 	ld d,e
046447 5F                0164 	ld e,a
046448 C9                0165 	ret
046449                   0166 @south: ; invert x axis, y unchanged
046449 7B                0167 	ld a,e
04644A ED 44             0168 	neg
04644C 5F                0169 	ld e,a
04644D C9                0170 	ret
04644E                   0171 @west: ; +x = -y, +y = -x
04644E 7A                0172 	ld a,d ; y
04644F ED 44             0173 	neg ; -y
046451 53                0174 	ld d,e ; x
046452 5F                0175 	ld e,a ; -y
046453 7A                0176 	ld a,d ; x
046454 ED 44             0177 	neg ; -x
046456 57                0178 	ld d,a ; -x
046457 C9                0179 	ret
046458                   0180 
046458                   0181 ; initialize map variables and load map file
046458                   0182 ; inputs: none
046458                   0183 map_init:
046458 AF                0184 	xor a
046459 32 22 A3 04       0185 	ld (cur_floor),a
04645D 32 23 A3 04       0186 	ld (cur_room),a
046461                   0187 ; load room file
046461 CD 66 64 04       0188 	call map_load
046465                   0189 ; set player initial position
046465 C9                0190 	ret
046466                   0191 
046466                   0192 ; load map file
046466                   0193 ; inputs: cur_floor, cur_room set
046466                   0194 map_load:
046466 21 0E 65 04       0195 	ld hl,floors ; address of floors lut
04646A 3A 22 A3 04       0196 	ld a,(cur_floor)
04646E 5F                0197 	ld e,a
04646F 16 03             0198 	ld d,3 ; three bytes per lookup record
046471 ED 5C             0199 	mlt de ; de = offset to floor lut entry
046473 19                0200 	add hl,de ; hl = address of floor lut entry
046474 ED 27             0201 	ld hl,(hl) ; hl = base address of rooms for given floor
046476 3A 23 A3 04       0202 	ld a,(cur_room)
04647A 5F                0203 	ld e,a
04647B 16 03             0204 	ld d,3 ; three bytes per lookup record
04647D ED 5C             0205 	mlt de ; de = offset to room lut entry
04647F 19                0206 	add hl,de ; hl = address of room lut entry
046480 ED 27             0207 	ld hl,(hl) ; hl = address of room file name
046482 22 CD A5 04       0208 	ld (cur_filename),hl ; DEBUG
046486 11 00 E0 B7       0209 	ld de,cell_status ; address to load map data
04648A 01 00 20 00       0210 	ld bc,8*1024 ; size of map data in bytes
04648E 3E 01             0211 	ld a,mos_load
046490 5B CF             0212 	RST.LIL 08h
046492                   0213 ; DEBUG: print filename
046492 2A CD A5 04       0214 	ld hl,(cur_filename)
046496 CD 95 9F 04       0215 	call printString
04649A                   0216 ; load sprite data
04649A CD 9F 64 04       0217 	call map_init_sprites
04649E C9                0218 	ret
04649F                   0219 
04649F                   0220 ; initialize sprite data for the current room into sprite table
04649F                   0221 ; inputs: map data loaded
04649F                   0222 map_init_sprites:
04649F                   0223 ; initialize pointers
04649F DD 21 00 E0 B7    0224 	ld ix,cell_status
0464A4 FD 21 00 FC B7    0225 	ld iy,sprite_table_base
0464A9                   0226 @loop:
0464A9 FD 22 45 96 04    0227 	ld (sprite_table_pointer),iy ; probably don't strictly need this but why not
0464AE DD 7E 03          0228 	ld a,(ix+map_sprite_id)
0464B1 FE FF             0229 	cp 255 ; check for no sprite
0464B3 28 10             0230 	jr z,@next_cell
0464B5 FD 77 00          0231 	ld (iy+sprite_id),a
0464B8 DD 7E 01          0232 	ld a,(ix+map_img_idx)
0464BB FD 77 01          0233 	ld (iy+sprite_obj),a
0464BE CD EE 96 04       0234 	call sprite_init_data
0464C2 ED 33 10          0235 	lea iy,iy+sprite_record_size ; advance pointer to next sprite record
0464C5                   0236 @next_cell:
0464C5 ED 32 04          0237 	lea ix,ix+map_record_size ; advance pointer to next cell
0464C8                   0238 ; check if we've reached the end of the map data
0464C8 11 00 E4 B7       0239 	ld de,cell_views ; this address is the end of cell_status table + 1
0464CC DD E5             0240 	push ix ; why no sbc ix,rr, zilog?
0464CE E1                0241 	pop hl
0464CF AF                0242 	xor a ; clear carry
0464D0 ED 52             0243 	sbc hl,de
0464D2 20 D5             0244 	jr nz,@loop
0464D4 FD 21 00 FC B7    0245 	ld iy,sprite_table_base ; reset pointer
0464D9 FD 22 45 96 04    0246 	ld (sprite_table_pointer),iy
0464DE C9                0247 	ret
0464DF                   0248 
0464DF                   0249 ; get the x,y map coordinates from a cell_id
0464DF                   0250 ; inputs: a = cell_id
0464DF                   0251 ; returns: a = cell_id, d = map_y, e = map_x
0464DF                   0252 cell_id_to_coords:
0464DF F5                0253 	push af	; Save the cell id
0464E0                   0254 ; Calculate the y coordinate by dividing the index by 16
0464E0 57                0255 	ld d,a      ; Move index into d
0464E1 CB 2A             0256 	sra d        ; Shift right once (d = d / 2)
0464E3 CB 2A             0257 	sra d        ; Shift right again (d = d / 4)
0464E5 CB 2A             0258 	sra d        ; Shift right again (d = d / 8)
0464E7 CB 2A             0259 	sra d        ; Shift right again (d = d / 16)
0464E9                   0260 ; Calculate the x coordinate by taking the index modulo 16
0464E9 E6 0F             0261 	and 15       ; e = e & 15 (retain the lower 4 bits of the cell id, which is modulo 16)
0464EB 5F                0262 	ld e,a      ; e is now the x coordinate
0464EC F1                0263 	pop af	; a is cell id
0464ED C9                0264 	ret
0464EE                   0265 
0464EE                   0266 ; get starting position based on the start flag
0464EE                   0267 ; inputs: none
0464EE                   0268 ; returns: a = cell_id, d = map_y, e = map_x
0464EE                   0269 get_start_pos:
0464EE 11 00 00 00       0270 	ld de,0 ; initialize to 0,0 as a default
0464F2 DD 21 00 E0 B7    0271 	ld ix,cell_status ; ix points to the start of the map data
0464F7 AF                0272 	xor a ; start at cell 0
0464F8                   0273 @loop:
0464F8 F5                0274 	push af ; save cell_id
0464F9 DD 7E 00          0275 	ld a,(ix+map_type_status) ; a is the cell status bitmmask
0464FC E6 08             0276 	and cell_is_start ; testing whether the cell start bit is lit
0464FE 28 06             0277 	jr z,@not_start ; go to the next cell if not
046500 F1                0278 	pop	af ; a is cell_id
046501 CD DF 64 04       0279 	call cell_id_to_coords ; d = map_y, e = map_x
046505 C9                0280 	ret
046506                   0281 @not_start:
046506 F1                0282 	pop	af ; a is cell_id
046507 3C                0283 	inc a ; bump cell id
046508 C8                0284 	ret z ; if zero we've wrapped around so we return 0,0 in de and 0 in a as cell_id
046509 ED 32 04          0285 	lea ix,ix+map_record_size ; otherwise bump pointer to next map record
04650C 18 EA             0286 	jr @loop
04650E                   0287 
04650E                   0288 ; #### AUTO-GENERATED MAP DATA BELOW THIS LINE DO NOT EDIT ####
04650E                   0289 
04650E                   0290 floors:
04650E 11 65 04          0291 	dl floor_00
046511                   0292 
046511                   0293 ; map room filename labels
046511                   0294 room_files:
046511                   0295 floor_00:
046511 17 65 04          0296 	dl room_00_0
046514 29 65 04          0297 	dl room_00_1
046517                   0298 
046517                   0299 ; map data filenames
046517 6D 61 70 73 2F 6D 0300 room_00_0: db "maps/map_00_0.bin",0
       61 70 5F 30 30 5F 
       30 2E 62 69 6E 00 
046529 6D 61 70 73 2F 6D 0301 room_00_1: db "maps/map_00_1.bin",0
       61 70 5F 30 30 5F 
       31 2E 62 69 6E 00 
04653B                   0022 	include "src/asm/render.asm"
04653B                   0001 ; #### RENDERING SCRATCH VARIABLES ####
04653B                   0002 ; first three bytes of cell_status record in little-endian order
04653B                   0003 to_cell_status:
04653B 00                0004 to_map_type_status: ds 1
04653C 00                0005 to_img_idx: ds 1
04653D 00                0006 to_obj_id: ds 1
04653E                   0007 ; fourth byte of cell_status record
04653E 00                0008 to_sprite_id: ds 1
04653F                   0009 
04653F 00                0010 to_poly_id: ds 1
046540 00 00 00          0011 to_buffer_id: ds 3
046543                   0012 
046543 00 00 00          0013 cur_cell_views: ds 3
046546                   0014 
046546                   0015 ; render background as a prelude to rendering panels and sprites
046546                   0016 ; hl is the buffer id, bc and de are plot_x and plot_y
046546                   0017 render_background:
046546                   0018 ; back up everything
046546 C5                0019     push bc
046547 D5                0020     push de
046548 E5                0021     push hl
046549                   0022 ; plot background
046549 AF                0023     xor a ; color mode
04654A 0E 08             0024     ld c,c_grey_dk ; color
04654C CD 82 9A 04       0025     call vdu_gcol_fg
046550 01 00 00 00       0026     ld bc,0 ; x0
046554 11 00 00 00       0027     ld de,0 ; y0
046558 DD 21 3F 01 00    0028     ld ix,319
04655D FD 21 50 00 00    0029     ld iy,80
046562 CD CF 9D 04       0030     call vdu_plot_rf
046566 AF                0031     xor a ; color mode
046567 0E 07             0032     ld c,c_grey ; color
046569 CD 82 9A 04       0033     call vdu_gcol_fg
04656D 01 00 00 00       0034     ld bc,0 ; x0
046571 11 50 00 00       0035     ld de,80 ; y0
046575 DD 21 3F 01 00    0036     ld ix,319
04657A FD 21 9F 00 00    0037     ld iy,159
04657F CD CF 9D 04       0038     call vdu_plot_rf
046583                   0039 ; plot the background
046583 E1                0040     pop hl ; get back the buffer id
046584 CD C1 9B 04       0041     call vdu_buff_select
046588 D1                0042     pop de ; get back plot_y
046589 C1                0043     pop bc ; get back plot_x
04658A CD 92 9D 04       0044     call vdu_plot_bmp
04658E C9                0045     ret
04658F                   0046 
04658F                   0047 ; render a 3D panel
04658F                   0048 ; inputs: to_poly_id set, to_buffer_id set
04658F                   0049 render_panel:
04658F                   0050 ; make the bitmap buffer active
04658F 2A 40 65 04       0051     ld hl,(to_buffer_id)
046593 CD C1 9B 04       0052     call vdu_buff_select
046597                   0053 ; get the coordinates of the panel
046597 DD 21 15 67 04    0054     ld ix,polys_lookup_plot ; pointer to polys lookup table
04659C                   0055 ; get the panel's poly_id
04659C 3A 3F 65 04       0056     ld a,(to_poly_id)
0465A0                   0057 ; multiply a by 6 to get the offset
0465A0 47                0058     ld b,a
0465A1 0E 06             0059     ld c,6
0465A3 ED 4C             0060     mlt bc
0465A5                   0061 ; add the offset to the lookup table
0465A5 DD 09             0062     add ix,bc
0465A7                   0063 ; get the panel coordinates
0465A7 DD 07 00          0064     ld bc,(ix) ; plot_x
0465AA DD 17 03          0065     ld de,(ix+3) ; plot_y
0465AD                   0066 ; plot that mofo and go home
0465AD CD 92 9D 04       0067     call vdu_plot_bmp
0465B1 C9                0068     ret
0465B2                   0069 
0465B2                   0070 ; render a 3D sprite
0465B2                   0071 ; inputs: a is sprite_id, to_poly_id set, to_cell_status fields set
0465B2                   0072 ; (ix should also be pointed to cell_status record but we don't depend on it for the time being)
0465B2                   0073 render_sprite:
0465B2                   0074 ; look up sprite_obj in sprite table
0465B2 FD 21 00 FC B7    0075     ld iy,sprite_table_base
0465B7 47                0076     ld b,a ; sprite id
0465B8 0E 10             0077     ld c,sprite_record_size
0465BA ED 4C             0078     mlt bc
0465BC FD 09             0079     add iy,bc ; iy points to sprite record
0465BE FD 22 45 96 04    0080     ld (sprite_table_pointer),iy
0465C3                   0081 ; get sprite imgs lookup
0465C3 FD 7E 01          0082     ld a,(iy+sprite_obj) ; a is sprite_obj
0465C6 FD 21 06 6A 04    0083     ld iy,sprite_imgs_lookup ; base address of sprite_imgs lookup table
0465CB 47                0084     ld b,a
0465CC 0E 03             0085     ld c,3 ; 3 bytes per record
0465CE ED 4C             0086     mlt bc
0465D0 FD 09             0087     add iy,bc ; iy points to the sprite's sprite_imgs_lookup record
0465D2 FD 37 00          0088     ld iy,(iy) ; iy is the base address of the sprite's image defs lookup
0465D5                   0089 ; convert to_poly_id to sprite_poly
0465D5 21 D9 69 04       0090     ld hl,sprite_polys_lookup
0465D9 3A 3F 65 04       0091     ld a,(to_poly_id)
0465DD 01 00 00 00       0092     ld bc,0  ; make sure bcu and b are zero
0465E1 4F                0093     ld c,a
0465E2 09                0094     add hl,bc ; hl points to the sprite's poly id
0465E3                   0095 ; get the sprites image defs for the particular poly id
0465E3 7E                0096     ld a,(hl)
0465E4 47                0097     ld b,a
0465E5 0E 09             0098     ld c,9  ; 9 bytes per record
0465E7 ED 4C             0099     mlt bc
0465E9 FD 09             0100     add iy,bc ; iy is the offset to the sprite's image def
0465EB                   0101 ; select buffer
0465EB FD 27 06          0102     ld hl,(iy+6)
0465EE CD C1 9B 04       0103     call vdu_buff_select
0465F2                   0104 ; plot sprite
0465F2 FD 07 00          0105     ld bc,(iy+0) ; plot_x
0465F5 FD 17 03          0106     ld de,(iy+3) ; plot_y
0465F8 CD 92 9D 04       0107     call vdu_plot_bmp
0465FC C9                0108     ret
0465FD                   0109 
0465FD                   0110 ; render the object in a given cell and poly_id
0465FD                   0111 ; inputs: to_poly_id set, d,e are the cell coords
0465FD                   0112 render_cell:
0465FD                   0113 ; get the cell to render's cell_status data and store it in scratch
0465FD CD C7 63 04       0114     call get_cell_from_coords ; ix=cell_status lut; a=obj_id, bc = cell_id
046601 DD 27 00          0115     ld hl,(ix) ; l = to_map_type_status, h = to_img_idx, hlu = to_obj_id
046604 22 3B 65 04       0116     ld (to_cell_status),hl
046608                   0117 ; get sprite_id from cell_status lut
046608 DD 7E 03          0118     ld a,(ix+map_sprite_id)
04660B FE FF             0119     cp 255 ; value if no sprite present
04660D C2 B2 65 04       0120     jp nz,render_sprite
046611                   0121 ; get cell's render_type
046611 7D                0122     ld a,l ; map_type_status
046612 E6 02             0123     and 2 ; mask off everything but lowest two bits
046614 28 02             0124     jr z,@cube ; render_type_cube is 0
046616 18 32             0125     jr @nodraw ; placeholder for future implementation TODO
046618                   0126 @cube:
046618                   0127     ; get map_img_idx from cell_status lut
046618 3A 3C 65 04       0128     ld a,(to_img_idx)
04661C FE FF             0129     cp 255 ; value for cell with nothing to draw
04661E 28 2A             0130     jr z,@nodraw
046620                   0131 ; prepare render_panel ; inputs: to_poly_id set, to_buffer_id set
046620 21 50 68 04       0132     ld hl,cube_img_idx_lookup
046624 47                0133     ld b,a
046625 0E 03             0134     ld c,3 ; three bytes per record
046627 ED 4C             0135     mlt bc
046629 09                0136     add hl,bc ; hl points to the cube's base buffer id
04662A ED 27             0137     ld hl,(hl) ; hl is the base buffer id
04662C EB                0138     ex de,hl ; stash the base buffer id in de for later
04662D 21 23 68 04       0139     ld hl,cube_poly_idx_lookup
046631 3A 3F 65 04       0140     ld a,(to_poly_id)
046635 01 00 00 00       0141     ld bc,0 ; make sure bcu is zero
046639 4F                0142     ld c,a
04663A 09                0143     add hl,bc ; hl is the buffer id index address
04663B 7E                0144     ld a,(hl) ; a is the buffer id index value
04663C 21 00 00 00       0145     ld hl,0 ; make sure hlu is zero
046640 6F                0146     ld l,a ; hl is the buffer id index value
046641 19                0147     add hl,de ; hl is the buffer id
046642 22 40 65 04       0148     ld (to_buffer_id),hl
046646 C3 8F 65 04       0149     jp render_panel
04664A                   0150 @nodraw:
04664A C9                0151     ret
04664B                   0152 
04664B                   0153 ; render a full 3d scene
04664B                   0154 ; inputs: cur_x, cur_y, orientation set
04664B                   0155 ; outputs: pretty pictures
04664B                   0156 ; destroys: everything
04664B                   0157 render_scene:
04664B                   0158 ; clear the screen
04664B CD 46 65 04       0159     call render_background
04664F                   0160 ; get current map position and camera orientation
04664F ED 5B 28 A3 04    0161     ld de,(cur_x) ; d,e = cur_y,x
046654 CD C7 63 04       0162     call get_cell_from_coords ; ix=cell_status lut; a=obj_id, bc = cell_id
046658                   0163 ; get cell_views address for this cell and orientation
046658 3A 27 A3 04       0164     ld a,(orientation)
04665C 5F                0165     ld e,a
04665D 16 06             0166     ld d,6 ; 6 bytes per orientation
04665F ED 5C             0167     mlt de ; de = orientation offset
046661 EB                0168     ex de,hl ; hl = orientation offset
046662 06 18             0169     ld b,24 ; 24 bytes per cell in cell_views lut
046664 ED 4C             0170     mlt bc ; bc = offset from base address of cell_views lut
046666 09                0171     add hl,bc ; hl = total offset from cell_views base address
046667 EB                0172     ex de,hl ; becaue we can't add iy to hl
046668 FD 21 00 E4 B7    0173     ld iy,cell_views ; base address of cell_views lut
04666D FD 19             0174     add iy,de ; iy = cell_views address
04666F FD 22 43 65 04    0175     ld (cur_cell_views),iy
046674                   0176 ; cycle through the cell views masks and render the appropriate objects
046674 01 00 46 28       0177     ld bc,0x284600 ; bcu = jr z,nnn opcode, c = bit operand, b = displacement operand
046678 AF                0178     xor a ; poly_id
046679 32 3F 65 04       0179     ld (to_poly_id),a
04667D                   0180 @loop:
04667D ED 43 89 66 04    0181     ld (@bit_iy+2),bc
046682 FD 2A 43 65 04    0182     ld iy,(cur_cell_views)
046687                   0183 @bit_iy:
046687 FD CB 00 46       0184     bit 0,(iy+0) ; the bit tested and offset will be self-modified through the loop
04668B 28 21             0185     jr z,@next_poly ; the first byte of this instruction is 0x28, and will be re-written as such each loop
04668D                   0186 ; get_polys_deltas inputs: a is the orientation, c is the poly_id
04668D 3A 3F 65 04       0187     ld a,(to_poly_id)
046691 4F                0188     ld c,a ; poly_id
046692 3A 27 A3 04       0189     ld a,(orientation)
046696 CD E2 66 04       0190     call get_polys_deltas ; d,e = y,x deltas
04669A 3A 28 A3 04       0191     ld a,(cur_x)
04669E 83                0192     add a,e
04669F 5F                0193     ld e,a
0466A0 3A 29 A3 04       0194     ld a,(cur_y)
0466A4 82                0195     add a,d
0466A5 57                0196     ld d,a
0466A6 3A 3F 65 04       0197     ld a,(to_poly_id)
0466AA CD FD 65 04       0198     call render_cell ; d,e = to_render y,x coords, we don't need to worry about the modulo 16
0466AE                   0199 @next_poly:
0466AE ED 4B 89 66 04    0200     ld bc,(@bit_iy+2)
0466B3 3A 3F 65 04       0201     ld a,(to_poly_id)
0466B7 3C                0202     inc a ; a is next poly_id
0466B8 32 3F 65 04       0203     ld (to_poly_id),a
0466BC FE 2D             0204     cp num_polys
0466BE 28 0D             0205     jr z,@end
0466C0 3E 08             0206     ld a,8
0466C2 80                0207     add a,b
0466C3 47                0208     ld b,a ; bit tested codes to 0x46 + b/8
0466C4 FE 86             0209     cp 0x86 ; = 0x7E + 8 where 0x7E is the highest bit possible (7)
0466C6 20 B5             0210     jr nz,@loop
0466C8 06 46             0211     ld b,0x46
0466CA 0C                0212     inc c ; iy address offset
0466CB 18 B0             0213     jr @loop
0466CD                   0214 @end:
0466CD                   0215 ; draw the ui
0466CD 21 01 20 00       0216 	ld hl,BUF_UI_LOWER_PANEL
0466D1 CD C1 9B 04       0217     call vdu_buff_select
0466D5 01 00 00 00       0218 	ld bc,0
0466D9 11 A0 00 00       0219 	ld de,160
0466DD CD 92 9D 04       0220 	call vdu_plot_bmp
0466E1                   0221 ; all done
0466E1 C9                0222     ret
0466E2                   0223 
0466E2                   0224 ; get the map coordinates deltas for a given orientation and poly_id
0466E2                   0225 ; inputs: a is the orientation, c is the poly_id
0466E2                   0226 ; returns: d,e are the y,x deltas, deu will be the next byte in the lookup table and should be ignored
0466E2                   0227 get_polys_deltas:
0466E2                   0228 ; get the base address of the orientation-specific deltas lookup table
0466E2 FE 00             0229     cp 0
0466E4 28 11             0230     jr z,@orientation_0
0466E6 FE 01             0231     cp 1
0466E8 28 13             0232     jr z,@orientation_1
0466EA FE 02             0233     cp 2
0466EC 28 15             0234     jr z,@orientation_2
0466EE FE 03             0235     cp 3
0466F0 28 17             0236     jr z,@orientation_3
0466F2                   0237 ; return zeros if not found
0466F2 11 00 00 00       0238     ld de,0
0466F6 C9                0239     ret
0466F7                   0240 @orientation_0: ; north
0466F7 21 71 68 04       0241     ld hl,polys_map_deltas_0
0466FB 18 10             0242     jr @get_deltas
0466FD                   0243 @orientation_1: ; east
0466FD 21 CB 68 04       0244     ld hl,polys_map_deltas_1
046701 18 0A             0245     jr @get_deltas
046703                   0246 @orientation_2: ; south
046703 21 25 69 04       0247     ld hl,polys_map_deltas_2
046707 18 04             0248     jr @get_deltas
046709                   0249 @orientation_3: ; west
046709 21 7F 69 04       0250     ld hl,polys_map_deltas_3
04670D                   0251 @get_deltas:
04670D 06 02             0252     ld b,2 ; 2 bytes per record
04670F ED 4C             0253     mlt bc ; poly_id * 2
046711 09                0254     add hl,bc ; hl points to the deltas
046712 ED 17             0255     ld de,(hl) ;d,e = dy,dx
046714 C9                0256     ret
046715                   0023 	include "src/asm/polys.asm"
046715                   0001 num_polys: equ 45
046715                   0002 
046715                   0003 polys_lookup_plot:
046715                   0004 ;	   plot_x,  plot_y:
046715 00 00 00 3E 00 00 0005 	dl 0x000000,0x00003E ; poly_id:0 00
04671B 23 00 00 3E 00 00 0006 	dl 0x000023,0x00003E ; poly_id:1 01
046721 47 00 00 3E 00 00 0007 	dl 0x000047,0x00003E ; poly_id:2 02
046727 6A 00 00 3E 00 00 0008 	dl 0x00006A,0x00003E ; poly_id:3 03
04672D 8E 00 00 3E 00 00 0009 	dl 0x00008E,0x00003E ; poly_id:4 04
046733 B1 00 00 3E 00 00 0010 	dl 0x0000B1,0x00003E ; poly_id:5 05
046739 D5 00 00 3E 00 00 0011 	dl 0x0000D5,0x00003E ; poly_id:6 06
04673F F8 00 00 3E 00 00 0012 	dl 0x0000F8,0x00003E ; poly_id:7 07
046745 1C 01 00 3E 00 00 0013 	dl 0x00011C,0x00003E ; poly_id:8 08
04674B 00 00 00 39 00 00 0014 	dl 0x000000,0x000039 ; poly_id:9 09
046751 2E 00 00 39 00 00 0015 	dl 0x00002E,0x000039 ; poly_id:10 0A
046757 5B 00 00 39 00 00 0016 	dl 0x00005B,0x000039 ; poly_id:11 0B
04675D 89 00 00 39 00 00 0017 	dl 0x000089,0x000039 ; poly_id:12 0C
046763 B1 00 00 39 00 00 0018 	dl 0x0000B1,0x000039 ; poly_id:13 0D
046769 D5 00 00 39 00 00 0019 	dl 0x0000D5,0x000039 ; poly_id:14 0E
04676F F8 00 00 39 00 00 0020 	dl 0x0000F8,0x000039 ; poly_id:15 0F
046775 1C 01 00 39 00 00 0021 	dl 0x00011C,0x000039 ; poly_id:16 10
04677B 00 00 00 39 00 00 0022 	dl 0x000000,0x000039 ; poly_id:17 11
046781 2E 00 00 39 00 00 0023 	dl 0x00002E,0x000039 ; poly_id:18 12
046787 5B 00 00 39 00 00 0024 	dl 0x00005B,0x000039 ; poly_id:19 13
04678D 89 00 00 39 00 00 0025 	dl 0x000089,0x000039 ; poly_id:20 14
046793 B6 00 00 39 00 00 0026 	dl 0x0000B6,0x000039 ; poly_id:21 15
046799 E4 00 00 39 00 00 0027 	dl 0x0000E4,0x000039 ; poly_id:22 16
04679F 11 01 00 39 00 00 0028 	dl 0x000111,0x000039 ; poly_id:23 17
0467A5 00 00 00 30 00 00 0029 	dl 0x000000,0x000030 ; poly_id:24 18
0467AB 3F 00 00 30 00 00 0030 	dl 0x00003F,0x000030 ; poly_id:25 19
0467B1 80 00 00 30 00 00 0031 	dl 0x000080,0x000030 ; poly_id:26 1A
0467B7 B6 00 00 30 00 00 0032 	dl 0x0000B6,0x000030 ; poly_id:27 1B
0467BD E4 00 00 30 00 00 0033 	dl 0x0000E4,0x000030 ; poly_id:28 1C
0467C3 11 01 00 30 00 00 0034 	dl 0x000111,0x000030 ; poly_id:29 1D
0467C9 00 00 00 30 00 00 0035 	dl 0x000000,0x000030 ; poly_id:30 1E
0467CF 3F 00 00 30 00 00 0036 	dl 0x00003F,0x000030 ; poly_id:31 1F
0467D5 80 00 00 30 00 00 0037 	dl 0x000080,0x000030 ; poly_id:32 20
0467DB C0 00 00 30 00 00 0038 	dl 0x0000C0,0x000030 ; poly_id:33 21
0467E1 00 01 00 30 00 00 0039 	dl 0x000100,0x000030 ; poly_id:34 22
0467E7 00 00 00 1A 00 00 0040 	dl 0x000000,0x00001A ; poly_id:35 23
0467ED 6A 00 00 1A 00 00 0041 	dl 0x00006A,0x00001A ; poly_id:36 24
0467F3 C0 00 00 1A 00 00 0042 	dl 0x0000C0,0x00001A ; poly_id:37 25
0467F9 00 01 00 1A 00 00 0043 	dl 0x000100,0x00001A ; poly_id:38 26
0467FF 00 00 00 1A 00 00 0044 	dl 0x000000,0x00001A ; poly_id:39 27
046805 6A 00 00 1A 00 00 0045 	dl 0x00006A,0x00001A ; poly_id:40 28
04680B D5 00 00 1A 00 00 0046 	dl 0x0000D5,0x00001A ; poly_id:41 29
046811 00 00 00 00 00 00 0047 	dl 0x000000,0x000000 ; poly_id:42 2A
046817 D5 00 00 00 00 00 0048 	dl 0x0000D5,0x000000 ; poly_id:43 2B
04681D 00 00 00 00 00 00 0049 	dl 0x000000,0x000000 ; poly_id:44 2C
046823                   0050 
046823                   0051 cube_poly_idx_lookup:
046823                   0052 ;	 img_idx,  poly_id
046823 00                0053 	db 0 ; poly_id:0 0
046824 00                0054 	db 0 ; poly_id:1 1
046825 00                0055 	db 0 ; poly_id:2 2
046826 00                0056 	db 0 ; poly_id:3 3
046827 00                0057 	db 0 ; poly_id:4 4
046828 00                0058 	db 0 ; poly_id:5 5
046829 00                0059 	db 0 ; poly_id:6 6
04682A 00                0060 	db 0 ; poly_id:7 7
04682B 00                0061 	db 0 ; poly_id:8 8
04682C 01                0062 	db 1 ; poly_id:9 9
04682D 02                0063 	db 2 ; poly_id:10 10
04682E 03                0064 	db 3 ; poly_id:11 11
04682F 04                0065 	db 4 ; poly_id:12 12
046830 05                0066 	db 5 ; poly_id:13 13
046831 06                0067 	db 6 ; poly_id:14 14
046832 07                0068 	db 7 ; poly_id:15 15
046833 08                0069 	db 8 ; poly_id:16 16
046834 09                0070 	db 9 ; poly_id:17 17
046835 09                0071 	db 9 ; poly_id:18 18
046836 09                0072 	db 9 ; poly_id:19 19
046837 09                0073 	db 9 ; poly_id:20 20
046838 09                0074 	db 9 ; poly_id:21 21
046839 09                0075 	db 9 ; poly_id:22 22
04683A 09                0076 	db 9 ; poly_id:23 23
04683B 0A                0077 	db 10 ; poly_id:24 24
04683C 0B                0078 	db 11 ; poly_id:25 25
04683D 0C                0079 	db 12 ; poly_id:26 26
04683E 0D                0080 	db 13 ; poly_id:27 27
04683F 0E                0081 	db 14 ; poly_id:28 28
046840 0F                0082 	db 15 ; poly_id:29 29
046841 10                0083 	db 16 ; poly_id:30 30
046842 10                0084 	db 16 ; poly_id:31 31
046843 10                0085 	db 16 ; poly_id:32 32
046844 10                0086 	db 16 ; poly_id:33 33
046845 10                0087 	db 16 ; poly_id:34 34
046846 11                0088 	db 17 ; poly_id:35 35
046847 12                0089 	db 18 ; poly_id:36 36
046848 13                0090 	db 19 ; poly_id:37 37
046849 14                0091 	db 20 ; poly_id:38 38
04684A 15                0092 	db 21 ; poly_id:39 39
04684B 15                0093 	db 21 ; poly_id:40 40
04684C 15                0094 	db 21 ; poly_id:41 41
04684D 16                0095 	db 22 ; poly_id:42 42
04684E 17                0096 	db 23 ; poly_id:43 43
04684F 18                0097 	db 24 ; poly_id:44 44
046850                   0098 
046850                   0099 cube_img_idx_lookup:
046850                   0100 ;	 img_idx,  bank_id,  obj_id,  tile_name
046850 00 01 00          0101 	dl BUF_10_004 ; idx:0 render_obj_id:10 LIGHT GREY WALL
046853 19 01 00          0102 	dl BUF_11_004 ; idx:1 render_obj_id:11 JAIL CELL
046856 32 01 00          0103 	dl BUF_12_004 ; idx:2 render_obj_id:12 STONE ARCH BIRD
046859 4B 01 00          0104 	dl BUF_13_004 ; idx:3 render_obj_id:13 DARK GREY WALL
04685C 64 01 00          0105 	dl BUF_14_004 ; idx:4 render_obj_id:14 WOOD WALL
04685F 7D 01 00          0106 	dl BUF_15_004 ; idx:5 render_obj_id:15 HANGING FLAG
046862 96 01 00          0107 	dl BUF_16_004 ; idx:6 render_obj_id:16 WOOD EAGLE
046865 AF 01 00          0108 	dl BUF_17_004 ; idx:7 render_obj_id:17 BLUE WALL
046868 C8 01 00          0109 	dl BUF_57_004 ; idx:8 render_obj_id:57 REGULAR DOOR
04686B E1 01 00          0110 	dl BUF_58_004 ; idx:9 render_obj_id:58 ELEVATOR SWITCH
04686E FA 01 00          0111 	dl BUF_59_004 ; idx:10 render_obj_id:59 ELEVATOR DOOR
046871                   0112 
046871                   0113 ; map_delta_x,  map_delta_y
046871                   0114 polys_map_deltas_0: ; north orientation
046871 FC FB             0115 	db 0xFC,0xFB ; poly_id:0 00
046873 FD FB             0116 	db 0xFD,0xFB ; poly_id:1 01
046875 FE FB             0117 	db 0xFE,0xFB ; poly_id:2 02
046877 FF FB             0118 	db 0xFF,0xFB ; poly_id:3 03
046879 00 FB             0119 	db 0x00,0xFB ; poly_id:4 04
04687B 01 FB             0120 	db 0x01,0xFB ; poly_id:5 05
04687D 02 FB             0121 	db 0x02,0xFB ; poly_id:6 06
04687F 03 FB             0122 	db 0x03,0xFB ; poly_id:7 07
046881 04 FB             0123 	db 0x04,0xFB ; poly_id:8 08
046883 FC FC             0124 	db 0xFC,0xFC ; poly_id:9 09
046885 FD FC             0125 	db 0xFD,0xFC ; poly_id:10 0A
046887 FE FC             0126 	db 0xFE,0xFC ; poly_id:11 0B
046889 FF FC             0127 	db 0xFF,0xFC ; poly_id:12 0C
04688B 01 FC             0128 	db 0x01,0xFC ; poly_id:13 0D
04688D 02 FC             0129 	db 0x02,0xFC ; poly_id:14 0E
04688F 03 FC             0130 	db 0x03,0xFC ; poly_id:15 0F
046891 04 FC             0131 	db 0x04,0xFC ; poly_id:16 10
046893 FD FC             0132 	db 0xFD,0xFC ; poly_id:17 11
046895 FE FC             0133 	db 0xFE,0xFC ; poly_id:18 12
046897 FF FC             0134 	db 0xFF,0xFC ; poly_id:19 13
046899 00 FC             0135 	db 0x00,0xFC ; poly_id:20 14
04689B 01 FC             0136 	db 0x01,0xFC ; poly_id:21 15
04689D 02 FC             0137 	db 0x02,0xFC ; poly_id:22 16
04689F 03 FC             0138 	db 0x03,0xFC ; poly_id:23 17
0468A1 FD FD             0139 	db 0xFD,0xFD ; poly_id:24 18
0468A3 FE FD             0140 	db 0xFE,0xFD ; poly_id:25 19
0468A5 FF FD             0141 	db 0xFF,0xFD ; poly_id:26 1A
0468A7 01 FD             0142 	db 0x01,0xFD ; poly_id:27 1B
0468A9 02 FD             0143 	db 0x02,0xFD ; poly_id:28 1C
0468AB 03 FD             0144 	db 0x03,0xFD ; poly_id:29 1D
0468AD FE FD             0145 	db 0xFE,0xFD ; poly_id:30 1E
0468AF FF FD             0146 	db 0xFF,0xFD ; poly_id:31 1F
0468B1 00 FD             0147 	db 0x00,0xFD ; poly_id:32 20
0468B3 01 FD             0148 	db 0x01,0xFD ; poly_id:33 21
0468B5 02 FD             0149 	db 0x02,0xFD ; poly_id:34 22
0468B7 FE FE             0150 	db 0xFE,0xFE ; poly_id:35 23
0468B9 FF FE             0151 	db 0xFF,0xFE ; poly_id:36 24
0468BB 01 FE             0152 	db 0x01,0xFE ; poly_id:37 25
0468BD 02 FE             0153 	db 0x02,0xFE ; poly_id:38 26
0468BF FF FE             0154 	db 0xFF,0xFE ; poly_id:39 27
0468C1 00 FE             0155 	db 0x00,0xFE ; poly_id:40 28
0468C3 01 FE             0156 	db 0x01,0xFE ; poly_id:41 29
0468C5 FF FF             0157 	db 0xFF,0xFF ; poly_id:42 2A
0468C7 01 FF             0158 	db 0x01,0xFF ; poly_id:43 2B
0468C9 00 FF             0159 	db 0x00,0xFF ; poly_id:44 2C
0468CB                   0160 
0468CB                   0161 polys_map_deltas_1: ; east orientation
0468CB 05 FC             0162 	db 0x05,0xFC ; poly_id:0 00
0468CD 05 FD             0163 	db 0x05,0xFD ; poly_id:1 01
0468CF 05 FE             0164 	db 0x05,0xFE ; poly_id:2 02
0468D1 05 FF             0165 	db 0x05,0xFF ; poly_id:3 03
0468D3 05 00             0166 	db 0x05,0x00 ; poly_id:4 04
0468D5 05 01             0167 	db 0x05,0x01 ; poly_id:5 05
0468D7 05 02             0168 	db 0x05,0x02 ; poly_id:6 06
0468D9 05 03             0169 	db 0x05,0x03 ; poly_id:7 07
0468DB 05 04             0170 	db 0x05,0x04 ; poly_id:8 08
0468DD 04 FC             0171 	db 0x04,0xFC ; poly_id:9 09
0468DF 04 FD             0172 	db 0x04,0xFD ; poly_id:10 0A
0468E1 04 FE             0173 	db 0x04,0xFE ; poly_id:11 0B
0468E3 04 FF             0174 	db 0x04,0xFF ; poly_id:12 0C
0468E5 04 01             0175 	db 0x04,0x01 ; poly_id:13 0D
0468E7 04 02             0176 	db 0x04,0x02 ; poly_id:14 0E
0468E9 04 03             0177 	db 0x04,0x03 ; poly_id:15 0F
0468EB 04 04             0178 	db 0x04,0x04 ; poly_id:16 10
0468ED 04 FD             0179 	db 0x04,0xFD ; poly_id:17 11
0468EF 04 FE             0180 	db 0x04,0xFE ; poly_id:18 12
0468F1 04 FF             0181 	db 0x04,0xFF ; poly_id:19 13
0468F3 04 00             0182 	db 0x04,0x00 ; poly_id:20 14
0468F5 04 01             0183 	db 0x04,0x01 ; poly_id:21 15
0468F7 04 02             0184 	db 0x04,0x02 ; poly_id:22 16
0468F9 04 03             0185 	db 0x04,0x03 ; poly_id:23 17
0468FB 03 FD             0186 	db 0x03,0xFD ; poly_id:24 18
0468FD 03 FE             0187 	db 0x03,0xFE ; poly_id:25 19
0468FF 03 FF             0188 	db 0x03,0xFF ; poly_id:26 1A
046901 03 01             0189 	db 0x03,0x01 ; poly_id:27 1B
046903 03 02             0190 	db 0x03,0x02 ; poly_id:28 1C
046905 03 03             0191 	db 0x03,0x03 ; poly_id:29 1D
046907 03 FE             0192 	db 0x03,0xFE ; poly_id:30 1E
046909 03 FF             0193 	db 0x03,0xFF ; poly_id:31 1F
04690B 03 00             0194 	db 0x03,0x00 ; poly_id:32 20
04690D 03 01             0195 	db 0x03,0x01 ; poly_id:33 21
04690F 03 02             0196 	db 0x03,0x02 ; poly_id:34 22
046911 02 FE             0197 	db 0x02,0xFE ; poly_id:35 23
046913 02 FF             0198 	db 0x02,0xFF ; poly_id:36 24
046915 02 01             0199 	db 0x02,0x01 ; poly_id:37 25
046917 02 02             0200 	db 0x02,0x02 ; poly_id:38 26
046919 02 FF             0201 	db 0x02,0xFF ; poly_id:39 27
04691B 02 00             0202 	db 0x02,0x00 ; poly_id:40 28
04691D 02 01             0203 	db 0x02,0x01 ; poly_id:41 29
04691F 01 FF             0204 	db 0x01,0xFF ; poly_id:42 2A
046921 01 01             0205 	db 0x01,0x01 ; poly_id:43 2B
046923 01 00             0206 	db 0x01,0x00 ; poly_id:44 2C
046925                   0207 
046925                   0208 polys_map_deltas_2: ; south orientation
046925 04 05             0209 	db 0x04,0x05 ; poly_id:0 00
046927 03 05             0210 	db 0x03,0x05 ; poly_id:1 01
046929 02 05             0211 	db 0x02,0x05 ; poly_id:2 02
04692B 01 05             0212 	db 0x01,0x05 ; poly_id:3 03
04692D 00 05             0213 	db 0x00,0x05 ; poly_id:4 04
04692F FF 05             0214 	db 0xFF,0x05 ; poly_id:5 05
046931 FE 05             0215 	db 0xFE,0x05 ; poly_id:6 06
046933 FD 05             0216 	db 0xFD,0x05 ; poly_id:7 07
046935 FC 05             0217 	db 0xFC,0x05 ; poly_id:8 08
046937 04 04             0218 	db 0x04,0x04 ; poly_id:9 09
046939 03 04             0219 	db 0x03,0x04 ; poly_id:10 0A
04693B 02 04             0220 	db 0x02,0x04 ; poly_id:11 0B
04693D 01 04             0221 	db 0x01,0x04 ; poly_id:12 0C
04693F FF 04             0222 	db 0xFF,0x04 ; poly_id:13 0D
046941 FE 04             0223 	db 0xFE,0x04 ; poly_id:14 0E
046943 FD 04             0224 	db 0xFD,0x04 ; poly_id:15 0F
046945 FC 04             0225 	db 0xFC,0x04 ; poly_id:16 10
046947 03 04             0226 	db 0x03,0x04 ; poly_id:17 11
046949 02 04             0227 	db 0x02,0x04 ; poly_id:18 12
04694B 01 04             0228 	db 0x01,0x04 ; poly_id:19 13
04694D 00 04             0229 	db 0x00,0x04 ; poly_id:20 14
04694F FF 04             0230 	db 0xFF,0x04 ; poly_id:21 15
046951 FE 04             0231 	db 0xFE,0x04 ; poly_id:22 16
046953 FD 04             0232 	db 0xFD,0x04 ; poly_id:23 17
046955 03 03             0233 	db 0x03,0x03 ; poly_id:24 18
046957 02 03             0234 	db 0x02,0x03 ; poly_id:25 19
046959 01 03             0235 	db 0x01,0x03 ; poly_id:26 1A
04695B FF 03             0236 	db 0xFF,0x03 ; poly_id:27 1B
04695D FE 03             0237 	db 0xFE,0x03 ; poly_id:28 1C
04695F FD 03             0238 	db 0xFD,0x03 ; poly_id:29 1D
046961 02 03             0239 	db 0x02,0x03 ; poly_id:30 1E
046963 01 03             0240 	db 0x01,0x03 ; poly_id:31 1F
046965 00 03             0241 	db 0x00,0x03 ; poly_id:32 20
046967 FF 03             0242 	db 0xFF,0x03 ; poly_id:33 21
046969 FE 03             0243 	db 0xFE,0x03 ; poly_id:34 22
04696B 02 02             0244 	db 0x02,0x02 ; poly_id:35 23
04696D 01 02             0245 	db 0x01,0x02 ; poly_id:36 24
04696F FF 02             0246 	db 0xFF,0x02 ; poly_id:37 25
046971 FE 02             0247 	db 0xFE,0x02 ; poly_id:38 26
046973 01 02             0248 	db 0x01,0x02 ; poly_id:39 27
046975 00 02             0249 	db 0x00,0x02 ; poly_id:40 28
046977 FF 02             0250 	db 0xFF,0x02 ; poly_id:41 29
046979 01 01             0251 	db 0x01,0x01 ; poly_id:42 2A
04697B FF 01             0252 	db 0xFF,0x01 ; poly_id:43 2B
04697D 00 01             0253 	db 0x00,0x01 ; poly_id:44 2C
04697F                   0254 
04697F                   0255 polys_map_deltas_3: ; west orientation
04697F FB 04             0256 	db 0xFB,0x04 ; poly_id:0 00
046981 FB 03             0257 	db 0xFB,0x03 ; poly_id:1 01
046983 FB 02             0258 	db 0xFB,0x02 ; poly_id:2 02
046985 FB 01             0259 	db 0xFB,0x01 ; poly_id:3 03
046987 FB 00             0260 	db 0xFB,0x00 ; poly_id:4 04
046989 FB FF             0261 	db 0xFB,0xFF ; poly_id:5 05
04698B FB FE             0262 	db 0xFB,0xFE ; poly_id:6 06
04698D FB FD             0263 	db 0xFB,0xFD ; poly_id:7 07
04698F FB FC             0264 	db 0xFB,0xFC ; poly_id:8 08
046991 FC 04             0265 	db 0xFC,0x04 ; poly_id:9 09
046993 FC 03             0266 	db 0xFC,0x03 ; poly_id:10 0A
046995 FC 02             0267 	db 0xFC,0x02 ; poly_id:11 0B
046997 FC 01             0268 	db 0xFC,0x01 ; poly_id:12 0C
046999 FC FF             0269 	db 0xFC,0xFF ; poly_id:13 0D
04699B FC FE             0270 	db 0xFC,0xFE ; poly_id:14 0E
04699D FC FD             0271 	db 0xFC,0xFD ; poly_id:15 0F
04699F FC FC             0272 	db 0xFC,0xFC ; poly_id:16 10
0469A1 FC 03             0273 	db 0xFC,0x03 ; poly_id:17 11
0469A3 FC 02             0274 	db 0xFC,0x02 ; poly_id:18 12
0469A5 FC 01             0275 	db 0xFC,0x01 ; poly_id:19 13
0469A7 FC 00             0276 	db 0xFC,0x00 ; poly_id:20 14
0469A9 FC FF             0277 	db 0xFC,0xFF ; poly_id:21 15
0469AB FC FE             0278 	db 0xFC,0xFE ; poly_id:22 16
0469AD FC FD             0279 	db 0xFC,0xFD ; poly_id:23 17
0469AF FD 03             0280 	db 0xFD,0x03 ; poly_id:24 18
0469B1 FD 02             0281 	db 0xFD,0x02 ; poly_id:25 19
0469B3 FD 01             0282 	db 0xFD,0x01 ; poly_id:26 1A
0469B5 FD FF             0283 	db 0xFD,0xFF ; poly_id:27 1B
0469B7 FD FE             0284 	db 0xFD,0xFE ; poly_id:28 1C
0469B9 FD FD             0285 	db 0xFD,0xFD ; poly_id:29 1D
0469BB FD 02             0286 	db 0xFD,0x02 ; poly_id:30 1E
0469BD FD 01             0287 	db 0xFD,0x01 ; poly_id:31 1F
0469BF FD 00             0288 	db 0xFD,0x00 ; poly_id:32 20
0469C1 FD FF             0289 	db 0xFD,0xFF ; poly_id:33 21
0469C3 FD FE             0290 	db 0xFD,0xFE ; poly_id:34 22
0469C5 FE 02             0291 	db 0xFE,0x02 ; poly_id:35 23
0469C7 FE 01             0292 	db 0xFE,0x01 ; poly_id:36 24
0469C9 FE FF             0293 	db 0xFE,0xFF ; poly_id:37 25
0469CB FE FE             0294 	db 0xFE,0xFE ; poly_id:38 26
0469CD FE 01             0295 	db 0xFE,0x01 ; poly_id:39 27
0469CF FE 00             0296 	db 0xFE,0x00 ; poly_id:40 28
0469D1 FE FF             0297 	db 0xFE,0xFF ; poly_id:41 29
0469D3 FF 01             0298 	db 0xFF,0x01 ; poly_id:42 2A
0469D5 FF FF             0299 	db 0xFF,0xFF ; poly_id:43 2B
0469D7 FF 00             0300 	db 0xFF,0x00 ; poly_id:44 2C
0469D9                   0301 
0469D9                   0302 num_sprite_polys: equ 25
0469D9                   0303 
0469D9                   0304 sprite_polys_lookup:
0469D9                   0305 ;south_id 	; poly_id
0469D9 00                0306 	db 0	; 0
0469DA 01                0307 	db 1	; 1
0469DB 02                0308 	db 2	; 2
0469DC 03                0309 	db 3	; 3
0469DD 04                0310 	db 4	; 4
0469DE 05                0311 	db 5	; 5
0469DF 06                0312 	db 6	; 6
0469E0 07                0313 	db 7	; 7
0469E1 08                0314 	db 8	; 8
0469E2 FF                0315 	db 255	; 9
0469E3 FF                0316 	db 255	; 10
0469E4 FF                0317 	db 255	; 11
0469E5 FF                0318 	db 255	; 12
0469E6 FF                0319 	db 255	; 13
0469E7 FF                0320 	db 255	; 14
0469E8 FF                0321 	db 255	; 15
0469E9 FF                0322 	db 255	; 16
0469EA 09                0323 	db 9	; 17
0469EB 0A                0324 	db 10	; 18
0469EC 0B                0325 	db 11	; 19
0469ED 0C                0326 	db 12	; 20
0469EE 0D                0327 	db 13	; 21
0469EF 0E                0328 	db 14	; 22
0469F0 0F                0329 	db 15	; 23
0469F1 FF                0330 	db 255	; 24
0469F2 FF                0331 	db 255	; 25
0469F3 FF                0332 	db 255	; 26
0469F4 FF                0333 	db 255	; 27
0469F5 FF                0334 	db 255	; 28
0469F6 FF                0335 	db 255	; 29
0469F7 10                0336 	db 16	; 30
0469F8 11                0337 	db 17	; 31
0469F9 12                0338 	db 18	; 32
0469FA 13                0339 	db 19	; 33
0469FB 14                0340 	db 20	; 34
0469FC FF                0341 	db 255	; 35
0469FD FF                0342 	db 255	; 36
0469FE FF                0343 	db 255	; 37
0469FF FF                0344 	db 255	; 38
046A00 15                0345 	db 21	; 39
046A01 16                0346 	db 22	; 40
046A02 17                0347 	db 23	; 41
046A03 FF                0348 	db 255	; 42
046A04 FF                0349 	db 255	; 43
046A05 18                0350 	db 24	; 44
046A06                   0351 
046A06                   0352 sprite_imgs_lookup:
046A06                   0353 ;	 sprite_obj; render_obj_id
046A06 3C 6A 04          0354 	dl sprite_obj_000 ; render_obj_id:20
046A09 1D 6B 04          0355 	dl sprite_obj_001 ; render_obj_id:21
046A0C FE 6B 04          0356 	dl sprite_obj_002 ; render_obj_id:22
046A0F DF 6C 04          0357 	dl sprite_obj_003 ; render_obj_id:23
046A12 C0 6D 04          0358 	dl sprite_obj_004 ; render_obj_id:24
046A15 A1 6E 04          0359 	dl sprite_obj_005 ; render_obj_id:40
046A18 82 6F 04          0360 	dl sprite_obj_006 ; render_obj_id:41
046A1B 63 70 04          0361 	dl sprite_obj_007 ; render_obj_id:42
046A1E 44 71 04          0362 	dl sprite_obj_008 ; render_obj_id:43
046A21 25 72 04          0363 	dl sprite_obj_009 ; render_obj_id:44
046A24 06 73 04          0364 	dl sprite_obj_010 ; render_obj_id:45
046A27 E7 73 04          0365 	dl sprite_obj_011 ; render_obj_id:46
046A2A C8 74 04          0366 	dl sprite_obj_012 ; render_obj_id:47
046A2D A9 75 04          0367 	dl sprite_obj_013 ; render_obj_id:48
046A30 8A 76 04          0368 	dl sprite_obj_014 ; render_obj_id:49
046A33 6B 77 04          0369 	dl sprite_obj_015 ; render_obj_id:50
046A36 4C 78 04          0370 	dl sprite_obj_016 ; render_obj_id:51
046A39 2D 79 04          0371 	dl sprite_obj_017 ; render_obj_id:52
046A3C                   0372 ;	 plot_x,  plot_y, buffer_label
046A3C                   0373 
046A3C                   0374 ; render_obj_id:20
046A3C                   0375 sprite_obj_000:
046A3C 08 00 00 4C 00 00 0376 	dl 0x000008,0x00004C,BUF_20_004
       13 02 00          
046A45 2B 00 00 4C 00 00 0377 	dl 0x00002B,0x00004C,BUF_20_004
       13 02 00          
046A4E 4F 00 00 4C 00 00 0378 	dl 0x00004F,0x00004C,BUF_20_004
       13 02 00          
046A57 72 00 00 4C 00 00 0379 	dl 0x000072,0x00004C,BUF_20_004
       13 02 00          
046A60 96 00 00 4C 00 00 0380 	dl 0x000096,0x00004C,BUF_20_004
       13 02 00          
046A69 B9 00 00 4C 00 00 0381 	dl 0x0000B9,0x00004C,BUF_20_004
       13 02 00          
046A72 DD 00 00 4C 00 00 0382 	dl 0x0000DD,0x00004C,BUF_20_004
       13 02 00          
046A7B 00 01 00 4C 00 00 0383 	dl 0x000100,0x00004C,BUF_20_004
       13 02 00          
046A84 24 01 00 4C 00 00 0384 	dl 0x000124,0x00004C,BUF_20_004
       13 02 00          
046A8D 0A 00 00 4B 00 00 0385 	dl 0x00000A,0x00004B,BUF_20_020
       14 02 00          
046A96 38 00 00 4B 00 00 0386 	dl 0x000038,0x00004B,BUF_20_020
       14 02 00          
046A9F 65 00 00 4B 00 00 0387 	dl 0x000065,0x00004B,BUF_20_020
       14 02 00          
046AA8 93 00 00 4B 00 00 0388 	dl 0x000093,0x00004B,BUF_20_020
       14 02 00          
046AB1 C0 00 00 4B 00 00 0389 	dl 0x0000C0,0x00004B,BUF_20_020
       14 02 00          
046ABA EE 00 00 4B 00 00 0390 	dl 0x0000EE,0x00004B,BUF_20_020
       14 02 00          
046AC3 1B 01 00 4B 00 00 0391 	dl 0x00011B,0x00004B,BUF_20_020
       14 02 00          
046ACC 0E 00 00 49 00 00 0392 	dl 0x00000E,0x000049,BUF_20_032
       15 02 00          
046AD5 4D 00 00 49 00 00 0393 	dl 0x00004D,0x000049,BUF_20_032
       15 02 00          
046ADE 8E 00 00 49 00 00 0394 	dl 0x00008E,0x000049,BUF_20_032
       15 02 00          
046AE7 CE 00 00 49 00 00 0395 	dl 0x0000CE,0x000049,BUF_20_032
       15 02 00          
046AF0 0E 01 00 49 00 00 0396 	dl 0x00010E,0x000049,BUF_20_032
       15 02 00          
046AF9 18 00 00 44 00 00 0397 	dl 0x000018,0x000044,BUF_20_040
       16 02 00          
046B02 82 00 00 44 00 00 0398 	dl 0x000082,0x000044,BUF_20_040
       16 02 00          
046B0B ED 00 00 44 00 00 0399 	dl 0x0000ED,0x000044,BUF_20_040
       16 02 00          
046B14 64 00 00 2D 00 00 0400 	dl 0x000064,0x00002D,BUF_20_044
       17 02 00          
046B1D                   0401 
046B1D                   0402 ; render_obj_id:21
046B1D                   0403 sprite_obj_001:
046B1D 0A 00 00 4F 00 00 0404 	dl 0x00000A,0x00004F,BUF_21_004
       18 02 00          
046B26 2D 00 00 4F 00 00 0405 	dl 0x00002D,0x00004F,BUF_21_004
       18 02 00          
046B2F 51 00 00 4F 00 00 0406 	dl 0x000051,0x00004F,BUF_21_004
       18 02 00          
046B38 74 00 00 4F 00 00 0407 	dl 0x000074,0x00004F,BUF_21_004
       18 02 00          
046B41 98 00 00 4F 00 00 0408 	dl 0x000098,0x00004F,BUF_21_004
       18 02 00          
046B4A BB 00 00 4F 00 00 0409 	dl 0x0000BB,0x00004F,BUF_21_004
       18 02 00          
046B53 DF 00 00 4F 00 00 0410 	dl 0x0000DF,0x00004F,BUF_21_004
       18 02 00          
046B5C 02 01 00 4F 00 00 0411 	dl 0x000102,0x00004F,BUF_21_004
       18 02 00          
046B65 26 01 00 4F 00 00 0412 	dl 0x000126,0x00004F,BUF_21_004
       18 02 00          
046B6E 0C 00 00 4F 00 00 0413 	dl 0x00000C,0x00004F,BUF_21_020
       19 02 00          
046B77 3A 00 00 4F 00 00 0414 	dl 0x00003A,0x00004F,BUF_21_020
       19 02 00          
046B80 67 00 00 4F 00 00 0415 	dl 0x000067,0x00004F,BUF_21_020
       19 02 00          
046B89 95 00 00 4F 00 00 0416 	dl 0x000095,0x00004F,BUF_21_020
       19 02 00          
046B92 C2 00 00 4F 00 00 0417 	dl 0x0000C2,0x00004F,BUF_21_020
       19 02 00          
046B9B F0 00 00 4F 00 00 0418 	dl 0x0000F0,0x00004F,BUF_21_020
       19 02 00          
046BA4 1D 01 00 4F 00 00 0419 	dl 0x00011D,0x00004F,BUF_21_020
       19 02 00          
046BAD 11 00 00 4F 00 00 0420 	dl 0x000011,0x00004F,BUF_21_032
       1A 02 00          
046BB6 50 00 00 4F 00 00 0421 	dl 0x000050,0x00004F,BUF_21_032
       1A 02 00          
046BBF 91 00 00 4F 00 00 0422 	dl 0x000091,0x00004F,BUF_21_032
       1A 02 00          
046BC8 D1 00 00 4F 00 00 0423 	dl 0x0000D1,0x00004F,BUF_21_032
       1A 02 00          
046BD1 11 01 00 4F 00 00 0424 	dl 0x000111,0x00004F,BUF_21_032
       1A 02 00          
046BDA 1D 00 00 4E 00 00 0425 	dl 0x00001D,0x00004E,BUF_21_040
       1B 02 00          
046BE3 87 00 00 4E 00 00 0426 	dl 0x000087,0x00004E,BUF_21_040
       1B 02 00          
046BEC F2 00 00 4E 00 00 0427 	dl 0x0000F2,0x00004E,BUF_21_040
       1B 02 00          
046BF5 55 00 00 4B 00 00 0428 	dl 0x000055,0x00004B,BUF_21_044
       1C 02 00          
046BFE                   0429 
046BFE                   0430 ; render_obj_id:22
046BFE                   0431 sprite_obj_002:
046BFE 09 00 00 55 00 00 0432 	dl 0x000009,0x000055,BUF_22_004
       1D 02 00          
046C07 2C 00 00 55 00 00 0433 	dl 0x00002C,0x000055,BUF_22_004
       1D 02 00          
046C10 50 00 00 55 00 00 0434 	dl 0x000050,0x000055,BUF_22_004
       1D 02 00          
046C19 73 00 00 55 00 00 0435 	dl 0x000073,0x000055,BUF_22_004
       1D 02 00          
046C22 97 00 00 55 00 00 0436 	dl 0x000097,0x000055,BUF_22_004
       1D 02 00          
046C2B BA 00 00 55 00 00 0437 	dl 0x0000BA,0x000055,BUF_22_004
       1D 02 00          
046C34 DE 00 00 55 00 00 0438 	dl 0x0000DE,0x000055,BUF_22_004
       1D 02 00          
046C3D 01 01 00 55 00 00 0439 	dl 0x000101,0x000055,BUF_22_004
       1D 02 00          
046C46 25 01 00 55 00 00 0440 	dl 0x000125,0x000055,BUF_22_004
       1D 02 00          
046C4F 0B 00 00 57 00 00 0441 	dl 0x00000B,0x000057,BUF_22_020
       1E 02 00          
046C58 39 00 00 57 00 00 0442 	dl 0x000039,0x000057,BUF_22_020
       1E 02 00          
046C61 66 00 00 57 00 00 0443 	dl 0x000066,0x000057,BUF_22_020
       1E 02 00          
046C6A 94 00 00 57 00 00 0444 	dl 0x000094,0x000057,BUF_22_020
       1E 02 00          
046C73 C1 00 00 57 00 00 0445 	dl 0x0000C1,0x000057,BUF_22_020
       1E 02 00          
046C7C EF 00 00 57 00 00 0446 	dl 0x0000EF,0x000057,BUF_22_020
       1E 02 00          
046C85 1C 01 00 57 00 00 0447 	dl 0x00011C,0x000057,BUF_22_020
       1E 02 00          
046C8E 10 00 00 5A 00 00 0448 	dl 0x000010,0x00005A,BUF_22_032
       1F 02 00          
046C97 4F 00 00 5A 00 00 0449 	dl 0x00004F,0x00005A,BUF_22_032
       1F 02 00          
046CA0 90 00 00 5A 00 00 0450 	dl 0x000090,0x00005A,BUF_22_032
       1F 02 00          
046CA9 D0 00 00 5A 00 00 0451 	dl 0x0000D0,0x00005A,BUF_22_032
       1F 02 00          
046CB2 10 01 00 5A 00 00 0452 	dl 0x000110,0x00005A,BUF_22_032
       1F 02 00          
046CBB 1B 00 00 60 00 00 0453 	dl 0x00001B,0x000060,BUF_22_040
       20 02 00          
046CC4 85 00 00 60 00 00 0454 	dl 0x000085,0x000060,BUF_22_040
       20 02 00          
046CCD F0 00 00 60 00 00 0455 	dl 0x0000F0,0x000060,BUF_22_040
       20 02 00          
046CD6 50 00 00 82 00 00 0456 	dl 0x000050,0x000082,BUF_22_044
       21 02 00          
046CDF                   0457 
046CDF                   0458 ; render_obj_id:23
046CDF                   0459 sprite_obj_003:
046CDF 09 00 00 3E 00 00 0460 	dl 0x000009,0x00003E,BUF_23_004
       22 02 00          
046CE8 2C 00 00 3E 00 00 0461 	dl 0x00002C,0x00003E,BUF_23_004
       22 02 00          
046CF1 50 00 00 3E 00 00 0462 	dl 0x000050,0x00003E,BUF_23_004
       22 02 00          
046CFA 73 00 00 3E 00 00 0463 	dl 0x000073,0x00003E,BUF_23_004
       22 02 00          
046D03 97 00 00 3E 00 00 0464 	dl 0x000097,0x00003E,BUF_23_004
       22 02 00          
046D0C BA 00 00 3E 00 00 0465 	dl 0x0000BA,0x00003E,BUF_23_004
       22 02 00          
046D15 DE 00 00 3E 00 00 0466 	dl 0x0000DE,0x00003E,BUF_23_004
       22 02 00          
046D1E 01 01 00 3E 00 00 0467 	dl 0x000101,0x00003E,BUF_23_004
       22 02 00          
046D27 25 01 00 3E 00 00 0468 	dl 0x000125,0x00003E,BUF_23_004
       22 02 00          
046D30 0C 00 00 39 00 00 0469 	dl 0x00000C,0x000039,BUF_23_020
       23 02 00          
046D39 3A 00 00 39 00 00 0470 	dl 0x00003A,0x000039,BUF_23_020
       23 02 00          
046D42 67 00 00 39 00 00 0471 	dl 0x000067,0x000039,BUF_23_020
       23 02 00          
046D4B 95 00 00 39 00 00 0472 	dl 0x000095,0x000039,BUF_23_020
       23 02 00          
046D54 C2 00 00 39 00 00 0473 	dl 0x0000C2,0x000039,BUF_23_020
       23 02 00          
046D5D F0 00 00 39 00 00 0474 	dl 0x0000F0,0x000039,BUF_23_020
       23 02 00          
046D66 1D 01 00 39 00 00 0475 	dl 0x00011D,0x000039,BUF_23_020
       23 02 00          
046D6F 11 00 00 30 00 00 0476 	dl 0x000011,0x000030,BUF_23_032
       24 02 00          
046D78 50 00 00 30 00 00 0477 	dl 0x000050,0x000030,BUF_23_032
       24 02 00          
046D81 91 00 00 30 00 00 0478 	dl 0x000091,0x000030,BUF_23_032
       24 02 00          
046D8A D1 00 00 30 00 00 0479 	dl 0x0000D1,0x000030,BUF_23_032
       24 02 00          
046D93 11 01 00 30 00 00 0480 	dl 0x000111,0x000030,BUF_23_032
       24 02 00          
046D9C 1B 00 00 1A 00 00 0481 	dl 0x00001B,0x00001A,BUF_23_040
       25 02 00          
046DA5 85 00 00 1A 00 00 0482 	dl 0x000085,0x00001A,BUF_23_040
       25 02 00          
046DAE F0 00 00 1A 00 00 0483 	dl 0x0000F0,0x00001A,BUF_23_040
       25 02 00          
046DB7 51 00 00 00 00 00 0484 	dl 0x000051,0x000000,BUF_23_044
       26 02 00          
046DC0                   0485 
046DC0                   0486 ; render_obj_id:24
046DC0                   0487 sprite_obj_004:
046DC0 0A 00 00 4F 00 00 0488 	dl 0x00000A,0x00004F,BUF_24_004
       27 02 00          
046DC9 2D 00 00 4F 00 00 0489 	dl 0x00002D,0x00004F,BUF_24_004
       27 02 00          
046DD2 51 00 00 4F 00 00 0490 	dl 0x000051,0x00004F,BUF_24_004
       27 02 00          
046DDB 74 00 00 4F 00 00 0491 	dl 0x000074,0x00004F,BUF_24_004
       27 02 00          
046DE4 98 00 00 4F 00 00 0492 	dl 0x000098,0x00004F,BUF_24_004
       27 02 00          
046DED BB 00 00 4F 00 00 0493 	dl 0x0000BB,0x00004F,BUF_24_004
       27 02 00          
046DF6 DF 00 00 4F 00 00 0494 	dl 0x0000DF,0x00004F,BUF_24_004
       27 02 00          
046DFF 02 01 00 4F 00 00 0495 	dl 0x000102,0x00004F,BUF_24_004
       27 02 00          
046E08 26 01 00 4F 00 00 0496 	dl 0x000126,0x00004F,BUF_24_004
       27 02 00          
046E11 0C 00 00 4F 00 00 0497 	dl 0x00000C,0x00004F,BUF_24_020
       28 02 00          
046E1A 3A 00 00 4F 00 00 0498 	dl 0x00003A,0x00004F,BUF_24_020
       28 02 00          
046E23 67 00 00 4F 00 00 0499 	dl 0x000067,0x00004F,BUF_24_020
       28 02 00          
046E2C 95 00 00 4F 00 00 0500 	dl 0x000095,0x00004F,BUF_24_020
       28 02 00          
046E35 C2 00 00 4F 00 00 0501 	dl 0x0000C2,0x00004F,BUF_24_020
       28 02 00          
046E3E F0 00 00 4F 00 00 0502 	dl 0x0000F0,0x00004F,BUF_24_020
       28 02 00          
046E47 1D 01 00 4F 00 00 0503 	dl 0x00011D,0x00004F,BUF_24_020
       28 02 00          
046E50 11 00 00 4F 00 00 0504 	dl 0x000011,0x00004F,BUF_24_032
       29 02 00          
046E59 50 00 00 4F 00 00 0505 	dl 0x000050,0x00004F,BUF_24_032
       29 02 00          
046E62 91 00 00 4F 00 00 0506 	dl 0x000091,0x00004F,BUF_24_032
       29 02 00          
046E6B D1 00 00 4F 00 00 0507 	dl 0x0000D1,0x00004F,BUF_24_032
       29 02 00          
046E74 11 01 00 4F 00 00 0508 	dl 0x000111,0x00004F,BUF_24_032
       29 02 00          
046E7D 1D 00 00 4E 00 00 0509 	dl 0x00001D,0x00004E,BUF_24_040
       2A 02 00          
046E86 87 00 00 4E 00 00 0510 	dl 0x000087,0x00004E,BUF_24_040
       2A 02 00          
046E8F F2 00 00 4E 00 00 0511 	dl 0x0000F2,0x00004E,BUF_24_040
       2A 02 00          
046E98 55 00 00 4B 00 00 0512 	dl 0x000055,0x00004B,BUF_24_044
       2B 02 00          
046EA1                   0513 
046EA1                   0514 ; render_obj_id:40
046EA1                   0515 sprite_obj_005:
046EA1 09 00 00 57 00 00 0516 	dl 0x000009,0x000057,BUF_40_004
       2C 02 00          
046EAA 2C 00 00 57 00 00 0517 	dl 0x00002C,0x000057,BUF_40_004
       2C 02 00          
046EB3 50 00 00 57 00 00 0518 	dl 0x000050,0x000057,BUF_40_004
       2C 02 00          
046EBC 73 00 00 57 00 00 0519 	dl 0x000073,0x000057,BUF_40_004
       2C 02 00          
046EC5 97 00 00 57 00 00 0520 	dl 0x000097,0x000057,BUF_40_004
       2C 02 00          
046ECE BA 00 00 57 00 00 0521 	dl 0x0000BA,0x000057,BUF_40_004
       2C 02 00          
046ED7 DE 00 00 57 00 00 0522 	dl 0x0000DE,0x000057,BUF_40_004
       2C 02 00          
046EE0 01 01 00 57 00 00 0523 	dl 0x000101,0x000057,BUF_40_004
       2C 02 00          
046EE9 25 01 00 57 00 00 0524 	dl 0x000125,0x000057,BUF_40_004
       2C 02 00          
046EF2 0B 00 00 5A 00 00 0525 	dl 0x00000B,0x00005A,BUF_40_020
       2D 02 00          
046EFB 39 00 00 5A 00 00 0526 	dl 0x000039,0x00005A,BUF_40_020
       2D 02 00          
046F04 66 00 00 5A 00 00 0527 	dl 0x000066,0x00005A,BUF_40_020
       2D 02 00          
046F0D 94 00 00 5A 00 00 0528 	dl 0x000094,0x00005A,BUF_40_020
       2D 02 00          
046F16 C1 00 00 5A 00 00 0529 	dl 0x0000C1,0x00005A,BUF_40_020
       2D 02 00          
046F1F EF 00 00 5A 00 00 0530 	dl 0x0000EF,0x00005A,BUF_40_020
       2D 02 00          
046F28 1C 01 00 5A 00 00 0531 	dl 0x00011C,0x00005A,BUF_40_020
       2D 02 00          
046F31 10 00 00 5E 00 00 0532 	dl 0x000010,0x00005E,BUF_40_032
       2E 02 00          
046F3A 4F 00 00 5E 00 00 0533 	dl 0x00004F,0x00005E,BUF_40_032
       2E 02 00          
046F43 90 00 00 5E 00 00 0534 	dl 0x000090,0x00005E,BUF_40_032
       2E 02 00          
046F4C D0 00 00 5E 00 00 0535 	dl 0x0000D0,0x00005E,BUF_40_032
       2E 02 00          
046F55 10 01 00 5E 00 00 0536 	dl 0x000110,0x00005E,BUF_40_032
       2E 02 00          
046F5E 1B 00 00 67 00 00 0537 	dl 0x00001B,0x000067,BUF_40_040
       2F 02 00          
046F67 85 00 00 67 00 00 0538 	dl 0x000085,0x000067,BUF_40_040
       2F 02 00          
046F70 F0 00 00 67 00 00 0539 	dl 0x0000F0,0x000067,BUF_40_040
       2F 02 00          
046F79 6E 00 00 96 00 00 0540 	dl 0x00006E,0x000096,BUF_40_044
       30 02 00          
046F82                   0541 
046F82                   0542 ; render_obj_id:41
046F82                   0543 sprite_obj_006:
046F82 09 00 00 51 00 00 0544 	dl 0x000009,0x000051,BUF_41_004
       31 02 00          
046F8B 2C 00 00 51 00 00 0545 	dl 0x00002C,0x000051,BUF_41_004
       31 02 00          
046F94 50 00 00 51 00 00 0546 	dl 0x000050,0x000051,BUF_41_004
       31 02 00          
046F9D 73 00 00 51 00 00 0547 	dl 0x000073,0x000051,BUF_41_004
       31 02 00          
046FA6 97 00 00 51 00 00 0548 	dl 0x000097,0x000051,BUF_41_004
       31 02 00          
046FAF BA 00 00 51 00 00 0549 	dl 0x0000BA,0x000051,BUF_41_004
       31 02 00          
046FB8 DE 00 00 51 00 00 0550 	dl 0x0000DE,0x000051,BUF_41_004
       31 02 00          
046FC1 01 01 00 51 00 00 0551 	dl 0x000101,0x000051,BUF_41_004
       31 02 00          
046FCA 25 01 00 51 00 00 0552 	dl 0x000125,0x000051,BUF_41_004
       31 02 00          
046FD3 0B 00 00 51 00 00 0553 	dl 0x00000B,0x000051,BUF_41_020
       32 02 00          
046FDC 39 00 00 51 00 00 0554 	dl 0x000039,0x000051,BUF_41_020
       32 02 00          
046FE5 66 00 00 51 00 00 0555 	dl 0x000066,0x000051,BUF_41_020
       32 02 00          
046FEE 94 00 00 51 00 00 0556 	dl 0x000094,0x000051,BUF_41_020
       32 02 00          
046FF7 C1 00 00 51 00 00 0557 	dl 0x0000C1,0x000051,BUF_41_020
       32 02 00          
047000 EF 00 00 51 00 00 0558 	dl 0x0000EF,0x000051,BUF_41_020
       32 02 00          
047009 1C 01 00 51 00 00 0559 	dl 0x00011C,0x000051,BUF_41_020
       32 02 00          
047012 10 00 00 52 00 00 0560 	dl 0x000010,0x000052,BUF_41_032
       33 02 00          
04701B 4F 00 00 52 00 00 0561 	dl 0x00004F,0x000052,BUF_41_032
       33 02 00          
047024 90 00 00 52 00 00 0562 	dl 0x000090,0x000052,BUF_41_032
       33 02 00          
04702D D0 00 00 52 00 00 0563 	dl 0x0000D0,0x000052,BUF_41_032
       33 02 00          
047036 10 01 00 52 00 00 0564 	dl 0x000110,0x000052,BUF_41_032
       33 02 00          
04703F 1B 00 00 53 00 00 0565 	dl 0x00001B,0x000053,BUF_41_040
       34 02 00          
047048 85 00 00 53 00 00 0566 	dl 0x000085,0x000053,BUF_41_040
       34 02 00          
047051 F0 00 00 53 00 00 0567 	dl 0x0000F0,0x000053,BUF_41_040
       34 02 00          
04705A 50 00 00 5A 00 00 0568 	dl 0x000050,0x00005A,BUF_41_044
       35 02 00          
047063                   0569 
047063                   0570 ; render_obj_id:42
047063                   0571 sprite_obj_007:
047063 0C 00 00 54 00 00 0572 	dl 0x00000C,0x000054,BUF_42_004
       36 02 00          
04706C 2F 00 00 54 00 00 0573 	dl 0x00002F,0x000054,BUF_42_004
       36 02 00          
047075 53 00 00 54 00 00 0574 	dl 0x000053,0x000054,BUF_42_004
       36 02 00          
04707E 76 00 00 54 00 00 0575 	dl 0x000076,0x000054,BUF_42_004
       36 02 00          
047087 9A 00 00 54 00 00 0576 	dl 0x00009A,0x000054,BUF_42_004
       36 02 00          
047090 BD 00 00 54 00 00 0577 	dl 0x0000BD,0x000054,BUF_42_004
       36 02 00          
047099 E1 00 00 54 00 00 0578 	dl 0x0000E1,0x000054,BUF_42_004
       36 02 00          
0470A2 04 01 00 54 00 00 0579 	dl 0x000104,0x000054,BUF_42_004
       36 02 00          
0470AB 28 01 00 54 00 00 0580 	dl 0x000128,0x000054,BUF_42_004
       36 02 00          
0470B4 0E 00 00 55 00 00 0581 	dl 0x00000E,0x000055,BUF_42_020
       37 02 00          
0470BD 3C 00 00 55 00 00 0582 	dl 0x00003C,0x000055,BUF_42_020
       37 02 00          
0470C6 69 00 00 55 00 00 0583 	dl 0x000069,0x000055,BUF_42_020
       37 02 00          
0470CF 97 00 00 55 00 00 0584 	dl 0x000097,0x000055,BUF_42_020
       37 02 00          
0470D8 C4 00 00 55 00 00 0585 	dl 0x0000C4,0x000055,BUF_42_020
       37 02 00          
0470E1 F2 00 00 55 00 00 0586 	dl 0x0000F2,0x000055,BUF_42_020
       37 02 00          
0470EA 1F 01 00 55 00 00 0587 	dl 0x00011F,0x000055,BUF_42_020
       37 02 00          
0470F3 14 00 00 58 00 00 0588 	dl 0x000014,0x000058,BUF_42_032
       38 02 00          
0470FC 53 00 00 58 00 00 0589 	dl 0x000053,0x000058,BUF_42_032
       38 02 00          
047105 94 00 00 58 00 00 0590 	dl 0x000094,0x000058,BUF_42_032
       38 02 00          
04710E D4 00 00 58 00 00 0591 	dl 0x0000D4,0x000058,BUF_42_032
       38 02 00          
047117 14 01 00 58 00 00 0592 	dl 0x000114,0x000058,BUF_42_032
       38 02 00          
047120 22 00 00 5D 00 00 0593 	dl 0x000022,0x00005D,BUF_42_040
       39 02 00          
047129 8C 00 00 5D 00 00 0594 	dl 0x00008C,0x00005D,BUF_42_040
       39 02 00          
047132 F7 00 00 5D 00 00 0595 	dl 0x0000F7,0x00005D,BUF_42_040
       39 02 00          
04713B 64 00 00 78 00 00 0596 	dl 0x000064,0x000078,BUF_42_044
       3A 02 00          
047144                   0597 
047144                   0598 ; render_obj_id:43
047144                   0599 sprite_obj_008:
047144 09 00 00 5B 00 00 0600 	dl 0x000009,0x00005B,BUF_43_004
       3B 02 00          
04714D 2C 00 00 5B 00 00 0601 	dl 0x00002C,0x00005B,BUF_43_004
       3B 02 00          
047156 50 00 00 5B 00 00 0602 	dl 0x000050,0x00005B,BUF_43_004
       3B 02 00          
04715F 73 00 00 5B 00 00 0603 	dl 0x000073,0x00005B,BUF_43_004
       3B 02 00          
047168 97 00 00 5B 00 00 0604 	dl 0x000097,0x00005B,BUF_43_004
       3B 02 00          
047171 BA 00 00 5B 00 00 0605 	dl 0x0000BA,0x00005B,BUF_43_004
       3B 02 00          
04717A DE 00 00 5B 00 00 0606 	dl 0x0000DE,0x00005B,BUF_43_004
       3B 02 00          
047183 01 01 00 5B 00 00 0607 	dl 0x000101,0x00005B,BUF_43_004
       3B 02 00          
04718C 25 01 00 5B 00 00 0608 	dl 0x000125,0x00005B,BUF_43_004
       3B 02 00          
047195 0B 00 00 5E 00 00 0609 	dl 0x00000B,0x00005E,BUF_43_020
       3C 02 00          
04719E 39 00 00 5E 00 00 0610 	dl 0x000039,0x00005E,BUF_43_020
       3C 02 00          
0471A7 66 00 00 5E 00 00 0611 	dl 0x000066,0x00005E,BUF_43_020
       3C 02 00          
0471B0 94 00 00 5E 00 00 0612 	dl 0x000094,0x00005E,BUF_43_020
       3C 02 00          
0471B9 C1 00 00 5E 00 00 0613 	dl 0x0000C1,0x00005E,BUF_43_020
       3C 02 00          
0471C2 EF 00 00 5E 00 00 0614 	dl 0x0000EF,0x00005E,BUF_43_020
       3C 02 00          
0471CB 1C 01 00 5E 00 00 0615 	dl 0x00011C,0x00005E,BUF_43_020
       3C 02 00          
0471D4 10 00 00 64 00 00 0616 	dl 0x000010,0x000064,BUF_43_032
       3D 02 00          
0471DD 4F 00 00 64 00 00 0617 	dl 0x00004F,0x000064,BUF_43_032
       3D 02 00          
0471E6 90 00 00 64 00 00 0618 	dl 0x000090,0x000064,BUF_43_032
       3D 02 00          
0471EF D0 00 00 64 00 00 0619 	dl 0x0000D0,0x000064,BUF_43_032
       3D 02 00          
0471F8 10 01 00 64 00 00 0620 	dl 0x000110,0x000064,BUF_43_032
       3D 02 00          
047201 1B 00 00 71 00 00 0621 	dl 0x00001B,0x000071,BUF_43_040
       3E 02 00          
04720A 85 00 00 71 00 00 0622 	dl 0x000085,0x000071,BUF_43_040
       3E 02 00          
047213 F0 00 00 71 00 00 0623 	dl 0x0000F0,0x000071,BUF_43_040
       3E 02 00          
04721C F0 00 00 A0 00 00 0624 	dl 0x0000F0,0x0000A0,BUF_43_044
       3F 02 00          
047225                   0625 
047225                   0626 ; render_obj_id:44
047225                   0627 sprite_obj_009:
047225 0D 00 00 56 00 00 0628 	dl 0x00000D,0x000056,BUF_44_004
       40 02 00          
04722E 30 00 00 56 00 00 0629 	dl 0x000030,0x000056,BUF_44_004
       40 02 00          
047237 54 00 00 56 00 00 0630 	dl 0x000054,0x000056,BUF_44_004
       40 02 00          
047240 77 00 00 56 00 00 0631 	dl 0x000077,0x000056,BUF_44_004
       40 02 00          
047249 9B 00 00 56 00 00 0632 	dl 0x00009B,0x000056,BUF_44_004
       40 02 00          
047252 BE 00 00 56 00 00 0633 	dl 0x0000BE,0x000056,BUF_44_004
       40 02 00          
04725B E2 00 00 56 00 00 0634 	dl 0x0000E2,0x000056,BUF_44_004
       40 02 00          
047264 05 01 00 56 00 00 0635 	dl 0x000105,0x000056,BUF_44_004
       40 02 00          
04726D 29 01 00 56 00 00 0636 	dl 0x000129,0x000056,BUF_44_004
       40 02 00          
047276 10 00 00 58 00 00 0637 	dl 0x000010,0x000058,BUF_44_020
       41 02 00          
04727F 3E 00 00 58 00 00 0638 	dl 0x00003E,0x000058,BUF_44_020
       41 02 00          
047288 6B 00 00 58 00 00 0639 	dl 0x00006B,0x000058,BUF_44_020
       41 02 00          
047291 99 00 00 58 00 00 0640 	dl 0x000099,0x000058,BUF_44_020
       41 02 00          
04729A C6 00 00 58 00 00 0641 	dl 0x0000C6,0x000058,BUF_44_020
       41 02 00          
0472A3 F4 00 00 58 00 00 0642 	dl 0x0000F4,0x000058,BUF_44_020
       41 02 00          
0472AC 21 01 00 58 00 00 0643 	dl 0x000121,0x000058,BUF_44_020
       41 02 00          
0472B5 16 00 00 5C 00 00 0644 	dl 0x000016,0x00005C,BUF_44_032
       42 02 00          
0472BE 55 00 00 5C 00 00 0645 	dl 0x000055,0x00005C,BUF_44_032
       42 02 00          
0472C7 96 00 00 5C 00 00 0646 	dl 0x000096,0x00005C,BUF_44_032
       42 02 00          
0472D0 D6 00 00 5C 00 00 0647 	dl 0x0000D6,0x00005C,BUF_44_032
       42 02 00          
0472D9 16 01 00 5C 00 00 0648 	dl 0x000116,0x00005C,BUF_44_032
       42 02 00          
0472E2 26 00 00 64 00 00 0649 	dl 0x000026,0x000064,BUF_44_040
       43 02 00          
0472EB 90 00 00 64 00 00 0650 	dl 0x000090,0x000064,BUF_44_040
       43 02 00          
0472F4 FB 00 00 64 00 00 0651 	dl 0x0000FB,0x000064,BUF_44_040
       43 02 00          
0472FD 6E 00 00 8C 00 00 0652 	dl 0x00006E,0x00008C,BUF_44_044
       44 02 00          
047306                   0653 
047306                   0654 ; render_obj_id:45
047306                   0655 sprite_obj_010:
047306 09 00 00 55 00 00 0656 	dl 0x000009,0x000055,BUF_45_004
       45 02 00          
04730F 2C 00 00 55 00 00 0657 	dl 0x00002C,0x000055,BUF_45_004
       45 02 00          
047318 50 00 00 55 00 00 0658 	dl 0x000050,0x000055,BUF_45_004
       45 02 00          
047321 73 00 00 55 00 00 0659 	dl 0x000073,0x000055,BUF_45_004
       45 02 00          
04732A 97 00 00 55 00 00 0660 	dl 0x000097,0x000055,BUF_45_004
       45 02 00          
047333 BA 00 00 55 00 00 0661 	dl 0x0000BA,0x000055,BUF_45_004
       45 02 00          
04733C DE 00 00 55 00 00 0662 	dl 0x0000DE,0x000055,BUF_45_004
       45 02 00          
047345 01 01 00 55 00 00 0663 	dl 0x000101,0x000055,BUF_45_004
       45 02 00          
04734E 25 01 00 55 00 00 0664 	dl 0x000125,0x000055,BUF_45_004
       45 02 00          
047357 0B 00 00 57 00 00 0665 	dl 0x00000B,0x000057,BUF_45_020
       46 02 00          
047360 39 00 00 57 00 00 0666 	dl 0x000039,0x000057,BUF_45_020
       46 02 00          
047369 66 00 00 57 00 00 0667 	dl 0x000066,0x000057,BUF_45_020
       46 02 00          
047372 94 00 00 57 00 00 0668 	dl 0x000094,0x000057,BUF_45_020
       46 02 00          
04737B C1 00 00 57 00 00 0669 	dl 0x0000C1,0x000057,BUF_45_020
       46 02 00          
047384 EF 00 00 57 00 00 0670 	dl 0x0000EF,0x000057,BUF_45_020
       46 02 00          
04738D 1C 01 00 57 00 00 0671 	dl 0x00011C,0x000057,BUF_45_020
       46 02 00          
047396 10 00 00 5A 00 00 0672 	dl 0x000010,0x00005A,BUF_45_032
       47 02 00          
04739F 4F 00 00 5A 00 00 0673 	dl 0x00004F,0x00005A,BUF_45_032
       47 02 00          
0473A8 90 00 00 5A 00 00 0674 	dl 0x000090,0x00005A,BUF_45_032
       47 02 00          
0473B1 D0 00 00 5A 00 00 0675 	dl 0x0000D0,0x00005A,BUF_45_032
       47 02 00          
0473BA 10 01 00 5A 00 00 0676 	dl 0x000110,0x00005A,BUF_45_032
       47 02 00          
0473C3 1B 00 00 60 00 00 0677 	dl 0x00001B,0x000060,BUF_45_040
       48 02 00          
0473CC 85 00 00 60 00 00 0678 	dl 0x000085,0x000060,BUF_45_040
       48 02 00          
0473D5 F0 00 00 60 00 00 0679 	dl 0x0000F0,0x000060,BUF_45_040
       48 02 00          
0473DE 50 00 00 82 00 00 0680 	dl 0x000050,0x000082,BUF_45_044
       49 02 00          
0473E7                   0681 
0473E7                   0682 ; render_obj_id:46
0473E7                   0683 sprite_obj_011:
0473E7 09 00 00 57 00 00 0684 	dl 0x000009,0x000057,BUF_46_004
       4A 02 00          
0473F0 2C 00 00 57 00 00 0685 	dl 0x00002C,0x000057,BUF_46_004
       4A 02 00          
0473F9 50 00 00 57 00 00 0686 	dl 0x000050,0x000057,BUF_46_004
       4A 02 00          
047402 73 00 00 57 00 00 0687 	dl 0x000073,0x000057,BUF_46_004
       4A 02 00          
04740B 97 00 00 57 00 00 0688 	dl 0x000097,0x000057,BUF_46_004
       4A 02 00          
047414 BA 00 00 57 00 00 0689 	dl 0x0000BA,0x000057,BUF_46_004
       4A 02 00          
04741D DE 00 00 57 00 00 0690 	dl 0x0000DE,0x000057,BUF_46_004
       4A 02 00          
047426 01 01 00 57 00 00 0691 	dl 0x000101,0x000057,BUF_46_004
       4A 02 00          
04742F 25 01 00 57 00 00 0692 	dl 0x000125,0x000057,BUF_46_004
       4A 02 00          
047438 0B 00 00 5A 00 00 0693 	dl 0x00000B,0x00005A,BUF_46_020
       4B 02 00          
047441 39 00 00 5A 00 00 0694 	dl 0x000039,0x00005A,BUF_46_020
       4B 02 00          
04744A 66 00 00 5A 00 00 0695 	dl 0x000066,0x00005A,BUF_46_020
       4B 02 00          
047453 94 00 00 5A 00 00 0696 	dl 0x000094,0x00005A,BUF_46_020
       4B 02 00          
04745C C1 00 00 5A 00 00 0697 	dl 0x0000C1,0x00005A,BUF_46_020
       4B 02 00          
047465 EF 00 00 5A 00 00 0698 	dl 0x0000EF,0x00005A,BUF_46_020
       4B 02 00          
04746E 1C 01 00 5A 00 00 0699 	dl 0x00011C,0x00005A,BUF_46_020
       4B 02 00          
047477 10 00 00 5E 00 00 0700 	dl 0x000010,0x00005E,BUF_46_032
       4C 02 00          
047480 4F 00 00 5E 00 00 0701 	dl 0x00004F,0x00005E,BUF_46_032
       4C 02 00          
047489 90 00 00 5E 00 00 0702 	dl 0x000090,0x00005E,BUF_46_032
       4C 02 00          
047492 D0 00 00 5E 00 00 0703 	dl 0x0000D0,0x00005E,BUF_46_032
       4C 02 00          
04749B 10 01 00 5E 00 00 0704 	dl 0x000110,0x00005E,BUF_46_032
       4C 02 00          
0474A4 1B 00 00 67 00 00 0705 	dl 0x00001B,0x000067,BUF_46_040
       4D 02 00          
0474AD 85 00 00 67 00 00 0706 	dl 0x000085,0x000067,BUF_46_040
       4D 02 00          
0474B6 F0 00 00 67 00 00 0707 	dl 0x0000F0,0x000067,BUF_46_040
       4D 02 00          
0474BF 8C 00 00 96 00 00 0708 	dl 0x00008C,0x000096,BUF_46_044
       4E 02 00          
0474C8                   0709 
0474C8                   0710 ; render_obj_id:47
0474C8                   0711 sprite_obj_012:
0474C8 09 00 00 56 00 00 0712 	dl 0x000009,0x000056,BUF_47_004
       4F 02 00          
0474D1 2C 00 00 56 00 00 0713 	dl 0x00002C,0x000056,BUF_47_004
       4F 02 00          
0474DA 50 00 00 56 00 00 0714 	dl 0x000050,0x000056,BUF_47_004
       4F 02 00          
0474E3 73 00 00 56 00 00 0715 	dl 0x000073,0x000056,BUF_47_004
       4F 02 00          
0474EC 97 00 00 56 00 00 0716 	dl 0x000097,0x000056,BUF_47_004
       4F 02 00          
0474F5 BA 00 00 56 00 00 0717 	dl 0x0000BA,0x000056,BUF_47_004
       4F 02 00          
0474FE DE 00 00 56 00 00 0718 	dl 0x0000DE,0x000056,BUF_47_004
       4F 02 00          
047507 01 01 00 56 00 00 0719 	dl 0x000101,0x000056,BUF_47_004
       4F 02 00          
047510 25 01 00 56 00 00 0720 	dl 0x000125,0x000056,BUF_47_004
       4F 02 00          
047519 0B 00 00 58 00 00 0721 	dl 0x00000B,0x000058,BUF_47_020
       50 02 00          
047522 39 00 00 58 00 00 0722 	dl 0x000039,0x000058,BUF_47_020
       50 02 00          
04752B 66 00 00 58 00 00 0723 	dl 0x000066,0x000058,BUF_47_020
       50 02 00          
047534 94 00 00 58 00 00 0724 	dl 0x000094,0x000058,BUF_47_020
       50 02 00          
04753D C1 00 00 58 00 00 0725 	dl 0x0000C1,0x000058,BUF_47_020
       50 02 00          
047546 EF 00 00 58 00 00 0726 	dl 0x0000EF,0x000058,BUF_47_020
       50 02 00          
04754F 1C 01 00 58 00 00 0727 	dl 0x00011C,0x000058,BUF_47_020
       50 02 00          
047558 10 00 00 5C 00 00 0728 	dl 0x000010,0x00005C,BUF_47_032
       51 02 00          
047561 4F 00 00 5C 00 00 0729 	dl 0x00004F,0x00005C,BUF_47_032
       51 02 00          
04756A 90 00 00 5C 00 00 0730 	dl 0x000090,0x00005C,BUF_47_032
       51 02 00          
047573 D0 00 00 5C 00 00 0731 	dl 0x0000D0,0x00005C,BUF_47_032
       51 02 00          
04757C 10 01 00 5C 00 00 0732 	dl 0x000110,0x00005C,BUF_47_032
       51 02 00          
047585 1B 00 00 64 00 00 0733 	dl 0x00001B,0x000064,BUF_47_040
       52 02 00          
04758E 85 00 00 64 00 00 0734 	dl 0x000085,0x000064,BUF_47_040
       52 02 00          
047597 F0 00 00 64 00 00 0735 	dl 0x0000F0,0x000064,BUF_47_040
       52 02 00          
0475A0 B4 00 00 8C 00 00 0736 	dl 0x0000B4,0x00008C,BUF_47_044
       53 02 00          
0475A9                   0737 
0475A9                   0738 ; render_obj_id:48
0475A9                   0739 sprite_obj_013:
0475A9 0C 00 00 5B 00 00 0740 	dl 0x00000C,0x00005B,BUF_48_004
       54 02 00          
0475B2 2F 00 00 5B 00 00 0741 	dl 0x00002F,0x00005B,BUF_48_004
       54 02 00          
0475BB 53 00 00 5B 00 00 0742 	dl 0x000053,0x00005B,BUF_48_004
       54 02 00          
0475C4 76 00 00 5B 00 00 0743 	dl 0x000076,0x00005B,BUF_48_004
       54 02 00          
0475CD 9A 00 00 5B 00 00 0744 	dl 0x00009A,0x00005B,BUF_48_004
       54 02 00          
0475D6 BD 00 00 5B 00 00 0745 	dl 0x0000BD,0x00005B,BUF_48_004
       54 02 00          
0475DF E1 00 00 5B 00 00 0746 	dl 0x0000E1,0x00005B,BUF_48_004
       54 02 00          
0475E8 04 01 00 5B 00 00 0747 	dl 0x000104,0x00005B,BUF_48_004
       54 02 00          
0475F1 28 01 00 5B 00 00 0748 	dl 0x000128,0x00005B,BUF_48_004
       54 02 00          
0475FA 0E 00 00 5E 00 00 0749 	dl 0x00000E,0x00005E,BUF_48_020
       55 02 00          
047603 3C 00 00 5E 00 00 0750 	dl 0x00003C,0x00005E,BUF_48_020
       55 02 00          
04760C 69 00 00 5E 00 00 0751 	dl 0x000069,0x00005E,BUF_48_020
       55 02 00          
047615 97 00 00 5E 00 00 0752 	dl 0x000097,0x00005E,BUF_48_020
       55 02 00          
04761E C4 00 00 5E 00 00 0753 	dl 0x0000C4,0x00005E,BUF_48_020
       55 02 00          
047627 F2 00 00 5E 00 00 0754 	dl 0x0000F2,0x00005E,BUF_48_020
       55 02 00          
047630 1F 01 00 5E 00 00 0755 	dl 0x00011F,0x00005E,BUF_48_020
       55 02 00          
047639 14 00 00 64 00 00 0756 	dl 0x000014,0x000064,BUF_48_032
       56 02 00          
047642 53 00 00 64 00 00 0757 	dl 0x000053,0x000064,BUF_48_032
       56 02 00          
04764B 94 00 00 64 00 00 0758 	dl 0x000094,0x000064,BUF_48_032
       56 02 00          
047654 D4 00 00 64 00 00 0759 	dl 0x0000D4,0x000064,BUF_48_032
       56 02 00          
04765D 14 01 00 64 00 00 0760 	dl 0x000114,0x000064,BUF_48_032
       56 02 00          
047666 22 00 00 71 00 00 0761 	dl 0x000022,0x000071,BUF_48_040
       57 02 00          
04766F 8C 00 00 71 00 00 0762 	dl 0x00008C,0x000071,BUF_48_040
       57 02 00          
047678 F7 00 00 71 00 00 0763 	dl 0x0000F7,0x000071,BUF_48_040
       57 02 00          
047681 F0 00 00 A0 00 00 0764 	dl 0x0000F0,0x0000A0,BUF_48_044
       58 02 00          
04768A                   0765 
04768A                   0766 ; render_obj_id:49
04768A                   0767 sprite_obj_014:
04768A 0B 00 00 58 00 00 0768 	dl 0x00000B,0x000058,BUF_49_004
       59 02 00          
047693 2E 00 00 58 00 00 0769 	dl 0x00002E,0x000058,BUF_49_004
       59 02 00          
04769C 52 00 00 58 00 00 0770 	dl 0x000052,0x000058,BUF_49_004
       59 02 00          
0476A5 75 00 00 58 00 00 0771 	dl 0x000075,0x000058,BUF_49_004
       59 02 00          
0476AE 99 00 00 58 00 00 0772 	dl 0x000099,0x000058,BUF_49_004
       59 02 00          
0476B7 BC 00 00 58 00 00 0773 	dl 0x0000BC,0x000058,BUF_49_004
       59 02 00          
0476C0 E0 00 00 58 00 00 0774 	dl 0x0000E0,0x000058,BUF_49_004
       59 02 00          
0476C9 03 01 00 58 00 00 0775 	dl 0x000103,0x000058,BUF_49_004
       59 02 00          
0476D2 27 01 00 58 00 00 0776 	dl 0x000127,0x000058,BUF_49_004
       59 02 00          
0476DB 0D 00 00 5B 00 00 0777 	dl 0x00000D,0x00005B,BUF_49_020
       5A 02 00          
0476E4 3B 00 00 5B 00 00 0778 	dl 0x00003B,0x00005B,BUF_49_020
       5A 02 00          
0476ED 68 00 00 5B 00 00 0779 	dl 0x000068,0x00005B,BUF_49_020
       5A 02 00          
0476F6 96 00 00 5B 00 00 0780 	dl 0x000096,0x00005B,BUF_49_020
       5A 02 00          
0476FF C3 00 00 5B 00 00 0781 	dl 0x0000C3,0x00005B,BUF_49_020
       5A 02 00          
047708 F1 00 00 5B 00 00 0782 	dl 0x0000F1,0x00005B,BUF_49_020
       5A 02 00          
047711 1E 01 00 5B 00 00 0783 	dl 0x00011E,0x00005B,BUF_49_020
       5A 02 00          
04771A 12 00 00 60 00 00 0784 	dl 0x000012,0x000060,BUF_49_032
       5B 02 00          
047723 51 00 00 60 00 00 0785 	dl 0x000051,0x000060,BUF_49_032
       5B 02 00          
04772C 92 00 00 60 00 00 0786 	dl 0x000092,0x000060,BUF_49_032
       5B 02 00          
047735 D2 00 00 60 00 00 0787 	dl 0x0000D2,0x000060,BUF_49_032
       5B 02 00          
04773E 12 01 00 60 00 00 0788 	dl 0x000112,0x000060,BUF_49_032
       5B 02 00          
047747 1F 00 00 6A 00 00 0789 	dl 0x00001F,0x00006A,BUF_49_040
       5C 02 00          
047750 89 00 00 6A 00 00 0790 	dl 0x000089,0x00006A,BUF_49_040
       5C 02 00          
047759 F4 00 00 6A 00 00 0791 	dl 0x0000F4,0x00006A,BUF_49_040
       5C 02 00          
047762 F0 00 00 A0 00 00 0792 	dl 0x0000F0,0x0000A0,BUF_49_044
       5D 02 00          
04776B                   0793 
04776B                   0794 ; render_obj_id:50
04776B                   0795 sprite_obj_015:
04776B 0D 00 00 53 00 00 0796 	dl 0x00000D,0x000053,BUF_50_004
       5E 02 00          
047774 30 00 00 53 00 00 0797 	dl 0x000030,0x000053,BUF_50_004
       5E 02 00          
04777D 54 00 00 53 00 00 0798 	dl 0x000054,0x000053,BUF_50_004
       5E 02 00          
047786 77 00 00 53 00 00 0799 	dl 0x000077,0x000053,BUF_50_004
       5E 02 00          
04778F 9B 00 00 53 00 00 0800 	dl 0x00009B,0x000053,BUF_50_004
       5E 02 00          
047798 BE 00 00 53 00 00 0801 	dl 0x0000BE,0x000053,BUF_50_004
       5E 02 00          
0477A1 E2 00 00 53 00 00 0802 	dl 0x0000E2,0x000053,BUF_50_004
       5E 02 00          
0477AA 05 01 00 53 00 00 0803 	dl 0x000105,0x000053,BUF_50_004
       5E 02 00          
0477B3 29 01 00 53 00 00 0804 	dl 0x000129,0x000053,BUF_50_004
       5E 02 00          
0477BC 10 00 00 54 00 00 0805 	dl 0x000010,0x000054,BUF_50_020
       5F 02 00          
0477C5 3E 00 00 54 00 00 0806 	dl 0x00003E,0x000054,BUF_50_020
       5F 02 00          
0477CE 6B 00 00 54 00 00 0807 	dl 0x00006B,0x000054,BUF_50_020
       5F 02 00          
0477D7 99 00 00 54 00 00 0808 	dl 0x000099,0x000054,BUF_50_020
       5F 02 00          
0477E0 C6 00 00 54 00 00 0809 	dl 0x0000C6,0x000054,BUF_50_020
       5F 02 00          
0477E9 F4 00 00 54 00 00 0810 	dl 0x0000F4,0x000054,BUF_50_020
       5F 02 00          
0477F2 21 01 00 54 00 00 0811 	dl 0x000121,0x000054,BUF_50_020
       5F 02 00          
0477FB 16 00 00 56 00 00 0812 	dl 0x000016,0x000056,BUF_50_032
       60 02 00          
047804 55 00 00 56 00 00 0813 	dl 0x000055,0x000056,BUF_50_032
       60 02 00          
04780D 96 00 00 56 00 00 0814 	dl 0x000096,0x000056,BUF_50_032
       60 02 00          
047816 D6 00 00 56 00 00 0815 	dl 0x0000D6,0x000056,BUF_50_032
       60 02 00          
04781F 16 01 00 56 00 00 0816 	dl 0x000116,0x000056,BUF_50_032
       60 02 00          
047828 26 00 00 5A 00 00 0817 	dl 0x000026,0x00005A,BUF_50_040
       61 02 00          
047831 90 00 00 5A 00 00 0818 	dl 0x000090,0x00005A,BUF_50_040
       61 02 00          
04783A FB 00 00 5A 00 00 0819 	dl 0x0000FB,0x00005A,BUF_50_040
       61 02 00          
047843 78 00 00 6E 00 00 0820 	dl 0x000078,0x00006E,BUF_50_044
       62 02 00          
04784C                   0821 
04784C                   0822 ; render_obj_id:51
04784C                   0823 sprite_obj_016:
04784C 0A 00 00 46 00 00 0824 	dl 0x00000A,0x000046,BUF_51_004
       63 02 00          
047855 2D 00 00 46 00 00 0825 	dl 0x00002D,0x000046,BUF_51_004
       63 02 00          
04785E 51 00 00 46 00 00 0826 	dl 0x000051,0x000046,BUF_51_004
       63 02 00          
047867 74 00 00 46 00 00 0827 	dl 0x000074,0x000046,BUF_51_004
       63 02 00          
047870 98 00 00 46 00 00 0828 	dl 0x000098,0x000046,BUF_51_004
       63 02 00          
047879 BB 00 00 46 00 00 0829 	dl 0x0000BB,0x000046,BUF_51_004
       63 02 00          
047882 DF 00 00 46 00 00 0830 	dl 0x0000DF,0x000046,BUF_51_004
       63 02 00          
04788B 02 01 00 46 00 00 0831 	dl 0x000102,0x000046,BUF_51_004
       63 02 00          
047894 26 01 00 46 00 00 0832 	dl 0x000126,0x000046,BUF_51_004
       63 02 00          
04789D 0C 00 00 44 00 00 0833 	dl 0x00000C,0x000044,BUF_51_020
       64 02 00          
0478A6 3A 00 00 44 00 00 0834 	dl 0x00003A,0x000044,BUF_51_020
       64 02 00          
0478AF 67 00 00 44 00 00 0835 	dl 0x000067,0x000044,BUF_51_020
       64 02 00          
0478B8 95 00 00 44 00 00 0836 	dl 0x000095,0x000044,BUF_51_020
       64 02 00          
0478C1 C2 00 00 44 00 00 0837 	dl 0x0000C2,0x000044,BUF_51_020
       64 02 00          
0478CA F0 00 00 44 00 00 0838 	dl 0x0000F0,0x000044,BUF_51_020
       64 02 00          
0478D3 1D 01 00 44 00 00 0839 	dl 0x00011D,0x000044,BUF_51_020
       64 02 00          
0478DC 11 00 00 40 00 00 0840 	dl 0x000011,0x000040,BUF_51_032
       65 02 00          
0478E5 50 00 00 40 00 00 0841 	dl 0x000050,0x000040,BUF_51_032
       65 02 00          
0478EE 91 00 00 40 00 00 0842 	dl 0x000091,0x000040,BUF_51_032
       65 02 00          
0478F7 D1 00 00 40 00 00 0843 	dl 0x0000D1,0x000040,BUF_51_032
       65 02 00          
047900 11 01 00 40 00 00 0844 	dl 0x000111,0x000040,BUF_51_032
       65 02 00          
047909 1D 00 00 34 00 00 0845 	dl 0x00001D,0x000034,BUF_51_040
       66 02 00          
047912 87 00 00 34 00 00 0846 	dl 0x000087,0x000034,BUF_51_040
       66 02 00          
04791B F2 00 00 34 00 00 0847 	dl 0x0000F2,0x000034,BUF_51_040
       66 02 00          
047924 55 00 00 00 00 00 0848 	dl 0x000055,0x000000,BUF_51_044
       67 02 00          
04792D                   0849 
04792D                   0850 ; render_obj_id:52
04792D                   0851 sprite_obj_017:
04792D 0B 00 00 46 00 00 0852 	dl 0x00000B,0x000046,BUF_52_004
       68 02 00          
047936 2E 00 00 46 00 00 0853 	dl 0x00002E,0x000046,BUF_52_004
       68 02 00          
04793F 52 00 00 46 00 00 0854 	dl 0x000052,0x000046,BUF_52_004
       68 02 00          
047948 75 00 00 46 00 00 0855 	dl 0x000075,0x000046,BUF_52_004
       68 02 00          
047951 99 00 00 46 00 00 0856 	dl 0x000099,0x000046,BUF_52_004
       68 02 00          
04795A BC 00 00 46 00 00 0857 	dl 0x0000BC,0x000046,BUF_52_004
       68 02 00          
047963 E0 00 00 46 00 00 0858 	dl 0x0000E0,0x000046,BUF_52_004
       68 02 00          
04796C 03 01 00 46 00 00 0859 	dl 0x000103,0x000046,BUF_52_004
       68 02 00          
047975 27 01 00 46 00 00 0860 	dl 0x000127,0x000046,BUF_52_004
       68 02 00          
04797E 0E 00 00 44 00 00 0861 	dl 0x00000E,0x000044,BUF_52_020
       69 02 00          
047987 3C 00 00 44 00 00 0862 	dl 0x00003C,0x000044,BUF_52_020
       69 02 00          
047990 69 00 00 44 00 00 0863 	dl 0x000069,0x000044,BUF_52_020
       69 02 00          
047999 97 00 00 44 00 00 0864 	dl 0x000097,0x000044,BUF_52_020
       69 02 00          
0479A2 C4 00 00 44 00 00 0865 	dl 0x0000C4,0x000044,BUF_52_020
       69 02 00          
0479AB F2 00 00 44 00 00 0866 	dl 0x0000F2,0x000044,BUF_52_020
       69 02 00          
0479B4 1F 01 00 44 00 00 0867 	dl 0x00011F,0x000044,BUF_52_020
       69 02 00          
0479BD 14 00 00 40 00 00 0868 	dl 0x000014,0x000040,BUF_52_032
       6A 02 00          
0479C6 53 00 00 40 00 00 0869 	dl 0x000053,0x000040,BUF_52_032
       6A 02 00          
0479CF 94 00 00 40 00 00 0870 	dl 0x000094,0x000040,BUF_52_032
       6A 02 00          
0479D8 D4 00 00 40 00 00 0871 	dl 0x0000D4,0x000040,BUF_52_032
       6A 02 00          
0479E1 14 01 00 40 00 00 0872 	dl 0x000114,0x000040,BUF_52_032
       6A 02 00          
0479EA 22 00 00 34 00 00 0873 	dl 0x000022,0x000034,BUF_52_040
       6B 02 00          
0479F3 8C 00 00 34 00 00 0874 	dl 0x00008C,0x000034,BUF_52_040
       6B 02 00          
0479FC F7 00 00 34 00 00 0875 	dl 0x0000F7,0x000034,BUF_52_040
       6B 02 00          
047A05 64 00 00 00 00 00 0876 	dl 0x000064,0x000000,BUF_52_044
       6C 02 00          
047A0E                   0877 
047A0E                   0878 sprite_obj_255: ; placeholder to keep the assembler happy, CANNOT BE A VALID sprite_obj
047A0E                   0024 	include "src/asm/font_itc_honda.asm"
047A0E                   0001 ; Bitmap indices:
047A0E                   0002 BUF_4128: equ 0x1020 ; 32
047A0E                   0003 ; Missing character 33 !
047A0E                   0004 ; Missing character 34 "
047A0E                   0005 ; Missing character 35 #
047A0E                   0006 ; Missing character 36 $
047A0E                   0007 ; Missing character 37 %
047A0E                   0008 ; Missing character 38 &
047A0E                   0009 ; Missing character 39 '
047A0E                   0010 ; Missing character 40 (
047A0E                   0011 ; Missing character 41 )
047A0E                   0012 ; Missing character 42 *
047A0E                   0013 ; Missing character 43 +
047A0E                   0014 ; Missing character 44 ,
047A0E                   0015 ; Missing character 45 -
047A0E                   0016 BUF_4142: equ 0x102E ; 46 .
047A0E                   0017 ; Missing character 47 /
047A0E                   0018 BUF_4144: equ 0x1030 ; 48 0
047A0E                   0019 BUF_4145: equ 0x1031 ; 49 1
047A0E                   0020 BUF_4146: equ 0x1032 ; 50 2
047A0E                   0021 BUF_4147: equ 0x1033 ; 51 3
047A0E                   0022 BUF_4148: equ 0x1034 ; 52 4
047A0E                   0023 BUF_4149: equ 0x1035 ; 53 5
047A0E                   0024 BUF_4150: equ 0x1036 ; 54 6
047A0E                   0025 BUF_4151: equ 0x1037 ; 55 7
047A0E                   0026 BUF_4152: equ 0x1038 ; 56 8
047A0E                   0027 BUF_4153: equ 0x1039 ; 57 9
047A0E                   0028 ; Missing character 58 :
047A0E                   0029 ; Missing character 59 ;
047A0E                   0030 ; Missing character 60 <
047A0E                   0031 ; Missing character 61 =
047A0E                   0032 ; Missing character 62 >
047A0E                   0033 ; Missing character 63 ?
047A0E                   0034 ; Missing character 64 @
047A0E                   0035 BUF_4161: equ 0x1041 ; 65 A
047A0E                   0036 BUF_4162: equ 0x1042 ; 66 B
047A0E                   0037 BUF_4163: equ 0x1043 ; 67 C
047A0E                   0038 BUF_4164: equ 0x1044 ; 68 D
047A0E                   0039 BUF_4165: equ 0x1045 ; 69 E
047A0E                   0040 BUF_4166: equ 0x1046 ; 70 F
047A0E                   0041 BUF_4167: equ 0x1047 ; 71 G
047A0E                   0042 BUF_4168: equ 0x1048 ; 72 H
047A0E                   0043 BUF_4169: equ 0x1049 ; 73 I
047A0E                   0044 BUF_4170: equ 0x104A ; 74 J
047A0E                   0045 BUF_4171: equ 0x104B ; 75 K
047A0E                   0046 BUF_4172: equ 0x104C ; 76 L
047A0E                   0047 BUF_4173: equ 0x104D ; 77 M
047A0E                   0048 BUF_4174: equ 0x104E ; 78 N
047A0E                   0049 BUF_4175: equ 0x104F ; 79 O
047A0E                   0050 BUF_4176: equ 0x1050 ; 80 P
047A0E                   0051 BUF_4177: equ 0x1051 ; 81 Q
047A0E                   0052 BUF_4178: equ 0x1052 ; 82 R
047A0E                   0053 BUF_4179: equ 0x1053 ; 83 S
047A0E                   0054 BUF_4180: equ 0x1054 ; 84 T
047A0E                   0055 BUF_4181: equ 0x1055 ; 85 U
047A0E                   0056 BUF_4182: equ 0x1056 ; 86 V
047A0E                   0057 BUF_4183: equ 0x1057 ; 87 W
047A0E                   0058 BUF_4184: equ 0x1058 ; 88 X
047A0E                   0059 BUF_4185: equ 0x1059 ; 89 Y
047A0E                   0060 BUF_4186: equ 0x105A ; 90 Z
047A0E                   0061 ; Missing character 91 [
047A0E                   0062 ; Missing character 92 \
047A0E                   0063 ; Missing character 93 ]
047A0E                   0064 ; Missing character 94 ^
047A0E                   0065 ; Missing character 95 _
047A0E                   0066 ; Missing character 96 `
047A0E                   0067 BUF_4193: equ 0x1061 ; 97 a
047A0E                   0068 BUF_4194: equ 0x1062 ; 98 b
047A0E                   0069 BUF_4195: equ 0x1063 ; 99 c
047A0E                   0070 BUF_4196: equ 0x1064 ; 100 d
047A0E                   0071 BUF_4197: equ 0x1065 ; 101 e
047A0E                   0072 BUF_4198: equ 0x1066 ; 102 f
047A0E                   0073 BUF_4199: equ 0x1067 ; 103 g
047A0E                   0074 BUF_4200: equ 0x1068 ; 104 h
047A0E                   0075 BUF_4201: equ 0x1069 ; 105 i
047A0E                   0076 BUF_4202: equ 0x106A ; 106 j
047A0E                   0077 BUF_4203: equ 0x106B ; 107 k
047A0E                   0078 BUF_4204: equ 0x106C ; 108 l
047A0E                   0079 BUF_4205: equ 0x106D ; 109 m
047A0E                   0080 BUF_4206: equ 0x106E ; 110 n
047A0E                   0081 BUF_4207: equ 0x106F ; 111 o
047A0E                   0082 BUF_4208: equ 0x1070 ; 112 p
047A0E                   0083 BUF_4209: equ 0x1071 ; 113 q
047A0E                   0084 BUF_4210: equ 0x1072 ; 114 r
047A0E                   0085 BUF_4211: equ 0x1073 ; 115 s
047A0E                   0086 BUF_4212: equ 0x1074 ; 116 t
047A0E                   0087 BUF_4213: equ 0x1075 ; 117 u
047A0E                   0088 BUF_4214: equ 0x1076 ; 118 v
047A0E                   0089 BUF_4215: equ 0x1077 ; 119 w
047A0E                   0090 BUF_4216: equ 0x1078 ; 120 x
047A0E                   0091 BUF_4217: equ 0x1079 ; 121 y
047A0E                   0092 BUF_4218: equ 0x107A ; 122 z
047A0E                   0093 ; [y_offset, dim_y, dim_x], buffer_id label: ; mind the little-endian order when fetching these!!!
047A0E                   0094 font_itc_honda:
047A0E 06 01 00 20 10 00 0095 	dl 0x000106,BUF_4128
047A14 06 01 00 20 10 00 0096 	dl 0x000106,BUF_4128 ; Missing character 33
047A1A 06 01 00 20 10 00 0097 	dl 0x000106,BUF_4128 ; Missing character 34
047A20 06 01 00 20 10 00 0098 	dl 0x000106,BUF_4128 ; Missing character 35
047A26 06 01 00 20 10 00 0099 	dl 0x000106,BUF_4128 ; Missing character 36
047A2C 06 01 00 20 10 00 0100 	dl 0x000106,BUF_4128 ; Missing character 37
047A32 06 01 00 20 10 00 0101 	dl 0x000106,BUF_4128 ; Missing character 38
047A38 06 01 00 20 10 00 0102 	dl 0x000106,BUF_4128 ; Missing character 39
047A3E 06 01 00 20 10 00 0103 	dl 0x000106,BUF_4128 ; Missing character 40
047A44 06 01 00 20 10 00 0104 	dl 0x000106,BUF_4128 ; Missing character 41
047A4A 06 01 00 20 10 00 0105 	dl 0x000106,BUF_4128 ; Missing character 42
047A50 06 01 00 20 10 00 0106 	dl 0x000106,BUF_4128 ; Missing character 43
047A56 06 01 00 20 10 00 0107 	dl 0x000106,BUF_4128 ; Missing character 44
047A5C 06 01 00 20 10 00 0108 	dl 0x000106,BUF_4128 ; Missing character 45
047A62 05 05 0E 2E 10 00 0109 	dl 0x0E0505,BUF_4142
047A68 06 01 00 20 10 00 0110 	dl 0x000106,BUF_4128 ; Missing character 47
047A6E 0A 12 00 30 10 00 0111 	dl 0x00120A,BUF_4144
047A74 04 12 00 31 10 00 0112 	dl 0x001204,BUF_4145
047A7A 09 12 00 32 10 00 0113 	dl 0x001209,BUF_4146
047A80 0A 12 00 33 10 00 0114 	dl 0x00120A,BUF_4147
047A86 0C 12 00 34 10 00 0115 	dl 0x00120C,BUF_4148
047A8C 0A 12 00 35 10 00 0116 	dl 0x00120A,BUF_4149
047A92 0A 12 00 36 10 00 0117 	dl 0x00120A,BUF_4150
047A98 08 12 00 37 10 00 0118 	dl 0x001208,BUF_4151
047A9E 0A 12 00 38 10 00 0119 	dl 0x00120A,BUF_4152
047AA4 0A 12 00 39 10 00 0120 	dl 0x00120A,BUF_4153
047AAA 06 01 00 20 10 00 0121 	dl 0x000106,BUF_4128 ; Missing character 58
047AB0 06 01 00 20 10 00 0122 	dl 0x000106,BUF_4128 ; Missing character 59
047AB6 06 01 00 20 10 00 0123 	dl 0x000106,BUF_4128 ; Missing character 60
047ABC 06 01 00 20 10 00 0124 	dl 0x000106,BUF_4128 ; Missing character 61
047AC2 06 01 00 20 10 00 0125 	dl 0x000106,BUF_4128 ; Missing character 62
047AC8 06 01 00 20 10 00 0126 	dl 0x000106,BUF_4128 ; Missing character 63
047ACE 06 01 00 20 10 00 0127 	dl 0x000106,BUF_4128 ; Missing character 64
047AD4 0A 12 01 41 10 00 0128 	dl 0x01120A,BUF_4161
047ADA 0A 12 00 42 10 00 0129 	dl 0x00120A,BUF_4162
047AE0 08 13 00 43 10 00 0130 	dl 0x001308,BUF_4163
047AE6 0A 12 00 44 10 00 0131 	dl 0x00120A,BUF_4164
047AEC 08 12 00 45 10 00 0132 	dl 0x001208,BUF_4165
047AF2 08 12 00 46 10 00 0133 	dl 0x001208,BUF_4166
047AF8 0A 12 00 47 10 00 0134 	dl 0x00120A,BUF_4167
047AFE 0A 12 00 48 10 00 0135 	dl 0x00120A,BUF_4168
047B04 03 12 00 49 10 00 0136 	dl 0x001203,BUF_4169
047B0A 06 12 00 4A 10 00 0137 	dl 0x001206,BUF_4170
047B10 0A 12 00 4B 10 00 0138 	dl 0x00120A,BUF_4171
047B16 08 12 01 4C 10 00 0139 	dl 0x011208,BUF_4172
047B1C 0E 12 00 4D 10 00 0140 	dl 0x00120E,BUF_4173
047B22 0A 12 00 4E 10 00 0141 	dl 0x00120A,BUF_4174
047B28 0A 12 00 4F 10 00 0142 	dl 0x00120A,BUF_4175
047B2E 0A 12 00 50 10 00 0143 	dl 0x00120A,BUF_4176
047B34 0A 15 00 51 10 00 0144 	dl 0x00150A,BUF_4177
047B3A 0A 12 00 52 10 00 0145 	dl 0x00120A,BUF_4178
047B40 09 13 00 53 10 00 0146 	dl 0x001309,BUF_4179
047B46 0A 12 00 54 10 00 0147 	dl 0x00120A,BUF_4180
047B4C 0A 12 00 55 10 00 0148 	dl 0x00120A,BUF_4181
047B52 0A 12 00 56 10 00 0149 	dl 0x00120A,BUF_4182
047B58 10 12 00 57 10 00 0150 	dl 0x001210,BUF_4183
047B5E 0A 12 00 58 10 00 0151 	dl 0x00120A,BUF_4184
047B64 0A 12 01 59 10 00 0152 	dl 0x01120A,BUF_4185
047B6A 09 12 01 5A 10 00 0153 	dl 0x011209,BUF_4186
047B70 06 01 00 20 10 00 0154 	dl 0x000106,BUF_4128 ; Missing character 91
047B76 06 01 00 20 10 00 0155 	dl 0x000106,BUF_4128 ; Missing character 92
047B7C 06 01 00 20 10 00 0156 	dl 0x000106,BUF_4128 ; Missing character 93
047B82 06 01 00 20 10 00 0157 	dl 0x000106,BUF_4128 ; Missing character 94
047B88 06 01 00 20 10 00 0158 	dl 0x000106,BUF_4128 ; Missing character 95
047B8E 06 01 00 20 10 00 0159 	dl 0x000106,BUF_4128 ; Missing character 96
047B94 08 0C 06 61 10 00 0160 	dl 0x060C08,BUF_4193
047B9A 09 12 01 62 10 00 0161 	dl 0x011209,BUF_4194
047BA0 07 0C 06 63 10 00 0162 	dl 0x060C07,BUF_4195
047BA6 09 12 00 64 10 00 0163 	dl 0x001209,BUF_4196
047BAC 08 0C 06 65 10 00 0164 	dl 0x060C08,BUF_4197
047BB2 09 12 00 66 10 00 0165 	dl 0x001209,BUF_4198
047BB8 09 12 06 67 10 00 0166 	dl 0x061209,BUF_4199
047BBE 09 12 01 68 10 00 0167 	dl 0x011209,BUF_4200
047BC4 04 12 00 69 10 00 0168 	dl 0x001204,BUF_4201
047BCA 08 18 00 6A 10 00 0169 	dl 0x001808,BUF_4202
047BD0 09 12 01 6B 10 00 0170 	dl 0x011209,BUF_4203
047BD6 03 12 00 6C 10 00 0171 	dl 0x001203,BUF_4204
047BDC 0E 0D 06 6D 10 00 0172 	dl 0x060D0E,BUF_4205
047BE2 09 0C 06 6E 10 00 0173 	dl 0x060C09,BUF_4206
047BE8 09 0C 06 6F 10 00 0174 	dl 0x060C09,BUF_4207
047BEE 09 12 06 70 10 00 0175 	dl 0x061209,BUF_4208
047BF4 09 12 06 71 10 00 0176 	dl 0x061209,BUF_4209
047BFA 06 0D 06 72 10 00 0177 	dl 0x060D06,BUF_4210
047C00 08 0D 06 73 10 00 0178 	dl 0x060D08,BUF_4211
047C06 07 0F 03 74 10 00 0179 	dl 0x030F07,BUF_4212
047C0C 09 0C 06 75 10 00 0180 	dl 0x060C09,BUF_4213
047C12 09 0C 06 76 10 00 0181 	dl 0x060C09,BUF_4214
047C18 0E 0C 06 77 10 00 0182 	dl 0x060C0E,BUF_4215
047C1E 09 0C 06 78 10 00 0183 	dl 0x060C09,BUF_4216
047C24 09 11 06 79 10 00 0184 	dl 0x061109,BUF_4217
047C2A 09 0C 06 7A 10 00 0185 	dl 0x060C09,BUF_4218
047C30                   0186 
047C30                   0187 ; Import .rgba2 bitmap files and load them into VDP buffers
047C30                   0188 load_font_itc_honda:
047C30                   0189 
047C30 21 71 85 04       0190 	ld hl,Fhonda032
047C34 11 AD A7 04       0191 	ld de,filedata
047C38 01 00 00 01       0192 	ld bc,65536
047C3C 3E 01             0193 	ld a,mos_load
047C3E 5B CF             0194 	RST.LIL 08h
047C40 21 20 10 00       0195 	ld hl,BUF_4128
047C44 01 06 00 00       0196 	ld bc,6
047C48 11 01 00 00       0197 	ld de,1
047C4C DD 21 06 00 00    0198 	ld ix,6
047C51 CD 3E A7 04       0199 	call vdu_load_img
047C55                   0200 ; Missing character 33
047C55                   0201 ; Missing character 34
047C55                   0202 ; Missing character 35
047C55                   0203 ; Missing character 36
047C55                   0204 ; Missing character 37
047C55                   0205 ; Missing character 38
047C55                   0206 ; Missing character 39
047C55                   0207 ; Missing character 40
047C55                   0208 ; Missing character 41
047C55                   0209 ; Missing character 42
047C55                   0210 ; Missing character 43
047C55                   0211 ; Missing character 44
047C55                   0212 ; Missing character 45
047C55                   0213 
047C55 21 87 85 04       0214 	ld hl,Fhonda046
047C59 11 AD A7 04       0215 	ld de,filedata
047C5D 01 00 00 01       0216 	ld bc,65536
047C61 3E 01             0217 	ld a,mos_load
047C63 5B CF             0218 	RST.LIL 08h
047C65 21 2E 10 00       0219 	ld hl,BUF_4142
047C69 01 05 00 00       0220 	ld bc,5
047C6D 11 05 00 00       0221 	ld de,5
047C71 DD 21 19 00 00    0222 	ld ix,25
047C76 CD 3E A7 04       0223 	call vdu_load_img
047C7A                   0224 ; Missing character 47
047C7A                   0225 
047C7A 21 9D 85 04       0226 	ld hl,Fhonda048
047C7E 11 AD A7 04       0227 	ld de,filedata
047C82 01 00 00 01       0228 	ld bc,65536
047C86 3E 01             0229 	ld a,mos_load
047C88 5B CF             0230 	RST.LIL 08h
047C8A 21 30 10 00       0231 	ld hl,BUF_4144
047C8E 01 0A 00 00       0232 	ld bc,10
047C92 11 12 00 00       0233 	ld de,18
047C96 DD 21 B4 00 00    0234 	ld ix,180
047C9B CD 3E A7 04       0235 	call vdu_load_img
047C9F                   0236 
047C9F 21 B3 85 04       0237 	ld hl,Fhonda049
047CA3 11 AD A7 04       0238 	ld de,filedata
047CA7 01 00 00 01       0239 	ld bc,65536
047CAB 3E 01             0240 	ld a,mos_load
047CAD 5B CF             0241 	RST.LIL 08h
047CAF 21 31 10 00       0242 	ld hl,BUF_4145
047CB3 01 04 00 00       0243 	ld bc,4
047CB7 11 12 00 00       0244 	ld de,18
047CBB DD 21 48 00 00    0245 	ld ix,72
047CC0 CD 3E A7 04       0246 	call vdu_load_img
047CC4                   0247 
047CC4 21 C9 85 04       0248 	ld hl,Fhonda050
047CC8 11 AD A7 04       0249 	ld de,filedata
047CCC 01 00 00 01       0250 	ld bc,65536
047CD0 3E 01             0251 	ld a,mos_load
047CD2 5B CF             0252 	RST.LIL 08h
047CD4 21 32 10 00       0253 	ld hl,BUF_4146
047CD8 01 09 00 00       0254 	ld bc,9
047CDC 11 12 00 00       0255 	ld de,18
047CE0 DD 21 A2 00 00    0256 	ld ix,162
047CE5 CD 3E A7 04       0257 	call vdu_load_img
047CE9                   0258 
047CE9 21 DF 85 04       0259 	ld hl,Fhonda051
047CED 11 AD A7 04       0260 	ld de,filedata
047CF1 01 00 00 01       0261 	ld bc,65536
047CF5 3E 01             0262 	ld a,mos_load
047CF7 5B CF             0263 	RST.LIL 08h
047CF9 21 33 10 00       0264 	ld hl,BUF_4147
047CFD 01 0A 00 00       0265 	ld bc,10
047D01 11 12 00 00       0266 	ld de,18
047D05 DD 21 B4 00 00    0267 	ld ix,180
047D0A CD 3E A7 04       0268 	call vdu_load_img
047D0E                   0269 
047D0E 21 F5 85 04       0270 	ld hl,Fhonda052
047D12 11 AD A7 04       0271 	ld de,filedata
047D16 01 00 00 01       0272 	ld bc,65536
047D1A 3E 01             0273 	ld a,mos_load
047D1C 5B CF             0274 	RST.LIL 08h
047D1E 21 34 10 00       0275 	ld hl,BUF_4148
047D22 01 0C 00 00       0276 	ld bc,12
047D26 11 12 00 00       0277 	ld de,18
047D2A DD 21 D8 00 00    0278 	ld ix,216
047D2F CD 3E A7 04       0279 	call vdu_load_img
047D33                   0280 
047D33 21 0B 86 04       0281 	ld hl,Fhonda053
047D37 11 AD A7 04       0282 	ld de,filedata
047D3B 01 00 00 01       0283 	ld bc,65536
047D3F 3E 01             0284 	ld a,mos_load
047D41 5B CF             0285 	RST.LIL 08h
047D43 21 35 10 00       0286 	ld hl,BUF_4149
047D47 01 0A 00 00       0287 	ld bc,10
047D4B 11 12 00 00       0288 	ld de,18
047D4F DD 21 B4 00 00    0289 	ld ix,180
047D54 CD 3E A7 04       0290 	call vdu_load_img
047D58                   0291 
047D58 21 21 86 04       0292 	ld hl,Fhonda054
047D5C 11 AD A7 04       0293 	ld de,filedata
047D60 01 00 00 01       0294 	ld bc,65536
047D64 3E 01             0295 	ld a,mos_load
047D66 5B CF             0296 	RST.LIL 08h
047D68 21 36 10 00       0297 	ld hl,BUF_4150
047D6C 01 0A 00 00       0298 	ld bc,10
047D70 11 12 00 00       0299 	ld de,18
047D74 DD 21 B4 00 00    0300 	ld ix,180
047D79 CD 3E A7 04       0301 	call vdu_load_img
047D7D                   0302 
047D7D 21 37 86 04       0303 	ld hl,Fhonda055
047D81 11 AD A7 04       0304 	ld de,filedata
047D85 01 00 00 01       0305 	ld bc,65536
047D89 3E 01             0306 	ld a,mos_load
047D8B 5B CF             0307 	RST.LIL 08h
047D8D 21 37 10 00       0308 	ld hl,BUF_4151
047D91 01 08 00 00       0309 	ld bc,8
047D95 11 12 00 00       0310 	ld de,18
047D99 DD 21 90 00 00    0311 	ld ix,144
047D9E CD 3E A7 04       0312 	call vdu_load_img
047DA2                   0313 
047DA2 21 4D 86 04       0314 	ld hl,Fhonda056
047DA6 11 AD A7 04       0315 	ld de,filedata
047DAA 01 00 00 01       0316 	ld bc,65536
047DAE 3E 01             0317 	ld a,mos_load
047DB0 5B CF             0318 	RST.LIL 08h
047DB2 21 38 10 00       0319 	ld hl,BUF_4152
047DB6 01 0A 00 00       0320 	ld bc,10
047DBA 11 12 00 00       0321 	ld de,18
047DBE DD 21 B4 00 00    0322 	ld ix,180
047DC3 CD 3E A7 04       0323 	call vdu_load_img
047DC7                   0324 
047DC7 21 63 86 04       0325 	ld hl,Fhonda057
047DCB 11 AD A7 04       0326 	ld de,filedata
047DCF 01 00 00 01       0327 	ld bc,65536
047DD3 3E 01             0328 	ld a,mos_load
047DD5 5B CF             0329 	RST.LIL 08h
047DD7 21 39 10 00       0330 	ld hl,BUF_4153
047DDB 01 0A 00 00       0331 	ld bc,10
047DDF 11 12 00 00       0332 	ld de,18
047DE3 DD 21 B4 00 00    0333 	ld ix,180
047DE8 CD 3E A7 04       0334 	call vdu_load_img
047DEC                   0335 ; Missing character 58
047DEC                   0336 ; Missing character 59
047DEC                   0337 ; Missing character 60
047DEC                   0338 ; Missing character 61
047DEC                   0339 ; Missing character 62
047DEC                   0340 ; Missing character 63
047DEC                   0341 ; Missing character 64
047DEC                   0342 
047DEC 21 79 86 04       0343 	ld hl,Fhonda065
047DF0 11 AD A7 04       0344 	ld de,filedata
047DF4 01 00 00 01       0345 	ld bc,65536
047DF8 3E 01             0346 	ld a,mos_load
047DFA 5B CF             0347 	RST.LIL 08h
047DFC 21 41 10 00       0348 	ld hl,BUF_4161
047E00 01 0A 00 00       0349 	ld bc,10
047E04 11 12 00 00       0350 	ld de,18
047E08 DD 21 B4 00 00    0351 	ld ix,180
047E0D CD 3E A7 04       0352 	call vdu_load_img
047E11                   0353 
047E11 21 8F 86 04       0354 	ld hl,Fhonda066
047E15 11 AD A7 04       0355 	ld de,filedata
047E19 01 00 00 01       0356 	ld bc,65536
047E1D 3E 01             0357 	ld a,mos_load
047E1F 5B CF             0358 	RST.LIL 08h
047E21 21 42 10 00       0359 	ld hl,BUF_4162
047E25 01 0A 00 00       0360 	ld bc,10
047E29 11 12 00 00       0361 	ld de,18
047E2D DD 21 B4 00 00    0362 	ld ix,180
047E32 CD 3E A7 04       0363 	call vdu_load_img
047E36                   0364 
047E36 21 A5 86 04       0365 	ld hl,Fhonda067
047E3A 11 AD A7 04       0366 	ld de,filedata
047E3E 01 00 00 01       0367 	ld bc,65536
047E42 3E 01             0368 	ld a,mos_load
047E44 5B CF             0369 	RST.LIL 08h
047E46 21 43 10 00       0370 	ld hl,BUF_4163
047E4A 01 08 00 00       0371 	ld bc,8
047E4E 11 13 00 00       0372 	ld de,19
047E52 DD 21 98 00 00    0373 	ld ix,152
047E57 CD 3E A7 04       0374 	call vdu_load_img
047E5B                   0375 
047E5B 21 BB 86 04       0376 	ld hl,Fhonda068
047E5F 11 AD A7 04       0377 	ld de,filedata
047E63 01 00 00 01       0378 	ld bc,65536
047E67 3E 01             0379 	ld a,mos_load
047E69 5B CF             0380 	RST.LIL 08h
047E6B 21 44 10 00       0381 	ld hl,BUF_4164
047E6F 01 0A 00 00       0382 	ld bc,10
047E73 11 12 00 00       0383 	ld de,18
047E77 DD 21 B4 00 00    0384 	ld ix,180
047E7C CD 3E A7 04       0385 	call vdu_load_img
047E80                   0386 
047E80 21 D1 86 04       0387 	ld hl,Fhonda069
047E84 11 AD A7 04       0388 	ld de,filedata
047E88 01 00 00 01       0389 	ld bc,65536
047E8C 3E 01             0390 	ld a,mos_load
047E8E 5B CF             0391 	RST.LIL 08h
047E90 21 45 10 00       0392 	ld hl,BUF_4165
047E94 01 08 00 00       0393 	ld bc,8
047E98 11 12 00 00       0394 	ld de,18
047E9C DD 21 90 00 00    0395 	ld ix,144
047EA1 CD 3E A7 04       0396 	call vdu_load_img
047EA5                   0397 
047EA5 21 E7 86 04       0398 	ld hl,Fhonda070
047EA9 11 AD A7 04       0399 	ld de,filedata
047EAD 01 00 00 01       0400 	ld bc,65536
047EB1 3E 01             0401 	ld a,mos_load
047EB3 5B CF             0402 	RST.LIL 08h
047EB5 21 46 10 00       0403 	ld hl,BUF_4166
047EB9 01 08 00 00       0404 	ld bc,8
047EBD 11 12 00 00       0405 	ld de,18
047EC1 DD 21 90 00 00    0406 	ld ix,144
047EC6 CD 3E A7 04       0407 	call vdu_load_img
047ECA                   0408 
047ECA 21 FD 86 04       0409 	ld hl,Fhonda071
047ECE 11 AD A7 04       0410 	ld de,filedata
047ED2 01 00 00 01       0411 	ld bc,65536
047ED6 3E 01             0412 	ld a,mos_load
047ED8 5B CF             0413 	RST.LIL 08h
047EDA 21 47 10 00       0414 	ld hl,BUF_4167
047EDE 01 0A 00 00       0415 	ld bc,10
047EE2 11 12 00 00       0416 	ld de,18
047EE6 DD 21 B4 00 00    0417 	ld ix,180
047EEB CD 3E A7 04       0418 	call vdu_load_img
047EEF                   0419 
047EEF 21 13 87 04       0420 	ld hl,Fhonda072
047EF3 11 AD A7 04       0421 	ld de,filedata
047EF7 01 00 00 01       0422 	ld bc,65536
047EFB 3E 01             0423 	ld a,mos_load
047EFD 5B CF             0424 	RST.LIL 08h
047EFF 21 48 10 00       0425 	ld hl,BUF_4168
047F03 01 0A 00 00       0426 	ld bc,10
047F07 11 12 00 00       0427 	ld de,18
047F0B DD 21 B4 00 00    0428 	ld ix,180
047F10 CD 3E A7 04       0429 	call vdu_load_img
047F14                   0430 
047F14 21 29 87 04       0431 	ld hl,Fhonda073
047F18 11 AD A7 04       0432 	ld de,filedata
047F1C 01 00 00 01       0433 	ld bc,65536
047F20 3E 01             0434 	ld a,mos_load
047F22 5B CF             0435 	RST.LIL 08h
047F24 21 49 10 00       0436 	ld hl,BUF_4169
047F28 01 03 00 00       0437 	ld bc,3
047F2C 11 12 00 00       0438 	ld de,18
047F30 DD 21 36 00 00    0439 	ld ix,54
047F35 CD 3E A7 04       0440 	call vdu_load_img
047F39                   0441 
047F39 21 3F 87 04       0442 	ld hl,Fhonda074
047F3D 11 AD A7 04       0443 	ld de,filedata
047F41 01 00 00 01       0444 	ld bc,65536
047F45 3E 01             0445 	ld a,mos_load
047F47 5B CF             0446 	RST.LIL 08h
047F49 21 4A 10 00       0447 	ld hl,BUF_4170
047F4D 01 06 00 00       0448 	ld bc,6
047F51 11 12 00 00       0449 	ld de,18
047F55 DD 21 6C 00 00    0450 	ld ix,108
047F5A CD 3E A7 04       0451 	call vdu_load_img
047F5E                   0452 
047F5E 21 55 87 04       0453 	ld hl,Fhonda075
047F62 11 AD A7 04       0454 	ld de,filedata
047F66 01 00 00 01       0455 	ld bc,65536
047F6A 3E 01             0456 	ld a,mos_load
047F6C 5B CF             0457 	RST.LIL 08h
047F6E 21 4B 10 00       0458 	ld hl,BUF_4171
047F72 01 0A 00 00       0459 	ld bc,10
047F76 11 12 00 00       0460 	ld de,18
047F7A DD 21 B4 00 00    0461 	ld ix,180
047F7F CD 3E A7 04       0462 	call vdu_load_img
047F83                   0463 
047F83 21 6B 87 04       0464 	ld hl,Fhonda076
047F87 11 AD A7 04       0465 	ld de,filedata
047F8B 01 00 00 01       0466 	ld bc,65536
047F8F 3E 01             0467 	ld a,mos_load
047F91 5B CF             0468 	RST.LIL 08h
047F93 21 4C 10 00       0469 	ld hl,BUF_4172
047F97 01 08 00 00       0470 	ld bc,8
047F9B 11 12 00 00       0471 	ld de,18
047F9F DD 21 90 00 00    0472 	ld ix,144
047FA4 CD 3E A7 04       0473 	call vdu_load_img
047FA8                   0474 
047FA8 21 81 87 04       0475 	ld hl,Fhonda077
047FAC 11 AD A7 04       0476 	ld de,filedata
047FB0 01 00 00 01       0477 	ld bc,65536
047FB4 3E 01             0478 	ld a,mos_load
047FB6 5B CF             0479 	RST.LIL 08h
047FB8 21 4D 10 00       0480 	ld hl,BUF_4173
047FBC 01 0E 00 00       0481 	ld bc,14
047FC0 11 12 00 00       0482 	ld de,18
047FC4 DD 21 FC 00 00    0483 	ld ix,252
047FC9 CD 3E A7 04       0484 	call vdu_load_img
047FCD                   0485 
047FCD 21 97 87 04       0486 	ld hl,Fhonda078
047FD1 11 AD A7 04       0487 	ld de,filedata
047FD5 01 00 00 01       0488 	ld bc,65536
047FD9 3E 01             0489 	ld a,mos_load
047FDB 5B CF             0490 	RST.LIL 08h
047FDD 21 4E 10 00       0491 	ld hl,BUF_4174
047FE1 01 0A 00 00       0492 	ld bc,10
047FE5 11 12 00 00       0493 	ld de,18
047FE9 DD 21 B4 00 00    0494 	ld ix,180
047FEE CD 3E A7 04       0495 	call vdu_load_img
047FF2                   0496 
047FF2 21 AD 87 04       0497 	ld hl,Fhonda079
047FF6 11 AD A7 04       0498 	ld de,filedata
047FFA 01 00 00 01       0499 	ld bc,65536
047FFE 3E 01             0500 	ld a,mos_load
048000 5B CF             0501 	RST.LIL 08h
048002 21 4F 10 00       0502 	ld hl,BUF_4175
048006 01 0A 00 00       0503 	ld bc,10
04800A 11 12 00 00       0504 	ld de,18
04800E DD 21 B4 00 00    0505 	ld ix,180
048013 CD 3E A7 04       0506 	call vdu_load_img
048017                   0507 
048017 21 C3 87 04       0508 	ld hl,Fhonda080
04801B 11 AD A7 04       0509 	ld de,filedata
04801F 01 00 00 01       0510 	ld bc,65536
048023 3E 01             0511 	ld a,mos_load
048025 5B CF             0512 	RST.LIL 08h
048027 21 50 10 00       0513 	ld hl,BUF_4176
04802B 01 0A 00 00       0514 	ld bc,10
04802F 11 12 00 00       0515 	ld de,18
048033 DD 21 B4 00 00    0516 	ld ix,180
048038 CD 3E A7 04       0517 	call vdu_load_img
04803C                   0518 
04803C 21 D9 87 04       0519 	ld hl,Fhonda081
048040 11 AD A7 04       0520 	ld de,filedata
048044 01 00 00 01       0521 	ld bc,65536
048048 3E 01             0522 	ld a,mos_load
04804A 5B CF             0523 	RST.LIL 08h
04804C 21 51 10 00       0524 	ld hl,BUF_4177
048050 01 0A 00 00       0525 	ld bc,10
048054 11 15 00 00       0526 	ld de,21
048058 DD 21 D2 00 00    0527 	ld ix,210
04805D CD 3E A7 04       0528 	call vdu_load_img
048061                   0529 
048061 21 EF 87 04       0530 	ld hl,Fhonda082
048065 11 AD A7 04       0531 	ld de,filedata
048069 01 00 00 01       0532 	ld bc,65536
04806D 3E 01             0533 	ld a,mos_load
04806F 5B CF             0534 	RST.LIL 08h
048071 21 52 10 00       0535 	ld hl,BUF_4178
048075 01 0A 00 00       0536 	ld bc,10
048079 11 12 00 00       0537 	ld de,18
04807D DD 21 B4 00 00    0538 	ld ix,180
048082 CD 3E A7 04       0539 	call vdu_load_img
048086                   0540 
048086 21 05 88 04       0541 	ld hl,Fhonda083
04808A 11 AD A7 04       0542 	ld de,filedata
04808E 01 00 00 01       0543 	ld bc,65536
048092 3E 01             0544 	ld a,mos_load
048094 5B CF             0545 	RST.LIL 08h
048096 21 53 10 00       0546 	ld hl,BUF_4179
04809A 01 09 00 00       0547 	ld bc,9
04809E 11 13 00 00       0548 	ld de,19
0480A2 DD 21 AB 00 00    0549 	ld ix,171
0480A7 CD 3E A7 04       0550 	call vdu_load_img
0480AB                   0551 
0480AB 21 1B 88 04       0552 	ld hl,Fhonda084
0480AF 11 AD A7 04       0553 	ld de,filedata
0480B3 01 00 00 01       0554 	ld bc,65536
0480B7 3E 01             0555 	ld a,mos_load
0480B9 5B CF             0556 	RST.LIL 08h
0480BB 21 54 10 00       0557 	ld hl,BUF_4180
0480BF 01 0A 00 00       0558 	ld bc,10
0480C3 11 12 00 00       0559 	ld de,18
0480C7 DD 21 B4 00 00    0560 	ld ix,180
0480CC CD 3E A7 04       0561 	call vdu_load_img
0480D0                   0562 
0480D0 21 31 88 04       0563 	ld hl,Fhonda085
0480D4 11 AD A7 04       0564 	ld de,filedata
0480D8 01 00 00 01       0565 	ld bc,65536
0480DC 3E 01             0566 	ld a,mos_load
0480DE 5B CF             0567 	RST.LIL 08h
0480E0 21 55 10 00       0568 	ld hl,BUF_4181
0480E4 01 0A 00 00       0569 	ld bc,10
0480E8 11 12 00 00       0570 	ld de,18
0480EC DD 21 B4 00 00    0571 	ld ix,180
0480F1 CD 3E A7 04       0572 	call vdu_load_img
0480F5                   0573 
0480F5 21 47 88 04       0574 	ld hl,Fhonda086
0480F9 11 AD A7 04       0575 	ld de,filedata
0480FD 01 00 00 01       0576 	ld bc,65536
048101 3E 01             0577 	ld a,mos_load
048103 5B CF             0578 	RST.LIL 08h
048105 21 56 10 00       0579 	ld hl,BUF_4182
048109 01 0A 00 00       0580 	ld bc,10
04810D 11 12 00 00       0581 	ld de,18
048111 DD 21 B4 00 00    0582 	ld ix,180
048116 CD 3E A7 04       0583 	call vdu_load_img
04811A                   0584 
04811A 21 5D 88 04       0585 	ld hl,Fhonda087
04811E 11 AD A7 04       0586 	ld de,filedata
048122 01 00 00 01       0587 	ld bc,65536
048126 3E 01             0588 	ld a,mos_load
048128 5B CF             0589 	RST.LIL 08h
04812A 21 57 10 00       0590 	ld hl,BUF_4183
04812E 01 10 00 00       0591 	ld bc,16
048132 11 12 00 00       0592 	ld de,18
048136 DD 21 20 01 00    0593 	ld ix,288
04813B CD 3E A7 04       0594 	call vdu_load_img
04813F                   0595 
04813F 21 73 88 04       0596 	ld hl,Fhonda088
048143 11 AD A7 04       0597 	ld de,filedata
048147 01 00 00 01       0598 	ld bc,65536
04814B 3E 01             0599 	ld a,mos_load
04814D 5B CF             0600 	RST.LIL 08h
04814F 21 58 10 00       0601 	ld hl,BUF_4184
048153 01 0A 00 00       0602 	ld bc,10
048157 11 12 00 00       0603 	ld de,18
04815B DD 21 B4 00 00    0604 	ld ix,180
048160 CD 3E A7 04       0605 	call vdu_load_img
048164                   0606 
048164 21 89 88 04       0607 	ld hl,Fhonda089
048168 11 AD A7 04       0608 	ld de,filedata
04816C 01 00 00 01       0609 	ld bc,65536
048170 3E 01             0610 	ld a,mos_load
048172 5B CF             0611 	RST.LIL 08h
048174 21 59 10 00       0612 	ld hl,BUF_4185
048178 01 0A 00 00       0613 	ld bc,10
04817C 11 12 00 00       0614 	ld de,18
048180 DD 21 B4 00 00    0615 	ld ix,180
048185 CD 3E A7 04       0616 	call vdu_load_img
048189                   0617 
048189 21 9F 88 04       0618 	ld hl,Fhonda090
04818D 11 AD A7 04       0619 	ld de,filedata
048191 01 00 00 01       0620 	ld bc,65536
048195 3E 01             0621 	ld a,mos_load
048197 5B CF             0622 	RST.LIL 08h
048199 21 5A 10 00       0623 	ld hl,BUF_4186
04819D 01 09 00 00       0624 	ld bc,9
0481A1 11 12 00 00       0625 	ld de,18
0481A5 DD 21 A2 00 00    0626 	ld ix,162
0481AA CD 3E A7 04       0627 	call vdu_load_img
0481AE                   0628 ; Missing character 91
0481AE                   0629 ; Missing character 92
0481AE                   0630 ; Missing character 93
0481AE                   0631 ; Missing character 94
0481AE                   0632 ; Missing character 95
0481AE                   0633 ; Missing character 96
0481AE                   0634 
0481AE 21 B5 88 04       0635 	ld hl,Fhonda097
0481B2 11 AD A7 04       0636 	ld de,filedata
0481B6 01 00 00 01       0637 	ld bc,65536
0481BA 3E 01             0638 	ld a,mos_load
0481BC 5B CF             0639 	RST.LIL 08h
0481BE 21 61 10 00       0640 	ld hl,BUF_4193
0481C2 01 08 00 00       0641 	ld bc,8
0481C6 11 0C 00 00       0642 	ld de,12
0481CA DD 21 60 00 00    0643 	ld ix,96
0481CF CD 3E A7 04       0644 	call vdu_load_img
0481D3                   0645 
0481D3 21 CB 88 04       0646 	ld hl,Fhonda098
0481D7 11 AD A7 04       0647 	ld de,filedata
0481DB 01 00 00 01       0648 	ld bc,65536
0481DF 3E 01             0649 	ld a,mos_load
0481E1 5B CF             0650 	RST.LIL 08h
0481E3 21 62 10 00       0651 	ld hl,BUF_4194
0481E7 01 09 00 00       0652 	ld bc,9
0481EB 11 12 00 00       0653 	ld de,18
0481EF DD 21 A2 00 00    0654 	ld ix,162
0481F4 CD 3E A7 04       0655 	call vdu_load_img
0481F8                   0656 
0481F8 21 E1 88 04       0657 	ld hl,Fhonda099
0481FC 11 AD A7 04       0658 	ld de,filedata
048200 01 00 00 01       0659 	ld bc,65536
048204 3E 01             0660 	ld a,mos_load
048206 5B CF             0661 	RST.LIL 08h
048208 21 63 10 00       0662 	ld hl,BUF_4195
04820C 01 07 00 00       0663 	ld bc,7
048210 11 0C 00 00       0664 	ld de,12
048214 DD 21 54 00 00    0665 	ld ix,84
048219 CD 3E A7 04       0666 	call vdu_load_img
04821D                   0667 
04821D 21 F7 88 04       0668 	ld hl,Fhonda100
048221 11 AD A7 04       0669 	ld de,filedata
048225 01 00 00 01       0670 	ld bc,65536
048229 3E 01             0671 	ld a,mos_load
04822B 5B CF             0672 	RST.LIL 08h
04822D 21 64 10 00       0673 	ld hl,BUF_4196
048231 01 09 00 00       0674 	ld bc,9
048235 11 12 00 00       0675 	ld de,18
048239 DD 21 A2 00 00    0676 	ld ix,162
04823E CD 3E A7 04       0677 	call vdu_load_img
048242                   0678 
048242 21 0D 89 04       0679 	ld hl,Fhonda101
048246 11 AD A7 04       0680 	ld de,filedata
04824A 01 00 00 01       0681 	ld bc,65536
04824E 3E 01             0682 	ld a,mos_load
048250 5B CF             0683 	RST.LIL 08h
048252 21 65 10 00       0684 	ld hl,BUF_4197
048256 01 08 00 00       0685 	ld bc,8
04825A 11 0C 00 00       0686 	ld de,12
04825E DD 21 60 00 00    0687 	ld ix,96
048263 CD 3E A7 04       0688 	call vdu_load_img
048267                   0689 
048267 21 23 89 04       0690 	ld hl,Fhonda102
04826B 11 AD A7 04       0691 	ld de,filedata
04826F 01 00 00 01       0692 	ld bc,65536
048273 3E 01             0693 	ld a,mos_load
048275 5B CF             0694 	RST.LIL 08h
048277 21 66 10 00       0695 	ld hl,BUF_4198
04827B 01 09 00 00       0696 	ld bc,9
04827F 11 12 00 00       0697 	ld de,18
048283 DD 21 A2 00 00    0698 	ld ix,162
048288 CD 3E A7 04       0699 	call vdu_load_img
04828C                   0700 
04828C 21 39 89 04       0701 	ld hl,Fhonda103
048290 11 AD A7 04       0702 	ld de,filedata
048294 01 00 00 01       0703 	ld bc,65536
048298 3E 01             0704 	ld a,mos_load
04829A 5B CF             0705 	RST.LIL 08h
04829C 21 67 10 00       0706 	ld hl,BUF_4199
0482A0 01 09 00 00       0707 	ld bc,9
0482A4 11 12 00 00       0708 	ld de,18
0482A8 DD 21 A2 00 00    0709 	ld ix,162
0482AD CD 3E A7 04       0710 	call vdu_load_img
0482B1                   0711 
0482B1 21 4F 89 04       0712 	ld hl,Fhonda104
0482B5 11 AD A7 04       0713 	ld de,filedata
0482B9 01 00 00 01       0714 	ld bc,65536
0482BD 3E 01             0715 	ld a,mos_load
0482BF 5B CF             0716 	RST.LIL 08h
0482C1 21 68 10 00       0717 	ld hl,BUF_4200
0482C5 01 09 00 00       0718 	ld bc,9
0482C9 11 12 00 00       0719 	ld de,18
0482CD DD 21 A2 00 00    0720 	ld ix,162
0482D2 CD 3E A7 04       0721 	call vdu_load_img
0482D6                   0722 
0482D6 21 65 89 04       0723 	ld hl,Fhonda105
0482DA 11 AD A7 04       0724 	ld de,filedata
0482DE 01 00 00 01       0725 	ld bc,65536
0482E2 3E 01             0726 	ld a,mos_load
0482E4 5B CF             0727 	RST.LIL 08h
0482E6 21 69 10 00       0728 	ld hl,BUF_4201
0482EA 01 04 00 00       0729 	ld bc,4
0482EE 11 12 00 00       0730 	ld de,18
0482F2 DD 21 48 00 00    0731 	ld ix,72
0482F7 CD 3E A7 04       0732 	call vdu_load_img
0482FB                   0733 
0482FB 21 7B 89 04       0734 	ld hl,Fhonda106
0482FF 11 AD A7 04       0735 	ld de,filedata
048303 01 00 00 01       0736 	ld bc,65536
048307 3E 01             0737 	ld a,mos_load
048309 5B CF             0738 	RST.LIL 08h
04830B 21 6A 10 00       0739 	ld hl,BUF_4202
04830F 01 08 00 00       0740 	ld bc,8
048313 11 18 00 00       0741 	ld de,24
048317 DD 21 C0 00 00    0742 	ld ix,192
04831C CD 3E A7 04       0743 	call vdu_load_img
048320                   0744 
048320 21 91 89 04       0745 	ld hl,Fhonda107
048324 11 AD A7 04       0746 	ld de,filedata
048328 01 00 00 01       0747 	ld bc,65536
04832C 3E 01             0748 	ld a,mos_load
04832E 5B CF             0749 	RST.LIL 08h
048330 21 6B 10 00       0750 	ld hl,BUF_4203
048334 01 09 00 00       0751 	ld bc,9
048338 11 12 00 00       0752 	ld de,18
04833C DD 21 A2 00 00    0753 	ld ix,162
048341 CD 3E A7 04       0754 	call vdu_load_img
048345                   0755 
048345 21 A7 89 04       0756 	ld hl,Fhonda108
048349 11 AD A7 04       0757 	ld de,filedata
04834D 01 00 00 01       0758 	ld bc,65536
048351 3E 01             0759 	ld a,mos_load
048353 5B CF             0760 	RST.LIL 08h
048355 21 6C 10 00       0761 	ld hl,BUF_4204
048359 01 03 00 00       0762 	ld bc,3
04835D 11 12 00 00       0763 	ld de,18
048361 DD 21 36 00 00    0764 	ld ix,54
048366 CD 3E A7 04       0765 	call vdu_load_img
04836A                   0766 
04836A 21 BD 89 04       0767 	ld hl,Fhonda109
04836E 11 AD A7 04       0768 	ld de,filedata
048372 01 00 00 01       0769 	ld bc,65536
048376 3E 01             0770 	ld a,mos_load
048378 5B CF             0771 	RST.LIL 08h
04837A 21 6D 10 00       0772 	ld hl,BUF_4205
04837E 01 0E 00 00       0773 	ld bc,14
048382 11 0D 00 00       0774 	ld de,13
048386 DD 21 B6 00 00    0775 	ld ix,182
04838B CD 3E A7 04       0776 	call vdu_load_img
04838F                   0777 
04838F 21 D3 89 04       0778 	ld hl,Fhonda110
048393 11 AD A7 04       0779 	ld de,filedata
048397 01 00 00 01       0780 	ld bc,65536
04839B 3E 01             0781 	ld a,mos_load
04839D 5B CF             0782 	RST.LIL 08h
04839F 21 6E 10 00       0783 	ld hl,BUF_4206
0483A3 01 09 00 00       0784 	ld bc,9
0483A7 11 0C 00 00       0785 	ld de,12
0483AB DD 21 6C 00 00    0786 	ld ix,108
0483B0 CD 3E A7 04       0787 	call vdu_load_img
0483B4                   0788 
0483B4 21 E9 89 04       0789 	ld hl,Fhonda111
0483B8 11 AD A7 04       0790 	ld de,filedata
0483BC 01 00 00 01       0791 	ld bc,65536
0483C0 3E 01             0792 	ld a,mos_load
0483C2 5B CF             0793 	RST.LIL 08h
0483C4 21 6F 10 00       0794 	ld hl,BUF_4207
0483C8 01 09 00 00       0795 	ld bc,9
0483CC 11 0C 00 00       0796 	ld de,12
0483D0 DD 21 6C 00 00    0797 	ld ix,108
0483D5 CD 3E A7 04       0798 	call vdu_load_img
0483D9                   0799 
0483D9 21 FF 89 04       0800 	ld hl,Fhonda112
0483DD 11 AD A7 04       0801 	ld de,filedata
0483E1 01 00 00 01       0802 	ld bc,65536
0483E5 3E 01             0803 	ld a,mos_load
0483E7 5B CF             0804 	RST.LIL 08h
0483E9 21 70 10 00       0805 	ld hl,BUF_4208
0483ED 01 09 00 00       0806 	ld bc,9
0483F1 11 12 00 00       0807 	ld de,18
0483F5 DD 21 A2 00 00    0808 	ld ix,162
0483FA CD 3E A7 04       0809 	call vdu_load_img
0483FE                   0810 
0483FE 21 15 8A 04       0811 	ld hl,Fhonda113
048402 11 AD A7 04       0812 	ld de,filedata
048406 01 00 00 01       0813 	ld bc,65536
04840A 3E 01             0814 	ld a,mos_load
04840C 5B CF             0815 	RST.LIL 08h
04840E 21 71 10 00       0816 	ld hl,BUF_4209
048412 01 09 00 00       0817 	ld bc,9
048416 11 12 00 00       0818 	ld de,18
04841A DD 21 A2 00 00    0819 	ld ix,162
04841F CD 3E A7 04       0820 	call vdu_load_img
048423                   0821 
048423 21 2B 8A 04       0822 	ld hl,Fhonda114
048427 11 AD A7 04       0823 	ld de,filedata
04842B 01 00 00 01       0824 	ld bc,65536
04842F 3E 01             0825 	ld a,mos_load
048431 5B CF             0826 	RST.LIL 08h
048433 21 72 10 00       0827 	ld hl,BUF_4210
048437 01 06 00 00       0828 	ld bc,6
04843B 11 0D 00 00       0829 	ld de,13
04843F DD 21 4E 00 00    0830 	ld ix,78
048444 CD 3E A7 04       0831 	call vdu_load_img
048448                   0832 
048448 21 41 8A 04       0833 	ld hl,Fhonda115
04844C 11 AD A7 04       0834 	ld de,filedata
048450 01 00 00 01       0835 	ld bc,65536
048454 3E 01             0836 	ld a,mos_load
048456 5B CF             0837 	RST.LIL 08h
048458 21 73 10 00       0838 	ld hl,BUF_4211
04845C 01 08 00 00       0839 	ld bc,8
048460 11 0D 00 00       0840 	ld de,13
048464 DD 21 68 00 00    0841 	ld ix,104
048469 CD 3E A7 04       0842 	call vdu_load_img
04846D                   0843 
04846D 21 57 8A 04       0844 	ld hl,Fhonda116
048471 11 AD A7 04       0845 	ld de,filedata
048475 01 00 00 01       0846 	ld bc,65536
048479 3E 01             0847 	ld a,mos_load
04847B 5B CF             0848 	RST.LIL 08h
04847D 21 74 10 00       0849 	ld hl,BUF_4212
048481 01 07 00 00       0850 	ld bc,7
048485 11 0F 00 00       0851 	ld de,15
048489 DD 21 69 00 00    0852 	ld ix,105
04848E CD 3E A7 04       0853 	call vdu_load_img
048492                   0854 
048492 21 6D 8A 04       0855 	ld hl,Fhonda117
048496 11 AD A7 04       0856 	ld de,filedata
04849A 01 00 00 01       0857 	ld bc,65536
04849E 3E 01             0858 	ld a,mos_load
0484A0 5B CF             0859 	RST.LIL 08h
0484A2 21 75 10 00       0860 	ld hl,BUF_4213
0484A6 01 09 00 00       0861 	ld bc,9
0484AA 11 0C 00 00       0862 	ld de,12
0484AE DD 21 6C 00 00    0863 	ld ix,108
0484B3 CD 3E A7 04       0864 	call vdu_load_img
0484B7                   0865 
0484B7 21 83 8A 04       0866 	ld hl,Fhonda118
0484BB 11 AD A7 04       0867 	ld de,filedata
0484BF 01 00 00 01       0868 	ld bc,65536
0484C3 3E 01             0869 	ld a,mos_load
0484C5 5B CF             0870 	RST.LIL 08h
0484C7 21 76 10 00       0871 	ld hl,BUF_4214
0484CB 01 09 00 00       0872 	ld bc,9
0484CF 11 0C 00 00       0873 	ld de,12
0484D3 DD 21 6C 00 00    0874 	ld ix,108
0484D8 CD 3E A7 04       0875 	call vdu_load_img
0484DC                   0876 
0484DC 21 99 8A 04       0877 	ld hl,Fhonda119
0484E0 11 AD A7 04       0878 	ld de,filedata
0484E4 01 00 00 01       0879 	ld bc,65536
0484E8 3E 01             0880 	ld a,mos_load
0484EA 5B CF             0881 	RST.LIL 08h
0484EC 21 77 10 00       0882 	ld hl,BUF_4215
0484F0 01 0E 00 00       0883 	ld bc,14
0484F4 11 0C 00 00       0884 	ld de,12
0484F8 DD 21 A8 00 00    0885 	ld ix,168
0484FD CD 3E A7 04       0886 	call vdu_load_img
048501                   0887 
048501 21 AF 8A 04       0888 	ld hl,Fhonda120
048505 11 AD A7 04       0889 	ld de,filedata
048509 01 00 00 01       0890 	ld bc,65536
04850D 3E 01             0891 	ld a,mos_load
04850F 5B CF             0892 	RST.LIL 08h
048511 21 78 10 00       0893 	ld hl,BUF_4216
048515 01 09 00 00       0894 	ld bc,9
048519 11 0C 00 00       0895 	ld de,12
04851D DD 21 6C 00 00    0896 	ld ix,108
048522 CD 3E A7 04       0897 	call vdu_load_img
048526                   0898 
048526 21 C5 8A 04       0899 	ld hl,Fhonda121
04852A 11 AD A7 04       0900 	ld de,filedata
04852E 01 00 00 01       0901 	ld bc,65536
048532 3E 01             0902 	ld a,mos_load
048534 5B CF             0903 	RST.LIL 08h
048536 21 79 10 00       0904 	ld hl,BUF_4217
04853A 01 09 00 00       0905 	ld bc,9
04853E 11 11 00 00       0906 	ld de,17
048542 DD 21 99 00 00    0907 	ld ix,153
048547 CD 3E A7 04       0908 	call vdu_load_img
04854B                   0909 
04854B 21 DB 8A 04       0910 	ld hl,Fhonda122
04854F 11 AD A7 04       0911 	ld de,filedata
048553 01 00 00 01       0912 	ld bc,65536
048557 3E 01             0913 	ld a,mos_load
048559 5B CF             0914 	RST.LIL 08h
04855B 21 7A 10 00       0915 	ld hl,BUF_4218
04855F 01 09 00 00       0916 	ld bc,9
048563 11 0C 00 00       0917 	ld de,12
048567 DD 21 6C 00 00    0918 	ld ix,108
04856C CD 3E A7 04       0919 	call vdu_load_img
048570                   0920 
048570 C9                0921 	ret
048571                   0922 
048571 66 6F 6E 74 73 2F 0923 Fhonda032: db "fonts/honda/032.rgba2",0
       68 6F 6E 64 61 2F 
       30 33 32 2E 72 67 
       62 61 32 00       
048587 66 6F 6E 74 73 2F 0924 Fhonda046: db "fonts/honda/046.rgba2",0
       68 6F 6E 64 61 2F 
       30 34 36 2E 72 67 
       62 61 32 00       
04859D 66 6F 6E 74 73 2F 0925 Fhonda048: db "fonts/honda/048.rgba2",0
       68 6F 6E 64 61 2F 
       30 34 38 2E 72 67 
       62 61 32 00       
0485B3 66 6F 6E 74 73 2F 0926 Fhonda049: db "fonts/honda/049.rgba2",0
       68 6F 6E 64 61 2F 
       30 34 39 2E 72 67 
       62 61 32 00       
0485C9 66 6F 6E 74 73 2F 0927 Fhonda050: db "fonts/honda/050.rgba2",0
       68 6F 6E 64 61 2F 
       30 35 30 2E 72 67 
       62 61 32 00       
0485DF 66 6F 6E 74 73 2F 0928 Fhonda051: db "fonts/honda/051.rgba2",0
       68 6F 6E 64 61 2F 
       30 35 31 2E 72 67 
       62 61 32 00       
0485F5 66 6F 6E 74 73 2F 0929 Fhonda052: db "fonts/honda/052.rgba2",0
       68 6F 6E 64 61 2F 
       30 35 32 2E 72 67 
       62 61 32 00       
04860B 66 6F 6E 74 73 2F 0930 Fhonda053: db "fonts/honda/053.rgba2",0
       68 6F 6E 64 61 2F 
       30 35 33 2E 72 67 
       62 61 32 00       
048621 66 6F 6E 74 73 2F 0931 Fhonda054: db "fonts/honda/054.rgba2",0
       68 6F 6E 64 61 2F 
       30 35 34 2E 72 67 
       62 61 32 00       
048637 66 6F 6E 74 73 2F 0932 Fhonda055: db "fonts/honda/055.rgba2",0
       68 6F 6E 64 61 2F 
       30 35 35 2E 72 67 
       62 61 32 00       
04864D 66 6F 6E 74 73 2F 0933 Fhonda056: db "fonts/honda/056.rgba2",0
       68 6F 6E 64 61 2F 
       30 35 36 2E 72 67 
       62 61 32 00       
048663 66 6F 6E 74 73 2F 0934 Fhonda057: db "fonts/honda/057.rgba2",0
       68 6F 6E 64 61 2F 
       30 35 37 2E 72 67 
       62 61 32 00       
048679 66 6F 6E 74 73 2F 0935 Fhonda065: db "fonts/honda/065.rgba2",0
       68 6F 6E 64 61 2F 
       30 36 35 2E 72 67 
       62 61 32 00       
04868F 66 6F 6E 74 73 2F 0936 Fhonda066: db "fonts/honda/066.rgba2",0
       68 6F 6E 64 61 2F 
       30 36 36 2E 72 67 
       62 61 32 00       
0486A5 66 6F 6E 74 73 2F 0937 Fhonda067: db "fonts/honda/067.rgba2",0
       68 6F 6E 64 61 2F 
       30 36 37 2E 72 67 
       62 61 32 00       
0486BB 66 6F 6E 74 73 2F 0938 Fhonda068: db "fonts/honda/068.rgba2",0
       68 6F 6E 64 61 2F 
       30 36 38 2E 72 67 
       62 61 32 00       
0486D1 66 6F 6E 74 73 2F 0939 Fhonda069: db "fonts/honda/069.rgba2",0
       68 6F 6E 64 61 2F 
       30 36 39 2E 72 67 
       62 61 32 00       
0486E7 66 6F 6E 74 73 2F 0940 Fhonda070: db "fonts/honda/070.rgba2",0
       68 6F 6E 64 61 2F 
       30 37 30 2E 72 67 
       62 61 32 00       
0486FD 66 6F 6E 74 73 2F 0941 Fhonda071: db "fonts/honda/071.rgba2",0
       68 6F 6E 64 61 2F 
       30 37 31 2E 72 67 
       62 61 32 00       
048713 66 6F 6E 74 73 2F 0942 Fhonda072: db "fonts/honda/072.rgba2",0
       68 6F 6E 64 61 2F 
       30 37 32 2E 72 67 
       62 61 32 00       
048729 66 6F 6E 74 73 2F 0943 Fhonda073: db "fonts/honda/073.rgba2",0
       68 6F 6E 64 61 2F 
       30 37 33 2E 72 67 
       62 61 32 00       
04873F 66 6F 6E 74 73 2F 0944 Fhonda074: db "fonts/honda/074.rgba2",0
       68 6F 6E 64 61 2F 
       30 37 34 2E 72 67 
       62 61 32 00       
048755 66 6F 6E 74 73 2F 0945 Fhonda075: db "fonts/honda/075.rgba2",0
       68 6F 6E 64 61 2F 
       30 37 35 2E 72 67 
       62 61 32 00       
04876B 66 6F 6E 74 73 2F 0946 Fhonda076: db "fonts/honda/076.rgba2",0
       68 6F 6E 64 61 2F 
       30 37 36 2E 72 67 
       62 61 32 00       
048781 66 6F 6E 74 73 2F 0947 Fhonda077: db "fonts/honda/077.rgba2",0
       68 6F 6E 64 61 2F 
       30 37 37 2E 72 67 
       62 61 32 00       
048797 66 6F 6E 74 73 2F 0948 Fhonda078: db "fonts/honda/078.rgba2",0
       68 6F 6E 64 61 2F 
       30 37 38 2E 72 67 
       62 61 32 00       
0487AD 66 6F 6E 74 73 2F 0949 Fhonda079: db "fonts/honda/079.rgba2",0
       68 6F 6E 64 61 2F 
       30 37 39 2E 72 67 
       62 61 32 00       
0487C3 66 6F 6E 74 73 2F 0950 Fhonda080: db "fonts/honda/080.rgba2",0
       68 6F 6E 64 61 2F 
       30 38 30 2E 72 67 
       62 61 32 00       
0487D9 66 6F 6E 74 73 2F 0951 Fhonda081: db "fonts/honda/081.rgba2",0
       68 6F 6E 64 61 2F 
       30 38 31 2E 72 67 
       62 61 32 00       
0487EF 66 6F 6E 74 73 2F 0952 Fhonda082: db "fonts/honda/082.rgba2",0
       68 6F 6E 64 61 2F 
       30 38 32 2E 72 67 
       62 61 32 00       
048805 66 6F 6E 74 73 2F 0953 Fhonda083: db "fonts/honda/083.rgba2",0
       68 6F 6E 64 61 2F 
       30 38 33 2E 72 67 
       62 61 32 00       
04881B 66 6F 6E 74 73 2F 0954 Fhonda084: db "fonts/honda/084.rgba2",0
       68 6F 6E 64 61 2F 
       30 38 34 2E 72 67 
       62 61 32 00       
048831 66 6F 6E 74 73 2F 0955 Fhonda085: db "fonts/honda/085.rgba2",0
       68 6F 6E 64 61 2F 
       30 38 35 2E 72 67 
       62 61 32 00       
048847 66 6F 6E 74 73 2F 0956 Fhonda086: db "fonts/honda/086.rgba2",0
       68 6F 6E 64 61 2F 
       30 38 36 2E 72 67 
       62 61 32 00       
04885D 66 6F 6E 74 73 2F 0957 Fhonda087: db "fonts/honda/087.rgba2",0
       68 6F 6E 64 61 2F 
       30 38 37 2E 72 67 
       62 61 32 00       
048873 66 6F 6E 74 73 2F 0958 Fhonda088: db "fonts/honda/088.rgba2",0
       68 6F 6E 64 61 2F 
       30 38 38 2E 72 67 
       62 61 32 00       
048889 66 6F 6E 74 73 2F 0959 Fhonda089: db "fonts/honda/089.rgba2",0
       68 6F 6E 64 61 2F 
       30 38 39 2E 72 67 
       62 61 32 00       
04889F 66 6F 6E 74 73 2F 0960 Fhonda090: db "fonts/honda/090.rgba2",0
       68 6F 6E 64 61 2F 
       30 39 30 2E 72 67 
       62 61 32 00       
0488B5 66 6F 6E 74 73 2F 0961 Fhonda097: db "fonts/honda/097.rgba2",0
       68 6F 6E 64 61 2F 
       30 39 37 2E 72 67 
       62 61 32 00       
0488CB 66 6F 6E 74 73 2F 0962 Fhonda098: db "fonts/honda/098.rgba2",0
       68 6F 6E 64 61 2F 
       30 39 38 2E 72 67 
       62 61 32 00       
0488E1 66 6F 6E 74 73 2F 0963 Fhonda099: db "fonts/honda/099.rgba2",0
       68 6F 6E 64 61 2F 
       30 39 39 2E 72 67 
       62 61 32 00       
0488F7 66 6F 6E 74 73 2F 0964 Fhonda100: db "fonts/honda/100.rgba2",0
       68 6F 6E 64 61 2F 
       31 30 30 2E 72 67 
       62 61 32 00       
04890D 66 6F 6E 74 73 2F 0965 Fhonda101: db "fonts/honda/101.rgba2",0
       68 6F 6E 64 61 2F 
       31 30 31 2E 72 67 
       62 61 32 00       
048923 66 6F 6E 74 73 2F 0966 Fhonda102: db "fonts/honda/102.rgba2",0
       68 6F 6E 64 61 2F 
       31 30 32 2E 72 67 
       62 61 32 00       
048939 66 6F 6E 74 73 2F 0967 Fhonda103: db "fonts/honda/103.rgba2",0
       68 6F 6E 64 61 2F 
       31 30 33 2E 72 67 
       62 61 32 00       
04894F 66 6F 6E 74 73 2F 0968 Fhonda104: db "fonts/honda/104.rgba2",0
       68 6F 6E 64 61 2F 
       31 30 34 2E 72 67 
       62 61 32 00       
048965 66 6F 6E 74 73 2F 0969 Fhonda105: db "fonts/honda/105.rgba2",0
       68 6F 6E 64 61 2F 
       31 30 35 2E 72 67 
       62 61 32 00       
04897B 66 6F 6E 74 73 2F 0970 Fhonda106: db "fonts/honda/106.rgba2",0
       68 6F 6E 64 61 2F 
       31 30 36 2E 72 67 
       62 61 32 00       
048991 66 6F 6E 74 73 2F 0971 Fhonda107: db "fonts/honda/107.rgba2",0
       68 6F 6E 64 61 2F 
       31 30 37 2E 72 67 
       62 61 32 00       
0489A7 66 6F 6E 74 73 2F 0972 Fhonda108: db "fonts/honda/108.rgba2",0
       68 6F 6E 64 61 2F 
       31 30 38 2E 72 67 
       62 61 32 00       
0489BD 66 6F 6E 74 73 2F 0973 Fhonda109: db "fonts/honda/109.rgba2",0
       68 6F 6E 64 61 2F 
       31 30 39 2E 72 67 
       62 61 32 00       
0489D3 66 6F 6E 74 73 2F 0974 Fhonda110: db "fonts/honda/110.rgba2",0
       68 6F 6E 64 61 2F 
       31 31 30 2E 72 67 
       62 61 32 00       
0489E9 66 6F 6E 74 73 2F 0975 Fhonda111: db "fonts/honda/111.rgba2",0
       68 6F 6E 64 61 2F 
       31 31 31 2E 72 67 
       62 61 32 00       
0489FF 66 6F 6E 74 73 2F 0976 Fhonda112: db "fonts/honda/112.rgba2",0
       68 6F 6E 64 61 2F 
       31 31 32 2E 72 67 
       62 61 32 00       
048A15 66 6F 6E 74 73 2F 0977 Fhonda113: db "fonts/honda/113.rgba2",0
       68 6F 6E 64 61 2F 
       31 31 33 2E 72 67 
       62 61 32 00       
048A2B 66 6F 6E 74 73 2F 0978 Fhonda114: db "fonts/honda/114.rgba2",0
       68 6F 6E 64 61 2F 
       31 31 34 2E 72 67 
       62 61 32 00       
048A41 66 6F 6E 74 73 2F 0979 Fhonda115: db "fonts/honda/115.rgba2",0
       68 6F 6E 64 61 2F 
       31 31 35 2E 72 67 
       62 61 32 00       
048A57 66 6F 6E 74 73 2F 0980 Fhonda116: db "fonts/honda/116.rgba2",0
       68 6F 6E 64 61 2F 
       31 31 36 2E 72 67 
       62 61 32 00       
048A6D 66 6F 6E 74 73 2F 0981 Fhonda117: db "fonts/honda/117.rgba2",0
       68 6F 6E 64 61 2F 
       31 31 37 2E 72 67 
       62 61 32 00       
048A83 66 6F 6E 74 73 2F 0982 Fhonda118: db "fonts/honda/118.rgba2",0
       68 6F 6E 64 61 2F 
       31 31 38 2E 72 67 
       62 61 32 00       
048A99 66 6F 6E 74 73 2F 0983 Fhonda119: db "fonts/honda/119.rgba2",0
       68 6F 6E 64 61 2F 
       31 31 39 2E 72 67 
       62 61 32 00       
048AAF 66 6F 6E 74 73 2F 0984 Fhonda120: db "fonts/honda/120.rgba2",0
       68 6F 6E 64 61 2F 
       31 32 30 2E 72 67 
       62 61 32 00       
048AC5 66 6F 6E 74 73 2F 0985 Fhonda121: db "fonts/honda/121.rgba2",0
       68 6F 6E 64 61 2F 
       31 32 31 2E 72 67 
       62 61 32 00       
048ADB 66 6F 6E 74 73 2F 0986 Fhonda122: db "fonts/honda/122.rgba2",0
       68 6F 6E 64 61 2F 
       31 32 32 2E 72 67 
       62 61 32 00       
048AF1                   0025 	include "src/asm/font_retro_computer.asm"
048AF1                   0001 ; Bitmap indices:
048AF1                   0002 BUF_4384: equ 0x1120 ; 32
048AF1                   0003 BUF_4385: equ 0x1121 ; 33 !
048AF1                   0004 ; Missing character 34 "
048AF1                   0005 ; Missing character 35 #
048AF1                   0006 ; Missing character 36 $
048AF1                   0007 ; Missing character 37 %
048AF1                   0008 ; Missing character 38 &
048AF1                   0009 ; Missing character 39 '
048AF1                   0010 ; Missing character 40 (
048AF1                   0011 ; Missing character 41 )
048AF1                   0012 ; Missing character 42 *
048AF1                   0013 ; Missing character 43 +
048AF1                   0014 ; Missing character 44 ,
048AF1                   0015 ; Missing character 45 -
048AF1                   0016 ; Missing character 46 .
048AF1                   0017 ; Missing character 47 /
048AF1                   0018 BUF_4400: equ 0x1130 ; 48 0
048AF1                   0019 BUF_4401: equ 0x1131 ; 49 1
048AF1                   0020 BUF_4402: equ 0x1132 ; 50 2
048AF1                   0021 BUF_4403: equ 0x1133 ; 51 3
048AF1                   0022 BUF_4404: equ 0x1134 ; 52 4
048AF1                   0023 BUF_4405: equ 0x1135 ; 53 5
048AF1                   0024 BUF_4406: equ 0x1136 ; 54 6
048AF1                   0025 BUF_4407: equ 0x1137 ; 55 7
048AF1                   0026 BUF_4408: equ 0x1138 ; 56 8
048AF1                   0027 BUF_4409: equ 0x1139 ; 57 9
048AF1                   0028 ; Missing character 58 :
048AF1                   0029 ; Missing character 59 ;
048AF1                   0030 ; Missing character 60 <
048AF1                   0031 ; Missing character 61 =
048AF1                   0032 ; Missing character 62 >
048AF1                   0033 BUF_4415: equ 0x113F ; 63 ?
048AF1                   0034 ; Missing character 64 @
048AF1                   0035 BUF_4417: equ 0x1141 ; 65 A
048AF1                   0036 BUF_4418: equ 0x1142 ; 66 B
048AF1                   0037 BUF_4419: equ 0x1143 ; 67 C
048AF1                   0038 BUF_4420: equ 0x1144 ; 68 D
048AF1                   0039 BUF_4421: equ 0x1145 ; 69 E
048AF1                   0040 BUF_4422: equ 0x1146 ; 70 F
048AF1                   0041 BUF_4423: equ 0x1147 ; 71 G
048AF1                   0042 BUF_4424: equ 0x1148 ; 72 H
048AF1                   0043 BUF_4425: equ 0x1149 ; 73 I
048AF1                   0044 BUF_4426: equ 0x114A ; 74 J
048AF1                   0045 BUF_4427: equ 0x114B ; 75 K
048AF1                   0046 BUF_4428: equ 0x114C ; 76 L
048AF1                   0047 BUF_4429: equ 0x114D ; 77 M
048AF1                   0048 BUF_4430: equ 0x114E ; 78 N
048AF1                   0049 BUF_4431: equ 0x114F ; 79 O
048AF1                   0050 BUF_4432: equ 0x1150 ; 80 P
048AF1                   0051 BUF_4433: equ 0x1151 ; 81 Q
048AF1                   0052 BUF_4434: equ 0x1152 ; 82 R
048AF1                   0053 BUF_4435: equ 0x1153 ; 83 S
048AF1                   0054 BUF_4436: equ 0x1154 ; 84 T
048AF1                   0055 BUF_4437: equ 0x1155 ; 85 U
048AF1                   0056 BUF_4438: equ 0x1156 ; 86 V
048AF1                   0057 BUF_4439: equ 0x1157 ; 87 W
048AF1                   0058 BUF_4440: equ 0x1158 ; 88 X
048AF1                   0059 BUF_4441: equ 0x1159 ; 89 Y
048AF1                   0060 BUF_4442: equ 0x115A ; 90 Z
048AF1                   0061 ; Missing character 91 [
048AF1                   0062 ; Missing character 92 \
048AF1                   0063 ; Missing character 93 ]
048AF1                   0064 ; Missing character 94 ^
048AF1                   0065 ; Missing character 95 _
048AF1                   0066 ; Missing character 96 `
048AF1                   0067 ; Missing character 97 a
048AF1                   0068 ; Missing character 98 b
048AF1                   0069 ; Missing character 99 c
048AF1                   0070 ; Missing character 100 d
048AF1                   0071 ; Missing character 101 e
048AF1                   0072 ; Missing character 102 f
048AF1                   0073 ; Missing character 103 g
048AF1                   0074 ; Missing character 104 h
048AF1                   0075 ; Missing character 105 i
048AF1                   0076 ; Missing character 106 j
048AF1                   0077 ; Missing character 107 k
048AF1                   0078 ; Missing character 108 l
048AF1                   0079 ; Missing character 109 m
048AF1                   0080 ; Missing character 110 n
048AF1                   0081 ; Missing character 111 o
048AF1                   0082 ; Missing character 112 p
048AF1                   0083 ; Missing character 113 q
048AF1                   0084 ; Missing character 114 r
048AF1                   0085 ; Missing character 115 s
048AF1                   0086 ; Missing character 116 t
048AF1                   0087 ; Missing character 117 u
048AF1                   0088 ; Missing character 118 v
048AF1                   0089 ; Missing character 119 w
048AF1                   0090 ; Missing character 120 x
048AF1                   0091 ; Missing character 121 y
048AF1                   0092 ; Missing character 122 z
048AF1                   0093 ; [y_offset, dim_y, dim_x], buffer_id label: ; mind the little-endian order when fetching these!!!
048AF1                   0094 font_retro_computer:
048AF1 06 01 00 20 11 00 0095 	dl 0x000106,BUF_4384
048AF7 03 0E 00 21 11 00 0096 	dl 0x000E03,BUF_4385
048AFD 06 01 00 20 11 00 0097 	dl 0x000106,BUF_4384 ; Missing character 34
048B03 06 01 00 20 11 00 0098 	dl 0x000106,BUF_4384 ; Missing character 35
048B09 06 01 00 20 11 00 0099 	dl 0x000106,BUF_4384 ; Missing character 36
048B0F 06 01 00 20 11 00 0100 	dl 0x000106,BUF_4384 ; Missing character 37
048B15 06 01 00 20 11 00 0101 	dl 0x000106,BUF_4384 ; Missing character 38
048B1B 06 01 00 20 11 00 0102 	dl 0x000106,BUF_4384 ; Missing character 39
048B21 06 01 00 20 11 00 0103 	dl 0x000106,BUF_4384 ; Missing character 40
048B27 06 01 00 20 11 00 0104 	dl 0x000106,BUF_4384 ; Missing character 41
048B2D 06 01 00 20 11 00 0105 	dl 0x000106,BUF_4384 ; Missing character 42
048B33 06 01 00 20 11 00 0106 	dl 0x000106,BUF_4384 ; Missing character 43
048B39 06 01 00 20 11 00 0107 	dl 0x000106,BUF_4384 ; Missing character 44
048B3F 06 01 00 20 11 00 0108 	dl 0x000106,BUF_4384 ; Missing character 45
048B45 06 01 00 20 11 00 0109 	dl 0x000106,BUF_4384 ; Missing character 46
048B4B 06 01 00 20 11 00 0110 	dl 0x000106,BUF_4384 ; Missing character 47
048B51 08 0E 00 30 11 00 0111 	dl 0x000E08,BUF_4400
048B57 08 0E 00 31 11 00 0112 	dl 0x000E08,BUF_4401
048B5D 08 0E 00 32 11 00 0113 	dl 0x000E08,BUF_4402
048B63 08 0E 00 33 11 00 0114 	dl 0x000E08,BUF_4403
048B69 08 0E 00 34 11 00 0115 	dl 0x000E08,BUF_4404
048B6F 08 0E 00 35 11 00 0116 	dl 0x000E08,BUF_4405
048B75 08 0E 00 36 11 00 0117 	dl 0x000E08,BUF_4406
048B7B 08 0E 00 37 11 00 0118 	dl 0x000E08,BUF_4407
048B81 08 0E 00 38 11 00 0119 	dl 0x000E08,BUF_4408
048B87 08 0E 00 39 11 00 0120 	dl 0x000E08,BUF_4409
048B8D 06 01 00 20 11 00 0121 	dl 0x000106,BUF_4384 ; Missing character 58
048B93 06 01 00 20 11 00 0122 	dl 0x000106,BUF_4384 ; Missing character 59
048B99 06 01 00 20 11 00 0123 	dl 0x000106,BUF_4384 ; Missing character 60
048B9F 06 01 00 20 11 00 0124 	dl 0x000106,BUF_4384 ; Missing character 61
048BA5 06 01 00 20 11 00 0125 	dl 0x000106,BUF_4384 ; Missing character 62
048BAB 08 0E 00 3F 11 00 0126 	dl 0x000E08,BUF_4415
048BB1 06 01 00 20 11 00 0127 	dl 0x000106,BUF_4384 ; Missing character 64
048BB7 07 0E 00 41 11 00 0128 	dl 0x000E07,BUF_4417
048BBD 08 0E 00 42 11 00 0129 	dl 0x000E08,BUF_4418
048BC3 07 0E 00 43 11 00 0130 	dl 0x000E07,BUF_4419
048BC9 08 0E 00 44 11 00 0131 	dl 0x000E08,BUF_4420
048BCF 08 0E 00 45 11 00 0132 	dl 0x000E08,BUF_4421
048BD5 07 0E 00 46 11 00 0133 	dl 0x000E07,BUF_4422
048BDB 08 0E 00 47 11 00 0134 	dl 0x000E08,BUF_4423
048BE1 07 0E 00 48 11 00 0135 	dl 0x000E07,BUF_4424
048BE7 07 0E 00 49 11 00 0136 	dl 0x000E07,BUF_4425
048BED 08 0E 00 4A 11 00 0137 	dl 0x000E08,BUF_4426
048BF3 07 0E 00 4B 11 00 0138 	dl 0x000E07,BUF_4427
048BF9 08 0E 00 4C 11 00 0139 	dl 0x000E08,BUF_4428
048BFF 09 0E 00 4D 11 00 0140 	dl 0x000E09,BUF_4429
048C05 07 0E 00 4E 11 00 0141 	dl 0x000E07,BUF_4430
048C0B 08 0E 00 4F 11 00 0142 	dl 0x000E08,BUF_4431
048C11 07 0E 00 50 11 00 0143 	dl 0x000E07,BUF_4432
048C17 08 0F 00 51 11 00 0144 	dl 0x000F08,BUF_4433
048C1D 08 0E 00 52 11 00 0145 	dl 0x000E08,BUF_4434
048C23 08 0E 00 53 11 00 0146 	dl 0x000E08,BUF_4435
048C29 07 0E 00 54 11 00 0147 	dl 0x000E07,BUF_4436
048C2F 08 0E 00 55 11 00 0148 	dl 0x000E08,BUF_4437
048C35 07 0E 00 56 11 00 0149 	dl 0x000E07,BUF_4438
048C3B 0B 0E 00 57 11 00 0150 	dl 0x000E0B,BUF_4439
048C41 07 0E 00 58 11 00 0151 	dl 0x000E07,BUF_4440
048C47 08 0E 00 59 11 00 0152 	dl 0x000E08,BUF_4441
048C4D 07 0E 00 5A 11 00 0153 	dl 0x000E07,BUF_4442
048C53 06 01 00 20 11 00 0154 	dl 0x000106,BUF_4384 ; Missing character 91
048C59 06 01 00 20 11 00 0155 	dl 0x000106,BUF_4384 ; Missing character 92
048C5F 06 01 00 20 11 00 0156 	dl 0x000106,BUF_4384 ; Missing character 93
048C65 06 01 00 20 11 00 0157 	dl 0x000106,BUF_4384 ; Missing character 94
048C6B 06 01 00 20 11 00 0158 	dl 0x000106,BUF_4384 ; Missing character 95
048C71 06 01 00 20 11 00 0159 	dl 0x000106,BUF_4384 ; Missing character 96
048C77 06 01 00 20 11 00 0160 	dl 0x000106,BUF_4384 ; Missing character 97
048C7D 06 01 00 20 11 00 0161 	dl 0x000106,BUF_4384 ; Missing character 98
048C83 06 01 00 20 11 00 0162 	dl 0x000106,BUF_4384 ; Missing character 99
048C89 06 01 00 20 11 00 0163 	dl 0x000106,BUF_4384 ; Missing character 100
048C8F 06 01 00 20 11 00 0164 	dl 0x000106,BUF_4384 ; Missing character 101
048C95 06 01 00 20 11 00 0165 	dl 0x000106,BUF_4384 ; Missing character 102
048C9B 06 01 00 20 11 00 0166 	dl 0x000106,BUF_4384 ; Missing character 103
048CA1 06 01 00 20 11 00 0167 	dl 0x000106,BUF_4384 ; Missing character 104
048CA7 06 01 00 20 11 00 0168 	dl 0x000106,BUF_4384 ; Missing character 105
048CAD 06 01 00 20 11 00 0169 	dl 0x000106,BUF_4384 ; Missing character 106
048CB3 06 01 00 20 11 00 0170 	dl 0x000106,BUF_4384 ; Missing character 107
048CB9 06 01 00 20 11 00 0171 	dl 0x000106,BUF_4384 ; Missing character 108
048CBF 06 01 00 20 11 00 0172 	dl 0x000106,BUF_4384 ; Missing character 109
048CC5 06 01 00 20 11 00 0173 	dl 0x000106,BUF_4384 ; Missing character 110
048CCB 06 01 00 20 11 00 0174 	dl 0x000106,BUF_4384 ; Missing character 111
048CD1 06 01 00 20 11 00 0175 	dl 0x000106,BUF_4384 ; Missing character 112
048CD7 06 01 00 20 11 00 0176 	dl 0x000106,BUF_4384 ; Missing character 113
048CDD 06 01 00 20 11 00 0177 	dl 0x000106,BUF_4384 ; Missing character 114
048CE3 06 01 00 20 11 00 0178 	dl 0x000106,BUF_4384 ; Missing character 115
048CE9 06 01 00 20 11 00 0179 	dl 0x000106,BUF_4384 ; Missing character 116
048CEF 06 01 00 20 11 00 0180 	dl 0x000106,BUF_4384 ; Missing character 117
048CF5 06 01 00 20 11 00 0181 	dl 0x000106,BUF_4384 ; Missing character 118
048CFB 06 01 00 20 11 00 0182 	dl 0x000106,BUF_4384 ; Missing character 119
048D01 06 01 00 20 11 00 0183 	dl 0x000106,BUF_4384 ; Missing character 120
048D07 06 01 00 20 11 00 0184 	dl 0x000106,BUF_4384 ; Missing character 121
048D0D 06 01 00 20 11 00 0185 	dl 0x000106,BUF_4384 ; Missing character 122
048D13                   0186 
048D13                   0187 ; Import .rgba2 bitmap files and load them into VDP buffers
048D13                   0188 load_font_retro_computer:
048D13                   0189 
048D13 21 B7 92 04       0190 	ld hl,Frc032
048D17 11 AD A7 04       0191 	ld de,filedata
048D1B 01 00 00 01       0192 	ld bc,65536
048D1F 3E 01             0193 	ld a,mos_load
048D21 5B CF             0194 	RST.LIL 08h
048D23 21 20 11 00       0195 	ld hl,BUF_4384
048D27 01 06 00 00       0196 	ld bc,6
048D2B 11 01 00 00       0197 	ld de,1
048D2F DD 21 06 00 00    0198 	ld ix,6
048D34 CD 3E A7 04       0199 	call vdu_load_img
048D38                   0200 
048D38 21 CA 92 04       0201 	ld hl,Frc033
048D3C 11 AD A7 04       0202 	ld de,filedata
048D40 01 00 00 01       0203 	ld bc,65536
048D44 3E 01             0204 	ld a,mos_load
048D46 5B CF             0205 	RST.LIL 08h
048D48 21 21 11 00       0206 	ld hl,BUF_4385
048D4C 01 03 00 00       0207 	ld bc,3
048D50 11 0E 00 00       0208 	ld de,14
048D54 DD 21 2A 00 00    0209 	ld ix,42
048D59 CD 3E A7 04       0210 	call vdu_load_img
048D5D                   0211 ; Missing character 34
048D5D                   0212 ; Missing character 35
048D5D                   0213 ; Missing character 36
048D5D                   0214 ; Missing character 37
048D5D                   0215 ; Missing character 38
048D5D                   0216 ; Missing character 39
048D5D                   0217 ; Missing character 40
048D5D                   0218 ; Missing character 41
048D5D                   0219 ; Missing character 42
048D5D                   0220 ; Missing character 43
048D5D                   0221 ; Missing character 44
048D5D                   0222 ; Missing character 45
048D5D                   0223 ; Missing character 46
048D5D                   0224 ; Missing character 47
048D5D                   0225 
048D5D 21 DD 92 04       0226 	ld hl,Frc048
048D61 11 AD A7 04       0227 	ld de,filedata
048D65 01 00 00 01       0228 	ld bc,65536
048D69 3E 01             0229 	ld a,mos_load
048D6B 5B CF             0230 	RST.LIL 08h
048D6D 21 30 11 00       0231 	ld hl,BUF_4400
048D71 01 08 00 00       0232 	ld bc,8
048D75 11 0E 00 00       0233 	ld de,14
048D79 DD 21 70 00 00    0234 	ld ix,112
048D7E CD 3E A7 04       0235 	call vdu_load_img
048D82                   0236 
048D82 21 F0 92 04       0237 	ld hl,Frc049
048D86 11 AD A7 04       0238 	ld de,filedata
048D8A 01 00 00 01       0239 	ld bc,65536
048D8E 3E 01             0240 	ld a,mos_load
048D90 5B CF             0241 	RST.LIL 08h
048D92 21 31 11 00       0242 	ld hl,BUF_4401
048D96 01 08 00 00       0243 	ld bc,8
048D9A 11 0E 00 00       0244 	ld de,14
048D9E DD 21 70 00 00    0245 	ld ix,112
048DA3 CD 3E A7 04       0246 	call vdu_load_img
048DA7                   0247 
048DA7 21 03 93 04       0248 	ld hl,Frc050
048DAB 11 AD A7 04       0249 	ld de,filedata
048DAF 01 00 00 01       0250 	ld bc,65536
048DB3 3E 01             0251 	ld a,mos_load
048DB5 5B CF             0252 	RST.LIL 08h
048DB7 21 32 11 00       0253 	ld hl,BUF_4402
048DBB 01 08 00 00       0254 	ld bc,8
048DBF 11 0E 00 00       0255 	ld de,14
048DC3 DD 21 70 00 00    0256 	ld ix,112
048DC8 CD 3E A7 04       0257 	call vdu_load_img
048DCC                   0258 
048DCC 21 16 93 04       0259 	ld hl,Frc051
048DD0 11 AD A7 04       0260 	ld de,filedata
048DD4 01 00 00 01       0261 	ld bc,65536
048DD8 3E 01             0262 	ld a,mos_load
048DDA 5B CF             0263 	RST.LIL 08h
048DDC 21 33 11 00       0264 	ld hl,BUF_4403
048DE0 01 08 00 00       0265 	ld bc,8
048DE4 11 0E 00 00       0266 	ld de,14
048DE8 DD 21 70 00 00    0267 	ld ix,112
048DED CD 3E A7 04       0268 	call vdu_load_img
048DF1                   0269 
048DF1 21 29 93 04       0270 	ld hl,Frc052
048DF5 11 AD A7 04       0271 	ld de,filedata
048DF9 01 00 00 01       0272 	ld bc,65536
048DFD 3E 01             0273 	ld a,mos_load
048DFF 5B CF             0274 	RST.LIL 08h
048E01 21 34 11 00       0275 	ld hl,BUF_4404
048E05 01 08 00 00       0276 	ld bc,8
048E09 11 0E 00 00       0277 	ld de,14
048E0D DD 21 70 00 00    0278 	ld ix,112
048E12 CD 3E A7 04       0279 	call vdu_load_img
048E16                   0280 
048E16 21 3C 93 04       0281 	ld hl,Frc053
048E1A 11 AD A7 04       0282 	ld de,filedata
048E1E 01 00 00 01       0283 	ld bc,65536
048E22 3E 01             0284 	ld a,mos_load
048E24 5B CF             0285 	RST.LIL 08h
048E26 21 35 11 00       0286 	ld hl,BUF_4405
048E2A 01 08 00 00       0287 	ld bc,8
048E2E 11 0E 00 00       0288 	ld de,14
048E32 DD 21 70 00 00    0289 	ld ix,112
048E37 CD 3E A7 04       0290 	call vdu_load_img
048E3B                   0291 
048E3B 21 4F 93 04       0292 	ld hl,Frc054
048E3F 11 AD A7 04       0293 	ld de,filedata
048E43 01 00 00 01       0294 	ld bc,65536
048E47 3E 01             0295 	ld a,mos_load
048E49 5B CF             0296 	RST.LIL 08h
048E4B 21 36 11 00       0297 	ld hl,BUF_4406
048E4F 01 08 00 00       0298 	ld bc,8
048E53 11 0E 00 00       0299 	ld de,14
048E57 DD 21 70 00 00    0300 	ld ix,112
048E5C CD 3E A7 04       0301 	call vdu_load_img
048E60                   0302 
048E60 21 62 93 04       0303 	ld hl,Frc055
048E64 11 AD A7 04       0304 	ld de,filedata
048E68 01 00 00 01       0305 	ld bc,65536
048E6C 3E 01             0306 	ld a,mos_load
048E6E 5B CF             0307 	RST.LIL 08h
048E70 21 37 11 00       0308 	ld hl,BUF_4407
048E74 01 08 00 00       0309 	ld bc,8
048E78 11 0E 00 00       0310 	ld de,14
048E7C DD 21 70 00 00    0311 	ld ix,112
048E81 CD 3E A7 04       0312 	call vdu_load_img
048E85                   0313 
048E85 21 75 93 04       0314 	ld hl,Frc056
048E89 11 AD A7 04       0315 	ld de,filedata
048E8D 01 00 00 01       0316 	ld bc,65536
048E91 3E 01             0317 	ld a,mos_load
048E93 5B CF             0318 	RST.LIL 08h
048E95 21 38 11 00       0319 	ld hl,BUF_4408
048E99 01 08 00 00       0320 	ld bc,8
048E9D 11 0E 00 00       0321 	ld de,14
048EA1 DD 21 70 00 00    0322 	ld ix,112
048EA6 CD 3E A7 04       0323 	call vdu_load_img
048EAA                   0324 
048EAA 21 88 93 04       0325 	ld hl,Frc057
048EAE 11 AD A7 04       0326 	ld de,filedata
048EB2 01 00 00 01       0327 	ld bc,65536
048EB6 3E 01             0328 	ld a,mos_load
048EB8 5B CF             0329 	RST.LIL 08h
048EBA 21 39 11 00       0330 	ld hl,BUF_4409
048EBE 01 08 00 00       0331 	ld bc,8
048EC2 11 0E 00 00       0332 	ld de,14
048EC6 DD 21 70 00 00    0333 	ld ix,112
048ECB CD 3E A7 04       0334 	call vdu_load_img
048ECF                   0335 ; Missing character 58
048ECF                   0336 ; Missing character 59
048ECF                   0337 ; Missing character 60
048ECF                   0338 ; Missing character 61
048ECF                   0339 ; Missing character 62
048ECF                   0340 
048ECF 21 9B 93 04       0341 	ld hl,Frc063
048ED3 11 AD A7 04       0342 	ld de,filedata
048ED7 01 00 00 01       0343 	ld bc,65536
048EDB 3E 01             0344 	ld a,mos_load
048EDD 5B CF             0345 	RST.LIL 08h
048EDF 21 3F 11 00       0346 	ld hl,BUF_4415
048EE3 01 08 00 00       0347 	ld bc,8
048EE7 11 0E 00 00       0348 	ld de,14
048EEB DD 21 70 00 00    0349 	ld ix,112
048EF0 CD 3E A7 04       0350 	call vdu_load_img
048EF4                   0351 ; Missing character 64
048EF4                   0352 
048EF4 21 AE 93 04       0353 	ld hl,Frc065
048EF8 11 AD A7 04       0354 	ld de,filedata
048EFC 01 00 00 01       0355 	ld bc,65536
048F00 3E 01             0356 	ld a,mos_load
048F02 5B CF             0357 	RST.LIL 08h
048F04 21 41 11 00       0358 	ld hl,BUF_4417
048F08 01 07 00 00       0359 	ld bc,7
048F0C 11 0E 00 00       0360 	ld de,14
048F10 DD 21 62 00 00    0361 	ld ix,98
048F15 CD 3E A7 04       0362 	call vdu_load_img
048F19                   0363 
048F19 21 C1 93 04       0364 	ld hl,Frc066
048F1D 11 AD A7 04       0365 	ld de,filedata
048F21 01 00 00 01       0366 	ld bc,65536
048F25 3E 01             0367 	ld a,mos_load
048F27 5B CF             0368 	RST.LIL 08h
048F29 21 42 11 00       0369 	ld hl,BUF_4418
048F2D 01 08 00 00       0370 	ld bc,8
048F31 11 0E 00 00       0371 	ld de,14
048F35 DD 21 70 00 00    0372 	ld ix,112
048F3A CD 3E A7 04       0373 	call vdu_load_img
048F3E                   0374 
048F3E 21 D4 93 04       0375 	ld hl,Frc067
048F42 11 AD A7 04       0376 	ld de,filedata
048F46 01 00 00 01       0377 	ld bc,65536
048F4A 3E 01             0378 	ld a,mos_load
048F4C 5B CF             0379 	RST.LIL 08h
048F4E 21 43 11 00       0380 	ld hl,BUF_4419
048F52 01 07 00 00       0381 	ld bc,7
048F56 11 0E 00 00       0382 	ld de,14
048F5A DD 21 62 00 00    0383 	ld ix,98
048F5F CD 3E A7 04       0384 	call vdu_load_img
048F63                   0385 
048F63 21 E7 93 04       0386 	ld hl,Frc068
048F67 11 AD A7 04       0387 	ld de,filedata
048F6B 01 00 00 01       0388 	ld bc,65536
048F6F 3E 01             0389 	ld a,mos_load
048F71 5B CF             0390 	RST.LIL 08h
048F73 21 44 11 00       0391 	ld hl,BUF_4420
048F77 01 08 00 00       0392 	ld bc,8
048F7B 11 0E 00 00       0393 	ld de,14
048F7F DD 21 70 00 00    0394 	ld ix,112
048F84 CD 3E A7 04       0395 	call vdu_load_img
048F88                   0396 
048F88 21 FA 93 04       0397 	ld hl,Frc069
048F8C 11 AD A7 04       0398 	ld de,filedata
048F90 01 00 00 01       0399 	ld bc,65536
048F94 3E 01             0400 	ld a,mos_load
048F96 5B CF             0401 	RST.LIL 08h
048F98 21 45 11 00       0402 	ld hl,BUF_4421
048F9C 01 08 00 00       0403 	ld bc,8
048FA0 11 0E 00 00       0404 	ld de,14
048FA4 DD 21 70 00 00    0405 	ld ix,112
048FA9 CD 3E A7 04       0406 	call vdu_load_img
048FAD                   0407 
048FAD 21 0D 94 04       0408 	ld hl,Frc070
048FB1 11 AD A7 04       0409 	ld de,filedata
048FB5 01 00 00 01       0410 	ld bc,65536
048FB9 3E 01             0411 	ld a,mos_load
048FBB 5B CF             0412 	RST.LIL 08h
048FBD 21 46 11 00       0413 	ld hl,BUF_4422
048FC1 01 07 00 00       0414 	ld bc,7
048FC5 11 0E 00 00       0415 	ld de,14
048FC9 DD 21 62 00 00    0416 	ld ix,98
048FCE CD 3E A7 04       0417 	call vdu_load_img
048FD2                   0418 
048FD2 21 20 94 04       0419 	ld hl,Frc071
048FD6 11 AD A7 04       0420 	ld de,filedata
048FDA 01 00 00 01       0421 	ld bc,65536
048FDE 3E 01             0422 	ld a,mos_load
048FE0 5B CF             0423 	RST.LIL 08h
048FE2 21 47 11 00       0424 	ld hl,BUF_4423
048FE6 01 08 00 00       0425 	ld bc,8
048FEA 11 0E 00 00       0426 	ld de,14
048FEE DD 21 70 00 00    0427 	ld ix,112
048FF3 CD 3E A7 04       0428 	call vdu_load_img
048FF7                   0429 
048FF7 21 33 94 04       0430 	ld hl,Frc072
048FFB 11 AD A7 04       0431 	ld de,filedata
048FFF 01 00 00 01       0432 	ld bc,65536
049003 3E 01             0433 	ld a,mos_load
049005 5B CF             0434 	RST.LIL 08h
049007 21 48 11 00       0435 	ld hl,BUF_4424
04900B 01 07 00 00       0436 	ld bc,7
04900F 11 0E 00 00       0437 	ld de,14
049013 DD 21 62 00 00    0438 	ld ix,98
049018 CD 3E A7 04       0439 	call vdu_load_img
04901C                   0440 
04901C 21 46 94 04       0441 	ld hl,Frc073
049020 11 AD A7 04       0442 	ld de,filedata
049024 01 00 00 01       0443 	ld bc,65536
049028 3E 01             0444 	ld a,mos_load
04902A 5B CF             0445 	RST.LIL 08h
04902C 21 49 11 00       0446 	ld hl,BUF_4425
049030 01 07 00 00       0447 	ld bc,7
049034 11 0E 00 00       0448 	ld de,14
049038 DD 21 62 00 00    0449 	ld ix,98
04903D CD 3E A7 04       0450 	call vdu_load_img
049041                   0451 
049041 21 59 94 04       0452 	ld hl,Frc074
049045 11 AD A7 04       0453 	ld de,filedata
049049 01 00 00 01       0454 	ld bc,65536
04904D 3E 01             0455 	ld a,mos_load
04904F 5B CF             0456 	RST.LIL 08h
049051 21 4A 11 00       0457 	ld hl,BUF_4426
049055 01 08 00 00       0458 	ld bc,8
049059 11 0E 00 00       0459 	ld de,14
04905D DD 21 70 00 00    0460 	ld ix,112
049062 CD 3E A7 04       0461 	call vdu_load_img
049066                   0462 
049066 21 6C 94 04       0463 	ld hl,Frc075
04906A 11 AD A7 04       0464 	ld de,filedata
04906E 01 00 00 01       0465 	ld bc,65536
049072 3E 01             0466 	ld a,mos_load
049074 5B CF             0467 	RST.LIL 08h
049076 21 4B 11 00       0468 	ld hl,BUF_4427
04907A 01 07 00 00       0469 	ld bc,7
04907E 11 0E 00 00       0470 	ld de,14
049082 DD 21 62 00 00    0471 	ld ix,98
049087 CD 3E A7 04       0472 	call vdu_load_img
04908B                   0473 
04908B 21 7F 94 04       0474 	ld hl,Frc076
04908F 11 AD A7 04       0475 	ld de,filedata
049093 01 00 00 01       0476 	ld bc,65536
049097 3E 01             0477 	ld a,mos_load
049099 5B CF             0478 	RST.LIL 08h
04909B 21 4C 11 00       0479 	ld hl,BUF_4428
04909F 01 08 00 00       0480 	ld bc,8
0490A3 11 0E 00 00       0481 	ld de,14
0490A7 DD 21 70 00 00    0482 	ld ix,112
0490AC CD 3E A7 04       0483 	call vdu_load_img
0490B0                   0484 
0490B0 21 92 94 04       0485 	ld hl,Frc077
0490B4 11 AD A7 04       0486 	ld de,filedata
0490B8 01 00 00 01       0487 	ld bc,65536
0490BC 3E 01             0488 	ld a,mos_load
0490BE 5B CF             0489 	RST.LIL 08h
0490C0 21 4D 11 00       0490 	ld hl,BUF_4429
0490C4 01 09 00 00       0491 	ld bc,9
0490C8 11 0E 00 00       0492 	ld de,14
0490CC DD 21 7E 00 00    0493 	ld ix,126
0490D1 CD 3E A7 04       0494 	call vdu_load_img
0490D5                   0495 
0490D5 21 A5 94 04       0496 	ld hl,Frc078
0490D9 11 AD A7 04       0497 	ld de,filedata
0490DD 01 00 00 01       0498 	ld bc,65536
0490E1 3E 01             0499 	ld a,mos_load
0490E3 5B CF             0500 	RST.LIL 08h
0490E5 21 4E 11 00       0501 	ld hl,BUF_4430
0490E9 01 07 00 00       0502 	ld bc,7
0490ED 11 0E 00 00       0503 	ld de,14
0490F1 DD 21 62 00 00    0504 	ld ix,98
0490F6 CD 3E A7 04       0505 	call vdu_load_img
0490FA                   0506 
0490FA 21 B8 94 04       0507 	ld hl,Frc079
0490FE 11 AD A7 04       0508 	ld de,filedata
049102 01 00 00 01       0509 	ld bc,65536
049106 3E 01             0510 	ld a,mos_load
049108 5B CF             0511 	RST.LIL 08h
04910A 21 4F 11 00       0512 	ld hl,BUF_4431
04910E 01 08 00 00       0513 	ld bc,8
049112 11 0E 00 00       0514 	ld de,14
049116 DD 21 70 00 00    0515 	ld ix,112
04911B CD 3E A7 04       0516 	call vdu_load_img
04911F                   0517 
04911F 21 CB 94 04       0518 	ld hl,Frc080
049123 11 AD A7 04       0519 	ld de,filedata
049127 01 00 00 01       0520 	ld bc,65536
04912B 3E 01             0521 	ld a,mos_load
04912D 5B CF             0522 	RST.LIL 08h
04912F 21 50 11 00       0523 	ld hl,BUF_4432
049133 01 07 00 00       0524 	ld bc,7
049137 11 0E 00 00       0525 	ld de,14
04913B DD 21 62 00 00    0526 	ld ix,98
049140 CD 3E A7 04       0527 	call vdu_load_img
049144                   0528 
049144 21 DE 94 04       0529 	ld hl,Frc081
049148 11 AD A7 04       0530 	ld de,filedata
04914C 01 00 00 01       0531 	ld bc,65536
049150 3E 01             0532 	ld a,mos_load
049152 5B CF             0533 	RST.LIL 08h
049154 21 51 11 00       0534 	ld hl,BUF_4433
049158 01 08 00 00       0535 	ld bc,8
04915C 11 0F 00 00       0536 	ld de,15
049160 DD 21 78 00 00    0537 	ld ix,120
049165 CD 3E A7 04       0538 	call vdu_load_img
049169                   0539 
049169 21 F1 94 04       0540 	ld hl,Frc082
04916D 11 AD A7 04       0541 	ld de,filedata
049171 01 00 00 01       0542 	ld bc,65536
049175 3E 01             0543 	ld a,mos_load
049177 5B CF             0544 	RST.LIL 08h
049179 21 52 11 00       0545 	ld hl,BUF_4434
04917D 01 08 00 00       0546 	ld bc,8
049181 11 0E 00 00       0547 	ld de,14
049185 DD 21 70 00 00    0548 	ld ix,112
04918A CD 3E A7 04       0549 	call vdu_load_img
04918E                   0550 
04918E 21 04 95 04       0551 	ld hl,Frc083
049192 11 AD A7 04       0552 	ld de,filedata
049196 01 00 00 01       0553 	ld bc,65536
04919A 3E 01             0554 	ld a,mos_load
04919C 5B CF             0555 	RST.LIL 08h
04919E 21 53 11 00       0556 	ld hl,BUF_4435
0491A2 01 08 00 00       0557 	ld bc,8
0491A6 11 0E 00 00       0558 	ld de,14
0491AA DD 21 70 00 00    0559 	ld ix,112
0491AF CD 3E A7 04       0560 	call vdu_load_img
0491B3                   0561 
0491B3 21 17 95 04       0562 	ld hl,Frc084
0491B7 11 AD A7 04       0563 	ld de,filedata
0491BB 01 00 00 01       0564 	ld bc,65536
0491BF 3E 01             0565 	ld a,mos_load
0491C1 5B CF             0566 	RST.LIL 08h
0491C3 21 54 11 00       0567 	ld hl,BUF_4436
0491C7 01 07 00 00       0568 	ld bc,7
0491CB 11 0E 00 00       0569 	ld de,14
0491CF DD 21 62 00 00    0570 	ld ix,98
0491D4 CD 3E A7 04       0571 	call vdu_load_img
0491D8                   0572 
0491D8 21 2A 95 04       0573 	ld hl,Frc085
0491DC 11 AD A7 04       0574 	ld de,filedata
0491E0 01 00 00 01       0575 	ld bc,65536
0491E4 3E 01             0576 	ld a,mos_load
0491E6 5B CF             0577 	RST.LIL 08h
0491E8 21 55 11 00       0578 	ld hl,BUF_4437
0491EC 01 08 00 00       0579 	ld bc,8
0491F0 11 0E 00 00       0580 	ld de,14
0491F4 DD 21 70 00 00    0581 	ld ix,112
0491F9 CD 3E A7 04       0582 	call vdu_load_img
0491FD                   0583 
0491FD 21 3D 95 04       0584 	ld hl,Frc086
049201 11 AD A7 04       0585 	ld de,filedata
049205 01 00 00 01       0586 	ld bc,65536
049209 3E 01             0587 	ld a,mos_load
04920B 5B CF             0588 	RST.LIL 08h
04920D 21 56 11 00       0589 	ld hl,BUF_4438
049211 01 07 00 00       0590 	ld bc,7
049215 11 0E 00 00       0591 	ld de,14
049219 DD 21 62 00 00    0592 	ld ix,98
04921E CD 3E A7 04       0593 	call vdu_load_img
049222                   0594 
049222 21 50 95 04       0595 	ld hl,Frc087
049226 11 AD A7 04       0596 	ld de,filedata
04922A 01 00 00 01       0597 	ld bc,65536
04922E 3E 01             0598 	ld a,mos_load
049230 5B CF             0599 	RST.LIL 08h
049232 21 57 11 00       0600 	ld hl,BUF_4439
049236 01 0B 00 00       0601 	ld bc,11
04923A 11 0E 00 00       0602 	ld de,14
04923E DD 21 9A 00 00    0603 	ld ix,154
049243 CD 3E A7 04       0604 	call vdu_load_img
049247                   0605 
049247 21 63 95 04       0606 	ld hl,Frc088
04924B 11 AD A7 04       0607 	ld de,filedata
04924F 01 00 00 01       0608 	ld bc,65536
049253 3E 01             0609 	ld a,mos_load
049255 5B CF             0610 	RST.LIL 08h
049257 21 58 11 00       0611 	ld hl,BUF_4440
04925B 01 07 00 00       0612 	ld bc,7
04925F 11 0E 00 00       0613 	ld de,14
049263 DD 21 62 00 00    0614 	ld ix,98
049268 CD 3E A7 04       0615 	call vdu_load_img
04926C                   0616 
04926C 21 76 95 04       0617 	ld hl,Frc089
049270 11 AD A7 04       0618 	ld de,filedata
049274 01 00 00 01       0619 	ld bc,65536
049278 3E 01             0620 	ld a,mos_load
04927A 5B CF             0621 	RST.LIL 08h
04927C 21 59 11 00       0622 	ld hl,BUF_4441
049280 01 08 00 00       0623 	ld bc,8
049284 11 0E 00 00       0624 	ld de,14
049288 DD 21 70 00 00    0625 	ld ix,112
04928D CD 3E A7 04       0626 	call vdu_load_img
049291                   0627 
049291 21 89 95 04       0628 	ld hl,Frc090
049295 11 AD A7 04       0629 	ld de,filedata
049299 01 00 00 01       0630 	ld bc,65536
04929D 3E 01             0631 	ld a,mos_load
04929F 5B CF             0632 	RST.LIL 08h
0492A1 21 5A 11 00       0633 	ld hl,BUF_4442
0492A5 01 07 00 00       0634 	ld bc,7
0492A9 11 0E 00 00       0635 	ld de,14
0492AD DD 21 62 00 00    0636 	ld ix,98
0492B2 CD 3E A7 04       0637 	call vdu_load_img
0492B6                   0638 ; Missing character 91
0492B6                   0639 ; Missing character 92
0492B6                   0640 ; Missing character 93
0492B6                   0641 ; Missing character 94
0492B6                   0642 ; Missing character 95
0492B6                   0643 ; Missing character 96
0492B6                   0644 ; Missing character 97
0492B6                   0645 ; Missing character 98
0492B6                   0646 ; Missing character 99
0492B6                   0647 ; Missing character 100
0492B6                   0648 ; Missing character 101
0492B6                   0649 ; Missing character 102
0492B6                   0650 ; Missing character 103
0492B6                   0651 ; Missing character 104
0492B6                   0652 ; Missing character 105
0492B6                   0653 ; Missing character 106
0492B6                   0654 ; Missing character 107
0492B6                   0655 ; Missing character 108
0492B6                   0656 ; Missing character 109
0492B6                   0657 ; Missing character 110
0492B6                   0658 ; Missing character 111
0492B6                   0659 ; Missing character 112
0492B6                   0660 ; Missing character 113
0492B6                   0661 ; Missing character 114
0492B6                   0662 ; Missing character 115
0492B6                   0663 ; Missing character 116
0492B6                   0664 ; Missing character 117
0492B6                   0665 ; Missing character 118
0492B6                   0666 ; Missing character 119
0492B6                   0667 ; Missing character 120
0492B6                   0668 ; Missing character 121
0492B6                   0669 ; Missing character 122
0492B6                   0670 
0492B6 C9                0671 	ret
0492B7                   0672 
0492B7 66 6F 6E 74 73 2F 0673 Frc032: db "fonts/rc/032.rgba2",0
       72 63 2F 30 33 32 
       2E 72 67 62 61 32 
       00                
0492CA 66 6F 6E 74 73 2F 0674 Frc033: db "fonts/rc/033.rgba2",0
       72 63 2F 30 33 33 
       2E 72 67 62 61 32 
       00                
0492DD 66 6F 6E 74 73 2F 0675 Frc048: db "fonts/rc/048.rgba2",0
       72 63 2F 30 34 38 
       2E 72 67 62 61 32 
       00                
0492F0 66 6F 6E 74 73 2F 0676 Frc049: db "fonts/rc/049.rgba2",0
       72 63 2F 30 34 39 
       2E 72 67 62 61 32 
       00                
049303 66 6F 6E 74 73 2F 0677 Frc050: db "fonts/rc/050.rgba2",0
       72 63 2F 30 35 30 
       2E 72 67 62 61 32 
       00                
049316 66 6F 6E 74 73 2F 0678 Frc051: db "fonts/rc/051.rgba2",0
       72 63 2F 30 35 31 
       2E 72 67 62 61 32 
       00                
049329 66 6F 6E 74 73 2F 0679 Frc052: db "fonts/rc/052.rgba2",0
       72 63 2F 30 35 32 
       2E 72 67 62 61 32 
       00                
04933C 66 6F 6E 74 73 2F 0680 Frc053: db "fonts/rc/053.rgba2",0
       72 63 2F 30 35 33 
       2E 72 67 62 61 32 
       00                
04934F 66 6F 6E 74 73 2F 0681 Frc054: db "fonts/rc/054.rgba2",0
       72 63 2F 30 35 34 
       2E 72 67 62 61 32 
       00                
049362 66 6F 6E 74 73 2F 0682 Frc055: db "fonts/rc/055.rgba2",0
       72 63 2F 30 35 35 
       2E 72 67 62 61 32 
       00                
049375 66 6F 6E 74 73 2F 0683 Frc056: db "fonts/rc/056.rgba2",0
       72 63 2F 30 35 36 
       2E 72 67 62 61 32 
       00                
049388 66 6F 6E 74 73 2F 0684 Frc057: db "fonts/rc/057.rgba2",0
       72 63 2F 30 35 37 
       2E 72 67 62 61 32 
       00                
04939B 66 6F 6E 74 73 2F 0685 Frc063: db "fonts/rc/063.rgba2",0
       72 63 2F 30 36 33 
       2E 72 67 62 61 32 
       00                
0493AE 66 6F 6E 74 73 2F 0686 Frc065: db "fonts/rc/065.rgba2",0
       72 63 2F 30 36 35 
       2E 72 67 62 61 32 
       00                
0493C1 66 6F 6E 74 73 2F 0687 Frc066: db "fonts/rc/066.rgba2",0
       72 63 2F 30 36 36 
       2E 72 67 62 61 32 
       00                
0493D4 66 6F 6E 74 73 2F 0688 Frc067: db "fonts/rc/067.rgba2",0
       72 63 2F 30 36 37 
       2E 72 67 62 61 32 
       00                
0493E7 66 6F 6E 74 73 2F 0689 Frc068: db "fonts/rc/068.rgba2",0
       72 63 2F 30 36 38 
       2E 72 67 62 61 32 
       00                
0493FA 66 6F 6E 74 73 2F 0690 Frc069: db "fonts/rc/069.rgba2",0
       72 63 2F 30 36 39 
       2E 72 67 62 61 32 
       00                
04940D 66 6F 6E 74 73 2F 0691 Frc070: db "fonts/rc/070.rgba2",0
       72 63 2F 30 37 30 
       2E 72 67 62 61 32 
       00                
049420 66 6F 6E 74 73 2F 0692 Frc071: db "fonts/rc/071.rgba2",0
       72 63 2F 30 37 31 
       2E 72 67 62 61 32 
       00                
049433 66 6F 6E 74 73 2F 0693 Frc072: db "fonts/rc/072.rgba2",0
       72 63 2F 30 37 32 
       2E 72 67 62 61 32 
       00                
049446 66 6F 6E 74 73 2F 0694 Frc073: db "fonts/rc/073.rgba2",0
       72 63 2F 30 37 33 
       2E 72 67 62 61 32 
       00                
049459 66 6F 6E 74 73 2F 0695 Frc074: db "fonts/rc/074.rgba2",0
       72 63 2F 30 37 34 
       2E 72 67 62 61 32 
       00                
04946C 66 6F 6E 74 73 2F 0696 Frc075: db "fonts/rc/075.rgba2",0
       72 63 2F 30 37 35 
       2E 72 67 62 61 32 
       00                
04947F 66 6F 6E 74 73 2F 0697 Frc076: db "fonts/rc/076.rgba2",0
       72 63 2F 30 37 36 
       2E 72 67 62 61 32 
       00                
049492 66 6F 6E 74 73 2F 0698 Frc077: db "fonts/rc/077.rgba2",0
       72 63 2F 30 37 37 
       2E 72 67 62 61 32 
       00                
0494A5 66 6F 6E 74 73 2F 0699 Frc078: db "fonts/rc/078.rgba2",0
       72 63 2F 30 37 38 
       2E 72 67 62 61 32 
       00                
0494B8 66 6F 6E 74 73 2F 0700 Frc079: db "fonts/rc/079.rgba2",0
       72 63 2F 30 37 39 
       2E 72 67 62 61 32 
       00                
0494CB 66 6F 6E 74 73 2F 0701 Frc080: db "fonts/rc/080.rgba2",0
       72 63 2F 30 38 30 
       2E 72 67 62 61 32 
       00                
0494DE 66 6F 6E 74 73 2F 0702 Frc081: db "fonts/rc/081.rgba2",0
       72 63 2F 30 38 31 
       2E 72 67 62 61 32 
       00                
0494F1 66 6F 6E 74 73 2F 0703 Frc082: db "fonts/rc/082.rgba2",0
       72 63 2F 30 38 32 
       2E 72 67 62 61 32 
       00                
049504 66 6F 6E 74 73 2F 0704 Frc083: db "fonts/rc/083.rgba2",0
       72 63 2F 30 38 33 
       2E 72 67 62 61 32 
       00                
049517 66 6F 6E 74 73 2F 0705 Frc084: db "fonts/rc/084.rgba2",0
       72 63 2F 30 38 34 
       2E 72 67 62 61 32 
       00                
04952A 66 6F 6E 74 73 2F 0706 Frc085: db "fonts/rc/085.rgba2",0
       72 63 2F 30 38 35 
       2E 72 67 62 61 32 
       00                
04953D 66 6F 6E 74 73 2F 0707 Frc086: db "fonts/rc/086.rgba2",0
       72 63 2F 30 38 36 
       2E 72 67 62 61 32 
       00                
049550 66 6F 6E 74 73 2F 0708 Frc087: db "fonts/rc/087.rgba2",0
       72 63 2F 30 38 37 
       2E 72 67 62 61 32 
       00                
049563 66 6F 6E 74 73 2F 0709 Frc088: db "fonts/rc/088.rgba2",0
       72 63 2F 30 38 38 
       2E 72 67 62 61 32 
       00                
049576 66 6F 6E 74 73 2F 0710 Frc089: db "fonts/rc/089.rgba2",0
       72 63 2F 30 38 39 
       2E 72 67 62 61 32 
       00                
049589 66 6F 6E 74 73 2F 0711 Frc090: db "fonts/rc/090.rgba2",0
       72 63 2F 30 39 30 
       2E 72 67 62 61 32 
       00                
04959C                   0026 	include "src/asm/ui.asm"
04959C                   0001 ; ui routines will go here
04959C                   0027 	include "src/asm/ui_img.asm"
04959C                   0001 ; Bitmap indices:
04959C                   0002 BUF_UI_BJ_120_120: equ 0x2000
04959C                   0003 BUF_UI_LOWER_PANEL: equ 0x2001
04959C                   0004 BUF_UI_SPLASH: equ 0x2002
04959C                   0005 
04959C                   0006 ; Import .rgba2 bitmap files and load them into VDP buffers
04959C                   0007 load_ui_images:
04959C                   0008 
04959C 21 0C 96 04       0009 	ld hl,F_UI_bj_120_120
0495A0 11 AD A7 04       0010 	ld de,filedata
0495A4 01 00 00 01       0011 	ld bc,65536
0495A8 3E 01             0012 	ld a,mos_load
0495AA 5B CF             0013 	RST.LIL 08h
0495AC 21 00 20 00       0014 	ld hl,BUF_UI_BJ_120_120
0495B0 01 78 00 00       0015 	ld bc,120
0495B4 11 78 00 00       0016 	ld de,120
0495B8 DD 21 40 38 00    0017 	ld ix,14400
0495BD CD 3E A7 04       0018 	call vdu_load_img
0495C1                   0019 
0495C1 21 20 96 04       0020 	ld hl,F_UI_lower_panel
0495C5 11 AD A7 04       0021 	ld de,filedata
0495C9 01 00 00 01       0022 	ld bc,65536
0495CD 3E 01             0023 	ld a,mos_load
0495CF 5B CF             0024 	RST.LIL 08h
0495D1 21 01 20 00       0025 	ld hl,BUF_UI_LOWER_PANEL
0495D5 01 40 01 00       0026 	ld bc,320
0495D9 11 50 00 00       0027 	ld de,80
0495DD DD 21 00 64 00    0028 	ld ix,25600
0495E2 CD 3E A7 04       0029 	call vdu_load_img
0495E6                   0030 
0495E6 21 35 96 04       0031 	ld hl,F_UI_splash
0495EA 11 AD A7 04       0032 	ld de,filedata
0495EE 01 00 00 01       0033 	ld bc,65536
0495F2 3E 01             0034 	ld a,mos_load
0495F4 5B CF             0035 	RST.LIL 08h
0495F6 21 02 20 00       0036 	ld hl,BUF_UI_SPLASH
0495FA 01 40 01 00       0037 	ld bc,320
0495FE 11 A0 00 00       0038 	ld de,160
049602 DD 21 00 C8 00    0039 	ld ix,51200
049607 CD 3E A7 04       0040 	call vdu_load_img
04960B                   0041 
04960B C9                0042 	ret
04960C                   0043 
04960C 75 69 2F 62 6A 5F 0044 F_UI_bj_120_120: db "ui/bj_120_120.rgba2",0
       31 32 30 5F 31 32 
       30 2E 72 67 62 61 
       32 00             
049620 75 69 2F 6C 6F 77 0045 F_UI_lower_panel: db "ui/lower_panel.rgba2",0
       65 72 5F 70 61 6E 
       65 6C 2E 72 67 62 
       61 32 00          
049635 75 69 2F 73 70 6C 0046 F_UI_splash: db "ui/splash.rgba2",0
       61 73 68 2E 72 67 
       62 61 32 00       
049645                   0028 	include "src/asm/sprites.asm"
049645                   0001 ; ###### SPRITE TABLE FIELD INDICES ######
049645                   0002 sprite_id:              equ 00 ; 1 byte  - unique spriteId, zero-based
049645                   0003 sprite_obj:             equ 01 ; 1 byte  - type of sprite as defined in polys.asm, 255 is dead
049645                   0004 sprite_health:          equ 02 ; 1 byte  - health points, signed binary, zero or negative is dead
049645                   0005 sprite_behavior_index:  equ 03 ; 1 byte  - index of sprite's behavior subroutine in enemies.asm
049645                   0006 sprite_x:               equ 04 ; 1 byte  - map x position
049645                   0007 sprite_y:               equ 05 ; 1 byte  - map y position
049645                   0008 sprite_orientation:     equ 06 ; 1 byte  - orientation
049645                   0009 sprite_animation:       equ 07 ; 1 byte  - current animation index, zero-based
049645                   0010 sprite_animation_timer: equ 08 ; 1 byte  - when hits zero, draw next animation frame
049645                   0011 sprite_move_timer:      equ 09 ; 1 byte  - when zero, go to next move program, or step
049645                   0012 sprite_move_step:       equ 10 ; 1 byte  - stage in a move program sequence, varies
049645                   0013 sprite_points:          equ 11 ; 1 byte  - points awarded for killing this sprite type, BCD
049645                   0014 sprite_health_damage:   equ 12 ; 1 byte  - health points deducted per successful attack on player, signed binary (negative gains health)
049645                   0015 sprite_unassigned:      equ 13 ; 3 bytes - unassigned can be used for custom properties
049645                   0016 sprite_record_size: equ 16 ; 16 bytes per sprite record
049645                   0017 
049645                   0018 
049645                   0019 ; ###### SPRITE TABLE VARIABLES ######
049645                   0020 ; maximum number of sprites
049645                   0021 table_max_records:      equ 64 ; at 16 bytes per record = 1024 bytes + 7 KiB for the map is an even 8 KiB
049645                   0022 table_total_bytes:      equ table_max_records*sprite_record_size
049645                   0023 
049645                   0024 ; #### THIS DEFINES THE SPACE ALLOCATED TO THE SPRITE TABLE IN EACH MAP FILE ####
049645                   0025 sprite_table_base:       equ 0xB7FC00
049645                   0026 sprite_table_limit:      equ sprite_table_base + table_total_bytes + 1 ; in case we ever need to know where it ends
049645                   0027 
049645                   0028 ; pointer to top address of current record, initialized to sprite_table_base
049645 00 FC B7          0029 sprite_table_pointer: dl sprite_table_base
049648                   0030 ; how many active sprites
049648 00                0031 table_active_sprites: db 0x00
049649                   0032 ; flag indicating collision with screen edge
049649                   0033 ; uses orientation codes to specify which edge(s)
049649 00                0034 sprite_screen_edge: db #00
04964A                   0035 ; next sprite id to use
04964A 00                0036 sprite_next_id: db 0
04964B                   0037 
04964B                   0038 ; ######### COLLISION SPRITE PARAMETERS ##########
04964B                   0039 ; integer coordinates are all that are needed for collision calculations
04964B 00                0040 collision_x: db 0x00
04964C 00                0041 collision_y: db 0x00
04964D 00                0042 collision_dim_x: db 0x00
04964E 00                0043 collision_dim_y: db 0x00
04964F                   0044 
04964F                   0045 ; scratch variables
04964F 00                0046 x: db 0x00 ; 8-bit signed integer
049650 00                0047 y: db 0x00 ; 8-bit signed integer
049651 00 00 00          0048 x0: dl 0x000000 ; 16.8 signed fixed place
049654 00 00 00          0049 y0: dl 0x000000 ; 16.8 signed fixed place
049657 00 00 00          0050 incx1: dl 0x000000 ; 16.8 signed fixed place
04965A 00 00 00          0051 incy1: dl 0x000000 ; 16.8 signed fixed place
04965D 00 00 00          0052 incx2: dl 0x000000 ; 16.8 signed fixed place
049660 00 00 00          0053 incy2: dl 0x000000 ; 16.8 signed fixed place
049663                   0054 
049663                   0055 ; sprite_heading: dl 0x000000 ; signed fixed 16.8
049663 00 00 00          0056 radius: dl 0x000000 ; signed fixed 16.8 (but should always be positive)
049666 00 00 00          0057 sin_sprite_heading: dl 0x000000 ; signed fixed 16.8
049669 00 00 00          0058 cos_sprite_heading: dl 0x000000 ; signed fixed 16.8
04966C                   0059 
04966C                   0060 ; gets the next available sprite id
04966C                   0061 ; inputs; none
04966C                   0062 ; returns: if new sprite available, a = sprite id,
04966C                   0063 ;           ix pointing to new sprite vars, carry set
04966C                   0064 ;      otherwise, a = 0, carry flag reset, ix pointing to highest sprite vars
04966C                   0065 ; destroys: a,b,hl,ix
04966C                   0066 ; affects: bumps table_active_sprites by one
04966C                   0067 table_get_next_id:
04966C DD 21 00 FC B7    0068     ld ix,sprite_table_base
049671 11 10 00 00       0069     ld de,sprite_record_size
049675 06 40             0070     ld b,table_max_records
049677                   0071 @loop:
049677 DD 7E 01          0072     ld a,(ix+sprite_obj)
04967A A7                0073     and a
04967B 28 06             0074     jr z,@found
04967D DD 19             0075     add ix,de
04967F 10 F6             0076     djnz @loop
049681                   0077 @notfound:
049681 AF                0078     xor a ; a = 0 and reset carry flag indicating that we didn't find a free sprite
049682 C9                0079     ret
049683                   0080 @found:
049683                   0081 ; bump number of active sprites
049683 21 48 96 04       0082     ld hl,table_active_sprites
049687 34                0083     inc (hl)
049688                   0084 ; return sprite id
049688 3E 40             0085     ld a,table_max_records
04968A 90                0086     sub b
04968B 32 4A 96 04       0087     ld (sprite_next_id),a
04968F 37                0088     scf ; sets carry flag indicating we found a free sprite
049690 C9                0089     ret ; done
049691                   0090 
049691                   0091 ; deactivate the sprite with the given id
049691                   0092 ; inputs: a = sprite id
049691                   0093 ; outputs: nothing
049691                   0094 ; destroys: a,ix,de
049691                   0095 ; affects: decrements table_active_sprites by one
049691                   0096 table_deactivate_sprite:
049691 F5                0097     push af ; save sprite id bc we need it later
049692 CD 33 9E 04       0098     call vdu_sprite_select
049696 CD B7 9E 04       0099     call vdu_sprite_hide
04969A F1                0100     pop af ; restore sprite id
04969B 11 00 00 00       0101     ld de,0 ; clear deu
04969F 57                0102     ld d,a
0496A0 1E 10             0103     ld e,sprite_record_size
0496A2 ED 5C             0104     mlt de
0496A4 DD 21 00 FC B7    0105     ld ix,sprite_table_base
0496A9 DD 19             0106     add ix,de
0496AB AF                0107     xor a
0496AC DD 77 01          0108     ld (ix+sprite_obj),a
0496AF DD 21 48 96 04    0109     ld ix,table_active_sprites
0496B4 DD 35 00          0110     dec (ix)
0496B7 C9                0111     ret
0496B8                   0112 
0496B8                   0113 ; #### SPRITE BEHAVIOR SUBROUTINES ####
0496B8                   0114 sprite_behavior_lookup:
0496B8 17 97 04          0115     dl LAMP
0496BB 40 97 04          0116     dl BARREL
0496BE 69 97 04          0117     dl TABLE
0496C1 92 97 04          0118     dl OVERHEAD_LIGHT
0496C4 BB 97 04          0119     dl RADIOACTIVE_BARREL
0496C7 E4 97 04          0120     dl HEALTH_PACK
0496CA 0D 98 04          0121     dl GOLD_CHALISE
0496CD 36 98 04          0122     dl GOLD_CROSS
0496D0 5F 98 04          0123     dl PLATE_OF_FOOD
0496D3 88 98 04          0124     dl KEYCARD
0496D6 B1 98 04          0125     dl GOLD_CHEST
0496D9 DA 98 04          0126     dl MACHINE_GUN
0496DC 03 99 04          0127     dl GATLING_GUN
0496DF 2C 99 04          0128     dl DOG_FOOD
0496E2 55 99 04          0129     dl GOLD_KEY
0496E5 7E 99 04          0130     dl DOG
0496E8 A7 99 04          0131     dl GERMAN_TROOPER
0496EB D0 99 04          0132     dl SS_GUARD
0496EE                   0133 
0496EE                   0134 ; initializes sprite data for a particular sprite type and id
0496EE                   0135 ; inputs: iy = sprite_table_pointer to correct sprite record, sprite_obj set for that record
0496EE                   0136 sprite_init_data:
0496EE AF                0137     xor a ; index for sprite init routine
0496EF CD FD 96 04       0138     call do_sprite_behavior ; hl points at address to copy from
0496F3 ED 13 02          0139     lea de,iy+sprite_health ; de points at the address for LDIR to copy to
0496F6 01 0E 00 00       0140     ld bc,sprite_record_size-2 ; copy all but the first two bytes
0496FA ED B0             0141     ldir ; hl came back with the copy from address, so we're ready to copy the data
0496FC C9                0142     ret ; done
0496FD                   0143 
0496FD                   0144 ; #### SPRITE BEHAVIOR ROUTINES ####
0496FD                   0145 ; inputs: iy points to sprite record, sprite_obj set for that record,
0496FD                   0146 ;         a = type index of routine to call
0496FD                   0147 do_sprite_behavior:
0496FD F5                0148     push af ; save routine index for later
0496FE FD 7E 01          0149     ld a,(iy+sprite_obj)
049701 47                0150     ld b,a
049702 0E 03             0151     ld c,3 ; three bytes per lookup record
049704 ED 4C             0152     mlt bc ; bc is offset from the base of the lookup table
049706 21 B8 96 04       0153     ld hl,sprite_behavior_lookup
04970A 09                0154     add hl,bc
04970B ED 27             0155     ld hl,(hl) ; hl points to the base address of the sprite behavior routines
04970D C1                0156     pop bc ; b holds the routine index
04970E 0E 03             0157     ld c,3 ; three bytes per lookup record
049710 ED 4C             0158     mlt bc ; bc is offset from the base of the lookup table
049712 09                0159     add hl,bc ; hl points to the label of the routine to call
049713 ED 27             0160     ld hl,(hl) ; hl points to the routine to call
049715 E9                0161     jp (hl) ; call the behavior routine
049716                   0162 sprite_behavior_return: ; we always return here from a sprite behavior call
049716 C9                0163     ret
049717                   0164 
049717                   0165 LAMP:
049717                   0166 ; behavior routine address lookup
049717 26 97 04          0167     dl @init
04971A 3C 97 04          0168     dl @use
04971D 3D 97 04          0169     dl @shoot
049720 3E 97 04          0170     dl @see
049723 3F 97 04          0171     dl @kill
049726                   0172 @init:
049726 21 2E 97 04       0173     ld hl,@data ; address for LDIR to copy from
04972A C3 16 97 04       0174     jp sprite_behavior_return
04972E                   0175 @data:
04972E 64                0176     db 100 ;sprite_health
04972F 00                0177     db 000 ;sprite_behavior_index
049730 00                0178     db 000 ;sprite_x
049731 00                0179     db 000 ;sprite_y
049732 00                0180     db 000 ;sprite_orientation
049733 00                0181     db 000 ;sprite_animation
049734 00                0182     db 000 ;sprite_animation_timer
049735 00                0183     db 000 ;sprite_move_timer
049736 00                0184     db 000 ;sprite_move_step
049737 64                0185     db 100 ;sprite_points
049738 14                0186     db 020 ;sprite_health_damage
049739 00                0187     db 000 ;sprite_unassigned_0
04973A 00                0188     db 000 ;sprite_unassigned_1
04973B 00                0189     db 000 ;sprite_unassigned_2
04973C                   0190 @use:
04973C C9                0191     ret
04973D                   0192 @shoot:
04973D C9                0193     ret
04973E                   0194 @see:
04973E C9                0195     ret
04973F                   0196 @kill:
04973F C9                0197     ret
049740                   0198 
049740                   0199 BARREL:
049740                   0200 ; behavior routine address lookup
049740 4F 97 04          0201     dl @init
049743 65 97 04          0202     dl @use
049746 66 97 04          0203     dl @shoot
049749 67 97 04          0204     dl @see
04974C 68 97 04          0205     dl @kill
04974F                   0206 @init:
04974F 21 57 97 04       0207     ld hl,@data ; address for LDIR to copy from
049753 C3 16 97 04       0208     jp sprite_behavior_return
049757                   0209 @data:
049757 64                0210     db 100 ;sprite_health
049758 00                0211     db 000 ;sprite_behavior_index
049759 00                0212     db 000 ;sprite_x
04975A 00                0213     db 000 ;sprite_y
04975B 00                0214     db 000 ;sprite_orientation
04975C 00                0215     db 000 ;sprite_animation
04975D 00                0216     db 000 ;sprite_animation_timer
04975E 00                0217     db 000 ;sprite_move_timer
04975F 00                0218     db 000 ;sprite_move_step
049760 64                0219     db 100 ;sprite_points
049761 14                0220     db 020 ;sprite_health_damage
049762 00                0221     db 000 ;sprite_unassigned_0
049763 00                0222     db 000 ;sprite_unassigned_1
049764 00                0223     db 000 ;sprite_unassigned_2
049765                   0224 @use:
049765 C9                0225     ret
049766                   0226 @shoot:
049766 C9                0227     ret
049767                   0228 @see:
049767 C9                0229     ret
049768                   0230 @kill:
049768 C9                0231     ret
049769                   0232 
049769                   0233 TABLE:
049769                   0234 ; behavior routine address lookup
049769 78 97 04          0235     dl @init
04976C 8E 97 04          0236     dl @use
04976F 8F 97 04          0237     dl @shoot
049772 90 97 04          0238     dl @see
049775 91 97 04          0239     dl @kill
049778                   0240 @init:
049778 21 80 97 04       0241     ld hl,@data ; address for LDIR to copy from
04977C C3 16 97 04       0242     jp sprite_behavior_return
049780                   0243 @data:
049780 64                0244     db 100 ;sprite_health
049781 00                0245     db 000 ;sprite_behavior_index
049782 00                0246     db 000 ;sprite_x
049783 00                0247     db 000 ;sprite_y
049784 00                0248     db 000 ;sprite_orientation
049785 00                0249     db 000 ;sprite_animation
049786 00                0250     db 000 ;sprite_animation_timer
049787 00                0251     db 000 ;sprite_move_timer
049788 00                0252     db 000 ;sprite_move_step
049789 64                0253     db 100 ;sprite_points
04978A 14                0254     db 020 ;sprite_health_damage
04978B 00                0255     db 000 ;sprite_unassigned_0
04978C 00                0256     db 000 ;sprite_unassigned_1
04978D 00                0257     db 000 ;sprite_unassigned_2
04978E                   0258 @use:
04978E C9                0259     ret
04978F                   0260 @shoot:
04978F C9                0261     ret
049790                   0262 @see:
049790 C9                0263     ret
049791                   0264 @kill:
049791 C9                0265     ret
049792                   0266 
049792                   0267 OVERHEAD_LIGHT:
049792                   0268 ; behavior routine address lookup
049792 A1 97 04          0269     dl @init
049795 B7 97 04          0270     dl @use
049798 B8 97 04          0271     dl @shoot
04979B B9 97 04          0272     dl @see
04979E BA 97 04          0273     dl @kill
0497A1                   0274 @init:
0497A1 21 A9 97 04       0275     ld hl,@data ; address for LDIR to copy from
0497A5 C3 16 97 04       0276     jp sprite_behavior_return
0497A9                   0277 @data:
0497A9 64                0278     db 100 ;sprite_health
0497AA 00                0279     db 000 ;sprite_behavior_index
0497AB 00                0280     db 000 ;sprite_x
0497AC 00                0281     db 000 ;sprite_y
0497AD 00                0282     db 000 ;sprite_orientation
0497AE 00                0283     db 000 ;sprite_animation
0497AF 00                0284     db 000 ;sprite_animation_timer
0497B0 00                0285     db 000 ;sprite_move_timer
0497B1 00                0286     db 000 ;sprite_move_step
0497B2 64                0287     db 100 ;sprite_points
0497B3 14                0288     db 020 ;sprite_health_damage
0497B4 00                0289     db 000 ;sprite_unassigned_0
0497B5 00                0290     db 000 ;sprite_unassigned_1
0497B6 00                0291     db 000 ;sprite_unassigned_2
0497B7                   0292 @use:
0497B7 C9                0293     ret
0497B8                   0294 @shoot:
0497B8 C9                0295     ret
0497B9                   0296 @see:
0497B9 C9                0297     ret
0497BA                   0298 @kill:
0497BA C9                0299     ret
0497BB                   0300 
0497BB                   0301 RADIOACTIVE_BARREL:
0497BB                   0302 ; behavior routine address lookup
0497BB CA 97 04          0303     dl @init
0497BE E0 97 04          0304     dl @use
0497C1 E1 97 04          0305     dl @shoot
0497C4 E2 97 04          0306     dl @see
0497C7 E3 97 04          0307     dl @kill
0497CA                   0308 @init:
0497CA 21 D2 97 04       0309     ld hl,@data ; address for LDIR to copy from
0497CE C3 16 97 04       0310     jp sprite_behavior_return
0497D2                   0311 @data:
0497D2 64                0312     db 100 ;sprite_health
0497D3 00                0313     db 000 ;sprite_behavior_index
0497D4 00                0314     db 000 ;sprite_x
0497D5 00                0315     db 000 ;sprite_y
0497D6 00                0316     db 000 ;sprite_orientation
0497D7 00                0317     db 000 ;sprite_animation
0497D8 00                0318     db 000 ;sprite_animation_timer
0497D9 00                0319     db 000 ;sprite_move_timer
0497DA 00                0320     db 000 ;sprite_move_step
0497DB 64                0321     db 100 ;sprite_points
0497DC 14                0322     db 020 ;sprite_health_damage
0497DD 00                0323     db 000 ;sprite_unassigned_0
0497DE 00                0324     db 000 ;sprite_unassigned_1
0497DF 00                0325     db 000 ;sprite_unassigned_2
0497E0                   0326 @use:
0497E0 C9                0327     ret
0497E1                   0328 @shoot:
0497E1 C9                0329     ret
0497E2                   0330 @see:
0497E2 C9                0331     ret
0497E3                   0332 @kill:
0497E3 C9                0333     ret
0497E4                   0334 
0497E4                   0335 HEALTH_PACK:
0497E4                   0336 ; behavior routine address lookup
0497E4 F3 97 04          0337     dl @init
0497E7 09 98 04          0338     dl @use
0497EA 0A 98 04          0339     dl @shoot
0497ED 0B 98 04          0340     dl @see
0497F0 0C 98 04          0341     dl @kill
0497F3                   0342 @init:
0497F3 21 FB 97 04       0343     ld hl,@data ; address for LDIR to copy from
0497F7 C3 16 97 04       0344     jp sprite_behavior_return
0497FB                   0345 @data:
0497FB 64                0346     db 100 ;sprite_health
0497FC 00                0347     db 000 ;sprite_behavior_index
0497FD 00                0348     db 000 ;sprite_x
0497FE 00                0349     db 000 ;sprite_y
0497FF 00                0350     db 000 ;sprite_orientation
049800 00                0351     db 000 ;sprite_animation
049801 00                0352     db 000 ;sprite_animation_timer
049802 00                0353     db 000 ;sprite_move_timer
049803 00                0354     db 000 ;sprite_move_step
049804 64                0355     db 100 ;sprite_points
049805 14                0356     db 020 ;sprite_health_damage
049806 00                0357     db 000 ;sprite_unassigned_0
049807 00                0358     db 000 ;sprite_unassigned_1
049808 00                0359     db 000 ;sprite_unassigned_2
049809                   0360 @use:
049809 C9                0361     ret
04980A                   0362 @shoot:
04980A C9                0363     ret
04980B                   0364 @see:
04980B C9                0365     ret
04980C                   0366 @kill:
04980C C9                0367     ret
04980D                   0368 
04980D                   0369 GOLD_CHALISE:
04980D                   0370 ; behavior routine address lookup
04980D 1C 98 04          0371     dl @init
049810 32 98 04          0372     dl @use
049813 33 98 04          0373     dl @shoot
049816 34 98 04          0374     dl @see
049819 35 98 04          0375     dl @kill
04981C                   0376 @init:
04981C 21 24 98 04       0377     ld hl,@data ; address for LDIR to copy from
049820 C3 16 97 04       0378     jp sprite_behavior_return
049824                   0379 @data:
049824 64                0380     db 100 ;sprite_health
049825 00                0381     db 000 ;sprite_behavior_index
049826 00                0382     db 000 ;sprite_x
049827 00                0383     db 000 ;sprite_y
049828 00                0384     db 000 ;sprite_orientation
049829 00                0385     db 000 ;sprite_animation
04982A 00                0386     db 000 ;sprite_animation_timer
04982B 00                0387     db 000 ;sprite_move_timer
04982C 00                0388     db 000 ;sprite_move_step
04982D 64                0389     db 100 ;sprite_points
04982E 14                0390     db 020 ;sprite_health_damage
04982F 00                0391     db 000 ;sprite_unassigned_0
049830 00                0392     db 000 ;sprite_unassigned_1
049831 00                0393     db 000 ;sprite_unassigned_2
049832                   0394 @use:
049832 C9                0395     ret
049833                   0396 @shoot:
049833 C9                0397     ret
049834                   0398 @see:
049834 C9                0399     ret
049835                   0400 @kill:
049835 C9                0401     ret
049836                   0402 
049836                   0403 GOLD_CROSS:
049836                   0404 ; behavior routine address lookup
049836 45 98 04          0405     dl @init
049839 5B 98 04          0406     dl @use
04983C 5C 98 04          0407     dl @shoot
04983F 5D 98 04          0408     dl @see
049842 5E 98 04          0409     dl @kill
049845                   0410 @init:
049845 21 4D 98 04       0411     ld hl,@data ; address for LDIR to copy from
049849 C3 16 97 04       0412     jp sprite_behavior_return
04984D                   0413 @data:
04984D 64                0414     db 100 ;sprite_health
04984E 00                0415     db 000 ;sprite_behavior_index
04984F 00                0416     db 000 ;sprite_x
049850 00                0417     db 000 ;sprite_y
049851 00                0418     db 000 ;sprite_orientation
049852 00                0419     db 000 ;sprite_animation
049853 00                0420     db 000 ;sprite_animation_timer
049854 00                0421     db 000 ;sprite_move_timer
049855 00                0422     db 000 ;sprite_move_step
049856 64                0423     db 100 ;sprite_points
049857 14                0424     db 020 ;sprite_health_damage
049858 00                0425     db 000 ;sprite_unassigned_0
049859 00                0426     db 000 ;sprite_unassigned_1
04985A 00                0427     db 000 ;sprite_unassigned_2
04985B                   0428 @use:
04985B C9                0429     ret
04985C                   0430 @shoot:
04985C C9                0431     ret
04985D                   0432 @see:
04985D C9                0433     ret
04985E                   0434 @kill:
04985E C9                0435     ret
04985F                   0436 
04985F                   0437 PLATE_OF_FOOD:
04985F                   0438 ; behavior routine address lookup
04985F 6E 98 04          0439     dl @init
049862 84 98 04          0440     dl @use
049865 85 98 04          0441     dl @shoot
049868 86 98 04          0442     dl @see
04986B 87 98 04          0443     dl @kill
04986E                   0444 @init:
04986E 21 76 98 04       0445     ld hl,@data ; address for LDIR to copy from
049872 C3 16 97 04       0446     jp sprite_behavior_return
049876                   0447 @data:
049876 64                0448     db 100 ;sprite_health
049877 00                0449     db 000 ;sprite_behavior_index
049878 00                0450     db 000 ;sprite_x
049879 00                0451     db 000 ;sprite_y
04987A 00                0452     db 000 ;sprite_orientation
04987B 00                0453     db 000 ;sprite_animation
04987C 00                0454     db 000 ;sprite_animation_timer
04987D 00                0455     db 000 ;sprite_move_timer
04987E 00                0456     db 000 ;sprite_move_step
04987F 64                0457     db 100 ;sprite_points
049880 14                0458     db 020 ;sprite_health_damage
049881 00                0459     db 000 ;sprite_unassigned_0
049882 00                0460     db 000 ;sprite_unassigned_1
049883 00                0461     db 000 ;sprite_unassigned_2
049884                   0462 @use:
049884 C9                0463     ret
049885                   0464 @shoot:
049885 C9                0465     ret
049886                   0466 @see:
049886 C9                0467     ret
049887                   0468 @kill:
049887 C9                0469     ret
049888                   0470 
049888                   0471 KEYCARD:
049888                   0472 ; behavior routine address lookup
049888 97 98 04          0473     dl @init
04988B AD 98 04          0474     dl @use
04988E AE 98 04          0475     dl @shoot
049891 AF 98 04          0476     dl @see
049894 B0 98 04          0477     dl @kill
049897                   0478 @init:
049897 21 9F 98 04       0479     ld hl,@data ; address for LDIR to copy from
04989B C3 16 97 04       0480     jp sprite_behavior_return
04989F                   0481 @data:
04989F 64                0482     db 100 ;sprite_health
0498A0 00                0483     db 000 ;sprite_behavior_index
0498A1 00                0484     db 000 ;sprite_x
0498A2 00                0485     db 000 ;sprite_y
0498A3 00                0486     db 000 ;sprite_orientation
0498A4 00                0487     db 000 ;sprite_animation
0498A5 00                0488     db 000 ;sprite_animation_timer
0498A6 00                0489     db 000 ;sprite_move_timer
0498A7 00                0490     db 000 ;sprite_move_step
0498A8 64                0491     db 100 ;sprite_points
0498A9 14                0492     db 020 ;sprite_health_damage
0498AA 00                0493     db 000 ;sprite_unassigned_0
0498AB 00                0494     db 000 ;sprite_unassigned_1
0498AC 00                0495     db 000 ;sprite_unassigned_2
0498AD                   0496 @use:
0498AD C9                0497     ret
0498AE                   0498 @shoot:
0498AE C9                0499     ret
0498AF                   0500 @see:
0498AF C9                0501     ret
0498B0                   0502 @kill:
0498B0 C9                0503     ret
0498B1                   0504 
0498B1                   0505 GOLD_CHEST:
0498B1                   0506 ; behavior routine address lookup
0498B1 C0 98 04          0507     dl @init
0498B4 D6 98 04          0508     dl @use
0498B7 D7 98 04          0509     dl @shoot
0498BA D8 98 04          0510     dl @see
0498BD D9 98 04          0511     dl @kill
0498C0                   0512 @init:
0498C0 21 C8 98 04       0513     ld hl,@data ; address for LDIR to copy from
0498C4 C3 16 97 04       0514     jp sprite_behavior_return
0498C8                   0515 @data:
0498C8 64                0516     db 100 ;sprite_health
0498C9 00                0517     db 000 ;sprite_behavior_index
0498CA 00                0518     db 000 ;sprite_x
0498CB 00                0519     db 000 ;sprite_y
0498CC 00                0520     db 000 ;sprite_orientation
0498CD 00                0521     db 000 ;sprite_animation
0498CE 00                0522     db 000 ;sprite_animation_timer
0498CF 00                0523     db 000 ;sprite_move_timer
0498D0 00                0524     db 000 ;sprite_move_step
0498D1 64                0525     db 100 ;sprite_points
0498D2 14                0526     db 020 ;sprite_health_damage
0498D3 00                0527     db 000 ;sprite_unassigned_0
0498D4 00                0528     db 000 ;sprite_unassigned_1
0498D5 00                0529     db 000 ;sprite_unassigned_2
0498D6                   0530 @use:
0498D6 C9                0531     ret
0498D7                   0532 @shoot:
0498D7 C9                0533     ret
0498D8                   0534 @see:
0498D8 C9                0535     ret
0498D9                   0536 @kill:
0498D9 C9                0537     ret
0498DA                   0538 
0498DA                   0539 MACHINE_GUN:
0498DA                   0540 ; behavior routine address lookup
0498DA E9 98 04          0541     dl @init
0498DD FF 98 04          0542     dl @use
0498E0 00 99 04          0543     dl @shoot
0498E3 01 99 04          0544     dl @see
0498E6 02 99 04          0545     dl @kill
0498E9                   0546 @init:
0498E9 21 F1 98 04       0547     ld hl,@data ; address for LDIR to copy from
0498ED C3 16 97 04       0548     jp sprite_behavior_return
0498F1                   0549 @data:
0498F1 64                0550     db 100 ;sprite_health
0498F2 00                0551     db 000 ;sprite_behavior_index
0498F3 00                0552     db 000 ;sprite_x
0498F4 00                0553     db 000 ;sprite_y
0498F5 00                0554     db 000 ;sprite_orientation
0498F6 00                0555     db 000 ;sprite_animation
0498F7 00                0556     db 000 ;sprite_animation_timer
0498F8 00                0557     db 000 ;sprite_move_timer
0498F9 00                0558     db 000 ;sprite_move_step
0498FA 64                0559     db 100 ;sprite_points
0498FB 14                0560     db 020 ;sprite_health_damage
0498FC 00                0561     db 000 ;sprite_unassigned_0
0498FD 00                0562     db 000 ;sprite_unassigned_1
0498FE 00                0563     db 000 ;sprite_unassigned_2
0498FF                   0564 @use:
0498FF C9                0565     ret
049900                   0566 @shoot:
049900 C9                0567     ret
049901                   0568 @see:
049901 C9                0569     ret
049902                   0570 @kill:
049902 C9                0571     ret
049903                   0572 
049903                   0573 GATLING_GUN:
049903                   0574 ; behavior routine address lookup
049903 12 99 04          0575     dl @init
049906 28 99 04          0576     dl @use
049909 29 99 04          0577     dl @shoot
04990C 2A 99 04          0578     dl @see
04990F 2B 99 04          0579     dl @kill
049912                   0580 @init:
049912 21 1A 99 04       0581     ld hl,@data ; address for LDIR to copy from
049916 C3 16 97 04       0582     jp sprite_behavior_return
04991A                   0583 @data:
04991A 64                0584     db 100 ;sprite_health
04991B 00                0585     db 000 ;sprite_behavior_index
04991C 00                0586     db 000 ;sprite_x
04991D 00                0587     db 000 ;sprite_y
04991E 00                0588     db 000 ;sprite_orientation
04991F 00                0589     db 000 ;sprite_animation
049920 00                0590     db 000 ;sprite_animation_timer
049921 00                0591     db 000 ;sprite_move_timer
049922 00                0592     db 000 ;sprite_move_step
049923 64                0593     db 100 ;sprite_points
049924 14                0594     db 020 ;sprite_health_damage
049925 00                0595     db 000 ;sprite_unassigned_0
049926 00                0596     db 000 ;sprite_unassigned_1
049927 00                0597     db 000 ;sprite_unassigned_2
049928                   0598 @use:
049928 C9                0599     ret
049929                   0600 @shoot:
049929 C9                0601     ret
04992A                   0602 @see:
04992A C9                0603     ret
04992B                   0604 @kill:
04992B C9                0605     ret
04992C                   0606 
04992C                   0607 DOG_FOOD:
04992C                   0608 ; behavior routine address lookup
04992C 3B 99 04          0609     dl @init
04992F 51 99 04          0610     dl @use
049932 52 99 04          0611     dl @shoot
049935 53 99 04          0612     dl @see
049938 54 99 04          0613     dl @kill
04993B                   0614 @init:
04993B 21 43 99 04       0615     ld hl,@data ; address for LDIR to copy from
04993F C3 16 97 04       0616     jp sprite_behavior_return
049943                   0617 @data:
049943 64                0618     db 100 ;sprite_health
049944 00                0619     db 000 ;sprite_behavior_index
049945 00                0620     db 000 ;sprite_x
049946 00                0621     db 000 ;sprite_y
049947 00                0622     db 000 ;sprite_orientation
049948 00                0623     db 000 ;sprite_animation
049949 00                0624     db 000 ;sprite_animation_timer
04994A 00                0625     db 000 ;sprite_move_timer
04994B 00                0626     db 000 ;sprite_move_step
04994C 64                0627     db 100 ;sprite_points
04994D 14                0628     db 020 ;sprite_health_damage
04994E 00                0629     db 000 ;sprite_unassigned_0
04994F 00                0630     db 000 ;sprite_unassigned_1
049950 00                0631     db 000 ;sprite_unassigned_2
049951                   0632 @use:
049951 C9                0633     ret
049952                   0634 @shoot:
049952 C9                0635     ret
049953                   0636 @see:
049953 C9                0637     ret
049954                   0638 @kill:
049954 C9                0639     ret
049955                   0640 
049955                   0641 GOLD_KEY:
049955                   0642 ; behavior routine address lookup
049955 64 99 04          0643     dl @init
049958 7A 99 04          0644     dl @use
04995B 7B 99 04          0645     dl @shoot
04995E 7C 99 04          0646     dl @see
049961 7D 99 04          0647     dl @kill
049964                   0648 @init:
049964 21 6C 99 04       0649     ld hl,@data ; address for LDIR to copy from
049968 C3 16 97 04       0650     jp sprite_behavior_return
04996C                   0651 @data:
04996C 64                0652     db 100 ;sprite_health
04996D 00                0653     db 000 ;sprite_behavior_index
04996E 00                0654     db 000 ;sprite_x
04996F 00                0655     db 000 ;sprite_y
049970 00                0656     db 000 ;sprite_orientation
049971 00                0657     db 000 ;sprite_animation
049972 00                0658     db 000 ;sprite_animation_timer
049973 00                0659     db 000 ;sprite_move_timer
049974 00                0660     db 000 ;sprite_move_step
049975 64                0661     db 100 ;sprite_points
049976 14                0662     db 020 ;sprite_health_damage
049977 00                0663     db 000 ;sprite_unassigned_0
049978 00                0664     db 000 ;sprite_unassigned_1
049979 00                0665     db 000 ;sprite_unassigned_2
04997A                   0666 @use:
04997A C9                0667     ret
04997B                   0668 @shoot:
04997B C9                0669     ret
04997C                   0670 @see:
04997C C9                0671     ret
04997D                   0672 @kill:
04997D C9                0673     ret
04997E                   0674 
04997E                   0675 DOG:
04997E                   0676 ; behavior routine address lookup
04997E 8D 99 04          0677     dl @init
049981 A3 99 04          0678     dl @use
049984 A4 99 04          0679     dl @shoot
049987 A5 99 04          0680     dl @see
04998A A6 99 04          0681     dl @kill
04998D                   0682 @init:
04998D 21 95 99 04       0683     ld hl,@data ; address for LDIR to copy from
049991 C3 16 97 04       0684     jp sprite_behavior_return
049995                   0685 @data:
049995 64                0686     db 100 ;sprite_health
049996 00                0687     db 000 ;sprite_behavior_index
049997 00                0688     db 000 ;sprite_x
049998 00                0689     db 000 ;sprite_y
049999 00                0690     db 000 ;sprite_orientation
04999A 00                0691     db 000 ;sprite_animation
04999B 00                0692     db 000 ;sprite_animation_timer
04999C 00                0693     db 000 ;sprite_move_timer
04999D 00                0694     db 000 ;sprite_move_step
04999E 64                0695     db 100 ;sprite_points
04999F 14                0696     db 020 ;sprite_health_damage
0499A0 00                0697     db 000 ;sprite_unassigned_0
0499A1 00                0698     db 000 ;sprite_unassigned_1
0499A2 00                0699     db 000 ;sprite_unassigned_2
0499A3                   0700 @use:
0499A3 C9                0701     ret
0499A4                   0702 @shoot:
0499A4 C9                0703     ret
0499A5                   0704 @see:
0499A5 C9                0705     ret
0499A6                   0706 @kill:
0499A6 C9                0707     ret
0499A7                   0708 
0499A7                   0709 GERMAN_TROOPER:
0499A7                   0710 ; behavior routine address lookup
0499A7 B6 99 04          0711     dl @init
0499AA CC 99 04          0712     dl @use
0499AD CD 99 04          0713     dl @shoot
0499B0 CE 99 04          0714     dl @see
0499B3 CF 99 04          0715     dl @kill
0499B6                   0716 @init:
0499B6 21 BE 99 04       0717     ld hl,@data ; address for LDIR to copy from
0499BA C3 16 97 04       0718     jp sprite_behavior_return
0499BE                   0719 @data:
0499BE 64                0720     db 100 ;sprite_health
0499BF 00                0721     db 000 ;sprite_behavior_index
0499C0 00                0722     db 000 ;sprite_x
0499C1 00                0723     db 000 ;sprite_y
0499C2 00                0724     db 000 ;sprite_orientation
0499C3 00                0725     db 000 ;sprite_animation
0499C4 00                0726     db 000 ;sprite_animation_timer
0499C5 00                0727     db 000 ;sprite_move_timer
0499C6 00                0728     db 000 ;sprite_move_step
0499C7 64                0729     db 100 ;sprite_points
0499C8 14                0730     db 020 ;sprite_health_damage
0499C9 00                0731     db 000 ;sprite_unassigned_0
0499CA 00                0732     db 000 ;sprite_unassigned_1
0499CB 00                0733     db 000 ;sprite_unassigned_2
0499CC                   0734 @use:
0499CC C9                0735     ret
0499CD                   0736 @shoot:
0499CD C9                0737     ret
0499CE                   0738 @see:
0499CE C9                0739     ret
0499CF                   0740 @kill:
0499CF C9                0741     ret
0499D0                   0742 
0499D0                   0743 SS_GUARD:
0499D0                   0744 ; behavior routine address lookup
0499D0 DF 99 04          0745     dl @init
0499D3 F5 99 04          0746     dl @use
0499D6 F6 99 04          0747     dl @shoot
0499D9 F7 99 04          0748     dl @see
0499DC F8 99 04          0749     dl @kill
0499DF                   0750 @init:
0499DF 21 E7 99 04       0751     ld hl,@data ; address for LDIR to copy from
0499E3 C3 16 97 04       0752     jp sprite_behavior_return
0499E7                   0753 @data:
0499E7 64                0754     db 100 ;sprite_health
0499E8 00                0755     db 000 ;sprite_behavior_index
0499E9 00                0756     db 000 ;sprite_x
0499EA 00                0757     db 000 ;sprite_y
0499EB 00                0758     db 000 ;sprite_orientation
0499EC 00                0759     db 000 ;sprite_animation
0499ED 00                0760     db 000 ;sprite_animation_timer
0499EE 00                0761     db 000 ;sprite_move_timer
0499EF 00                0762     db 000 ;sprite_move_step
0499F0 64                0763     db 100 ;sprite_points
0499F1 14                0764     db 020 ;sprite_health_damage
0499F2 00                0765     db 000 ;sprite_unassigned_0
0499F3 00                0766     db 000 ;sprite_unassigned_1
0499F4 00                0767     db 000 ;sprite_unassigned_2
0499F5                   0768 @use:
0499F5 C9                0769     ret
0499F6                   0770 @shoot:
0499F6 C9                0771     ret
0499F7                   0772 @see:
0499F7 C9                0773     ret
0499F8                   0774 @kill:
0499F8 C9                0775     ret
0499F9                   0029     include "src/asm/mos_api.asm"
0499F9                   0001 ; https://github.com/envenomator/Agon/blob/master/ez80asm%20examples%20(annotated)/mos_api.asm
0499F9                   0002 ; Title:	AGON MOS - API for user projects
0499F9                   0003 ; Author:	Dean Belfield
0499F9                   0004 ;			Adapted for agon-ez80asm by Jeroen Venema
0499F9                   0005 ;			Added MOS error codes for return in HL
0499F9                   0006 ; Created:	03/08/2022
0499F9                   0007 ; Last Updated:	10/08/2023
0499F9                   0008 ;
0499F9                   0009 ; Modinfo:
0499F9                   0010 ; 05/08/2022:	Added mos_feof
0499F9                   0011 ; 09/08/2022:	Added system variables: cursorX, cursorY
0499F9                   0012 ; 18/08/2022:	Added system variables: scrchar, scrpixel, audioChannel, audioSuccess, vpd_pflags
0499F9                   0013 ; 05/09/2022:	Added mos_ren, vdp_pflag_mode
0499F9                   0014 ; 24/09/2022:	Added mos_getError, mos_mkdir
0499F9                   0015 ; 13/10/2022:	Added mos_oscli
0499F9                   0016 ; 23/02/2023:	Added more sysvars, fixed typo in sysvar_audioSuccess, offsets for sysvar_scrCols, sysvar_scrRows
0499F9                   0017 ; 04/03/2023:	Added sysvar_scrpixelIndex
0499F9                   0018 ; 08/03/2023:	Renamed sysvar_keycode to sysvar_keyascii, added sysvar_vkeycode
0499F9                   0019 ; 15/03/2023:	Added mos_copy, mos_getrtc, mos_setrtc, rtc, vdp_pflag_rtc
0499F9                   0020 ; 21/03/2023:	Added mos_setintvector, sysvars for keyboard status, vdu codes for vdp
0499F9                   0021 ; 22/03/2023:	The VDP commands are now indexed from 0x80
0499F9                   0022 ; 29/03/2023:	Added mos_uopen, mos_uclose, mos_ugetc, mos_uputc
0499F9                   0023 ; 13/04/2023:	Added FatFS file structures (FFOBJID, FIL, DIR, FILINFO)
0499F9                   0024 ; 15/04/2023:	Added mos_getfil, mos_fread, mos_fwrite and mos_flseek
0499F9                   0025 ; 19/05/2023:	Added sysvar_scrMode
0499F9                   0026 ; 05/06/2023:	Added sysvar_rtcEnable
0499F9                   0027 ; 03/08/2023:	Added mos_setkbvector
0499F9                   0028 ; 10/08/2023:	Added mos_getkbmap
0499F9                   0029 
0499F9                   0030 ; VDP control (VDU 23, 0, n)
0499F9                   0031 ;
0499F9                   0032 vdp_gp:				EQU 80h
0499F9                   0033 vdp_keycode:		EQU 81h
0499F9                   0034 vdp_cursor:			EQU	82h
0499F9                   0035 vdp_scrchar:		EQU	83h
0499F9                   0036 vdp_scrpixel:		EQU	84h
0499F9                   0037 vdp_audio:			EQU	85h
0499F9                   0038 vdp_mode:			EQU	86h
0499F9                   0039 vdp_rtc:			EQU	87h
0499F9                   0040 vdp_keystate:		EQU	88h
0499F9                   0041 vdp_logicalcoords:	EQU	C0h
0499F9                   0042 vdp_terminalmode:	EQU	FFh
0499F9                   0043 
0499F9                   0044 ; MOS high level functions
0499F9                   0045 ;
0499F9                   0046 mos_getkey:			EQU	00h
0499F9                   0047 mos_load:			EQU	01h
0499F9                   0048 mos_save:			EQU	02h
0499F9                   0049 mos_cd:				EQU	03h
0499F9                   0050 mos_dir:			EQU	04h
0499F9                   0051 mos_del:			EQU	05h
0499F9                   0052 mos_ren:			EQU	06h
0499F9                   0053 mos_mkdir:			EQU	07h
0499F9                   0054 mos_sysvars:		EQU	08h
0499F9                   0055 mos_editline:		EQU	09h
0499F9                   0056 mos_fopen:			EQU	0Ah
0499F9                   0057 mos_fclose:			EQU	0Bh
0499F9                   0058 mos_fgetc:			EQU	0Ch
0499F9                   0059 mos_fputc:			EQU	0Dh
0499F9                   0060 mos_feof:			EQU	0Eh
0499F9                   0061 mos_getError:		EQU	0Fh
0499F9                   0062 mos_oscli:			EQU	10h
0499F9                   0063 mos_copy:			EQU	11h
0499F9                   0064 mos_getrtc:			EQU	12h
0499F9                   0065 mos_setrtc:			EQU	13h
0499F9                   0066 mos_setintvector:	EQU	14h
0499F9                   0067 mos_uopen:			EQU	15h
0499F9                   0068 mos_uclose:			EQU	16h
0499F9                   0069 mos_ugetc:			EQU	17h
0499F9                   0070 mos_uputc:			EQU	18h
0499F9                   0071 mos_getfil:			EQU	19h
0499F9                   0072 mos_fread:			EQU	1Ah
0499F9                   0073 mos_fwrite:			EQU	1Bh
0499F9                   0074 mos_flseek:			EQU	1Ch
0499F9                   0075 mos_setkbvector:	EQU	1Dh
0499F9                   0076 mos_getkbmap:		EQU	1Eh
0499F9                   0077 
0499F9                   0078 ; MOS program exit codes
0499F9                   0079 ;
0499F9                   0080 EXIT_OK:				EQU  0;	"OK",
0499F9                   0081 EXIT_ERROR_SD_ACCESS:	EQU	 1;	"Error accessing SD card",
0499F9                   0082 EXIT_ERROR_ASSERTION:	EQU  2;	"Assertion failed",
0499F9                   0083 EXIT_SD_CARDFAILURE:	EQU  3;	"SD card failure",
0499F9                   0084 EXIT_FILENOTFOUND:		EQU  4;	"Could not find file",
0499F9                   0085 EXIT_PATHNOTFOUND:		EQU  5;	"Could not find path",
0499F9                   0086 EXIT_INVALIDPATHNAME:	EQU  6;	"Invalid path name",
0499F9                   0087 EXIT_ACCESSDENIED_FULL:	EQU  7;	"Access denied or directory full",
0499F9                   0088 EXIT_ACCESSDENIED:		EQU  8;	"Access denied",
0499F9                   0089 EXIT_INVALIDOBJECT:		EQU  9;	"Invalid file/directory object",
0499F9                   0090 EXIT_SD_WRITEPROTECTED:	EQU 10;	"SD card is write protected",
0499F9                   0091 EXIT_INVALIDDRIVENUMBER:EQU 11;	"Logical drive number is invalid",
0499F9                   0092 EXIT_NOVOLUMEWORKAREA:	EQU 12;	"Volume has no work area",
0499F9                   0093 EXIT_NOVALIDFATVOLUME:	EQU 13;	"No valid FAT volume",
0499F9                   0094 EXIT_ERRORMKFS:			EQU 14;	"Error occurred during mkfs",
0499F9                   0095 EXIT_VOLUMETIMEOUT:		EQU 15;	"Volume timeout",
0499F9                   0096 EXIT_VOLUMELOCKED:		EQU 16;	"Volume locked",
0499F9                   0097 EXIT_LFNALLOCATION:		EQU 17;	"LFN working buffer could not be allocated",
0499F9                   0098 EXIT_MAXOPENFILES:		EQU 18;	"Too many open files",
0499F9                   0099 EXIT_INVALIDPARAMETER:	EQU 19;	"Invalid parameter",
0499F9                   0100 EXIT_INVALIDCOMMAND:	EQU 20;	"Invalid command",
0499F9                   0101 EXIT_INVALIDEXECUTABLE:	EQU 21;	"Invalid executable",
0499F9                   0102 ; FatFS file access functions
0499F9                   0103 ;
0499F9                   0104 ffs_fopen:			EQU	80h
0499F9                   0105 ffs_fclose:			EQU	81h
0499F9                   0106 ffs_fread:			EQU	82h
0499F9                   0107 ffs_fwrite:			EQU	83h
0499F9                   0108 ffs_flseek:			EQU	84h
0499F9                   0109 ffs_ftruncate:		EQU	85h
0499F9                   0110 ffs_fsync:			EQU	86h
0499F9                   0111 ffs_fforward:		EQU	87h
0499F9                   0112 ffs_fexpand:		EQU	88h
0499F9                   0113 ffs_fgets:			EQU	89h
0499F9                   0114 ffs_fputc:			EQU	8Ah
0499F9                   0115 ffs_fputs:			EQU	8Bh
0499F9                   0116 ffs_fprintf:		EQU	8Ch
0499F9                   0117 ffs_ftell:			EQU	8Dh
0499F9                   0118 ffs_feof:			EQU	8Eh
0499F9                   0119 ffs_fsize:			EQU	8Fh
0499F9                   0120 ffs_ferror:			EQU	90h
0499F9                   0121 
0499F9                   0122 ; FatFS directory access functions
0499F9                   0123 ;
0499F9                   0124 ffs_dopen:			EQU	91h
0499F9                   0125 ffs_dclose:			EQU	92h
0499F9                   0126 ffs_dread:			EQU	93h
0499F9                   0127 ffs_dfindfirst:		EQU	94h
0499F9                   0128 ffs_dfindnext:		EQU	95h
0499F9                   0129 
0499F9                   0130 ; FatFS file and directory management functions
0499F9                   0131 ;
0499F9                   0132 ffs_stat:			EQU	96h
0499F9                   0133 ffs_unlink:			EQU	97h
0499F9                   0134 ffs_rename:			EQU	98h
0499F9                   0135 ffs_chmod:			EQU	99h
0499F9                   0136 ffs_utime:			EQU	9Ah
0499F9                   0137 ffs_mkdir:			EQU	9Bh
0499F9                   0138 ffs_chdir:			EQU	9Ch
0499F9                   0139 ffs_chdrive:		EQU	9Dh
0499F9                   0140 ffs_getcwd:			EQU	9Eh
0499F9                   0141 
0499F9                   0142 ; FatFS volume management and system configuration functions
0499F9                   0143 ;
0499F9                   0144 ffs_mount:			EQU	9Fh
0499F9                   0145 ffs_mkfs:			EQU	A0h
0499F9                   0146 ffs_fdisk:			EQU	A1h
0499F9                   0147 ffs_getfree:		EQU	A2h
0499F9                   0148 ffs_getlabel:		EQU	A3h
0499F9                   0149 ffs_setlabel:		EQU	A4h
0499F9                   0150 ffs_setcp:			EQU	A5h
0499F9                   0151 
0499F9                   0152 ; File access modes
0499F9                   0153 ;
0499F9                   0154 fa_read:			EQU	01h
0499F9                   0155 fa_write:			EQU	02h
0499F9                   0156 fa_open_existing:	EQU	00h
0499F9                   0157 fa_create_new:		EQU	04h
0499F9                   0158 fa_create_always:	EQU	08h
0499F9                   0159 fa_open_always:		EQU	10h
0499F9                   0160 fa_open_append:		EQU	30h
0499F9                   0161 
0499F9                   0162 ; System variable indexes for api_sysvars
0499F9                   0163 ; Index into _sysvars in globals.asm
0499F9                   0164 ;
0499F9                   0165 sysvar_time:			EQU	00h	; 4: Clock timer in centiseconds (incremented by 2 every VBLANK)
0499F9                   0166 sysvar_vpd_pflags:		EQU	04h	; 1: Flags to indicate completion of VDP commands
0499F9                   0167 sysvar_keyascii:		EQU	05h	; 1: ASCII keycode, or 0 if no key is pressed
0499F9                   0168 sysvar_keymods:			EQU	06h	; 1: Keycode modifiers
0499F9                   0169 sysvar_cursorX:			EQU	07h	; 1: Cursor X position
0499F9                   0170 sysvar_cursorY:			EQU	08h	; 1: Cursor Y position
0499F9                   0171 sysvar_scrchar:			EQU	09h	; 1: Character read from screen
0499F9                   0172 sysvar_scrpixel:		EQU	0Ah	; 3: Pixel data read from screen (R,B,G)
0499F9                   0173 sysvar_audioChannel:	EQU	0Dh	; 1: Audio channel
0499F9                   0174 sysvar_audioSuccess:	EQU	0Eh	; 1: Audio channel note queued (0 = no, 1 = yes)
0499F9                   0175 sysvar_scrWidth:		EQU	0Fh	; 2: Screen width in pixels
0499F9                   0176 sysvar_scrHeight:		EQU	11h	; 2: Screen height in pixels
0499F9                   0177 sysvar_scrCols:			EQU	13h	; 1: Screen columns in characters
0499F9                   0178 sysvar_scrRows:			EQU	14h	; 1: Screen rows in characters
0499F9                   0179 sysvar_scrColours:		EQU	15h	; 1: Number of colours displayed
0499F9                   0180 sysvar_scrpixelIndex:	EQU	16h	; 1: Index of pixel data read from screen
0499F9                   0181 sysvar_vkeycode:		EQU	17h	; 1: Virtual key code from FabGL
0499F9                   0182 sysvar_vkeydown:		EQU	18h	; 1: Virtual key state from FabGL (0=up, 1=down)
0499F9                   0183 sysvar_vkeycount:		EQU	19h	; 1: Incremented every time a key packet is received
0499F9                   0184 sysvar_rtc:				EQU	1Ah	; 6: Real time clock data
0499F9                   0185 sysvar_spare:			EQU	20h	; 2: Spare, previously used by rtc
0499F9                   0186 sysvar_keydelay:		EQU	22h	; 2: Keyboard repeat delay
0499F9                   0187 sysvar_keyrate:			EQU	24h	; 2: Keyboard repeat reat
0499F9                   0188 sysvar_keyled:			EQU	26h	; 1: Keyboard LED status
0499F9                   0189 sysvar_scrMode:			EQU	27h	; 1: Screen mode
0499F9                   0190 sysvar_rtcEnable:		EQU	28h	; 1: RTC enable flag (0: disabled, 1: use ESP32 RTC)
0499F9                   0191 
0499F9                   0192 ; Flags for the VPD protocol
0499F9                   0193 ;
0499F9                   0194 vdp_pflag_cursor:		EQU	00000001b
0499F9                   0195 vdp_pflag_scrchar:		EQU	00000010b
0499F9                   0196 vdp_pflag_point:		EQU	00000100b
0499F9                   0197 vdp_pflag_audio:		EQU	00001000b
0499F9                   0198 vdp_pflag_mode:			EQU	00010000b
0499F9                   0199 vdp_pflag_rtc:			EQU	00100000b
0499F9                   0200 
0499F9                   0201 ;
0499F9                   0202 ; FatFS structures
0499F9                   0203 ; These mirror the structures contained in src_fatfs/ff.h in the MOS project
0499F9                   0204 ;
0499F9                   0205 ; Object ID and allocation information (FFOBJID)
0499F9                   0206 ;
0499F9                   0207 ; Indexes into FFOBJID structure
0499F9                   0208 ffobjid_fs:			EQU	0	; 3: Pointer to the hosting volume of this object
0499F9                   0209 ffobjid_id:			EQU	3	; 2: Hosting volume mount ID
0499F9                   0210 ffobjid_attr:		EQU	5	; 1: Object attribute
0499F9                   0211 ffobjid_stat:		EQU	6	; 1: Object chain status (b1-0: =0:not contiguous, =2:contiguous, =3:fragmented in this session, b2:sub-directory stretched)
0499F9                   0212 ffobjid_sclust:		EQU	7	; 4: Object data start cluster (0:no cluster or root directory)
0499F9                   0213 ffobjid_objsize:	EQU	11	; 4: Object size (valid when sclust != 0)
0499F9                   0214 ;
0499F9                   0215 ; File object structure (FIL)
0499F9                   0216 ;
0499F9                   0217 ; Indexes into FIL structure
0499F9                   0218 fil_obj:		EQU 0	; 15: Object identifier
0499F9                   0219 fil_flag:		EQU	15 	;  1: File status flags
0499F9                   0220 fil_err:		EQU	16	;  1: Abort flag (error code)
0499F9                   0221 fil_fptr:		EQU	17	;  4: File read/write pointer (Zeroed on file open)
0499F9                   0222 fil_clust:		EQU	21	;  4: Current cluster of fpter (invalid when fptr is 0)
0499F9                   0223 fil_sect:		EQU	25	;  4: Sector number appearing in buf[] (0:invalid)
0499F9                   0224 fil_dir_sect:	EQU	29	;  4: Sector number containing the directory entry
0499F9                   0225 fil_dir_ptr:	EQU	33	;  3: Pointer to the directory entry in the win[]
0499F9                   0226 ;
0499F9                   0227 ; Directory object structure (DIR)
0499F9                   0228 ; Indexes into DIR structure
0499F9                   0229 dir_obj:		EQU  0	; 15: Object identifier
0499F9                   0230 dir_dptr:		EQU	15	;  4: Current read/write offset
0499F9                   0231 dir_clust:		EQU	19	;  4: Current cluster
0499F9                   0232 dir_sect:		EQU	23	;  4: Current sector (0:Read operation has terminated)
0499F9                   0233 dir_dir:		EQU	27	;  3: Pointer to the directory item in the win[]
0499F9                   0234 dir_fn:			EQU	30	; 12: SFN (in/out) {body[8],ext[3],status[1]}
0499F9                   0235 dir_blk_ofs:	EQU	42	;  4: Offset of current entry block being processed (0xFFFFFFFF:Invalid)
0499F9                   0236 ;
0499F9                   0237 ; File information structure (FILINFO)
0499F9                   0238 ;
0499F9                   0239 ; Indexes into FILINFO structure
0499F9                   0240 filinfo_fsize:		EQU 0	;   4: File size
0499F9                   0241 filinfo_fdate:		EQU	4	;   2: Modified date
0499F9                   0242 filinfo_ftime:		EQU	6	;   2: Modified time
0499F9                   0243 filinfo_fattrib:	EQU	8	;   1: File attribute
0499F9                   0244 filinfo_altname:	EQU	9	;  13: Alternative file name
0499F9                   0245 filinfo_fname:		EQU	22	; 256: Primary file name
0499F9                   0246 ;
0499F9                   0247 ; Macro for calling the API
0499F9                   0248 ; Parameters:
0499F9                   0249 ; - function: One of the function numbers listed above
0499F9                   0250 ;
0499F9                   0251 	MACRO	MOSCALL	function
0499F9                   0252 			LD	A, function
0499F9                   0253 			RST.LIL	08h
0499F9                   0254 	ENDMACRO
0499F9                   0030 	include "src/asm/vdu.asm"
0499F9                   0001 ; The following is a high-level list of the VDU sequences that are supported:
0499F9                   0002 ; VDU 0: Null (no operation)
0499F9                   0003 ; VDU 1: Send next character to printer (if printer is enabled) 
0499F9                   0004 ; VDU 2: Enable printer 
0499F9                   0005 ; VDU 3: Disable printer 
0499F9                   0006 ; VDU 4: Write text at text cursor
0499F9                   0007 ; VDU 5: Write text at graphics cursor
0499F9                   0008 ; VDU 6: Enable screen (opposite of VDU 21) 
0499F9                   0009 ; VDU 7: Make a short beep (BEL)
0499F9                   0010 ; VDU 8: Move cursor back one character
0499F9                   0011 ; VDU 9: Move cursor forward one character
0499F9                   0012 ; VDU 10: Move cursor down one line
0499F9                   0013 ; VDU 11: Move cursor up one line
0499F9                   0014 ; VDU 12: Clear text area (CLS)
0499F9                   0015 ; VDU 13: Carriage return
0499F9                   0016 ; VDU 14: Page mode On *
0499F9                   0017 ; VDU 15: Page mode Off *
0499F9                   0018 ; VDU 16: Clear graphics area (CLG)
0499F9                   0019 ; VDU 17, colour: Define text colour (COLOUR)
0499F9                   0020 ; VDU 18, mode, colour: Define graphics colour (GCOL mode, colour)
0499F9                   0021 ; VDU 19, l, p, r, g, b: Define logical colour (COLOUR l, p / COLOUR l, r, g, b)
0499F9                   0022 ; VDU 20: Reset palette and text/graphics colours and drawing modes 
0499F9                   0023 ; VDU 21: Disable screen (turns of VDU command processing, except for VDU 1 and VDU 6) 
0499F9                   0024 ; VDU 22, n: Select screen mode (MODE n)
0499F9                   0025 ; VDU 23, n: Re-program display character / System Commands
0499F9                   0026 ; VDU 24, left; bottom; right; top;: Set graphics viewport **
0499F9                   0027 ; VDU 25, mode, x; y;: PLOT command
0499F9                   0028 ; VDU 26: Reset graphics and text viewports **
0499F9                   0029 ; VDU 27, char: Output character to screen 
0499F9                   0030 ; VDU 28, left, bottom, right, top: Set text viewport **
0499F9                   0031 ; VDU 29, x; y;: Set graphics origin
0499F9                   0032 ; VDU 30: Home cursor
0499F9                   0033 ; VDU 31, x, y: Move text cursor to x, y text position (TAB(x, y))
0499F9                   0034 ; VDU 127: Backspace
0499F9                   0035 
0499F9                   0036 ; VDU 0: Null (no operation)
0499F9                   0037 ;     On encountering a VDU 0 command, the VDP will do nothing.
0499F9                   0038 ;     This may be useful for padding out a VDU command sequence,
0499F9                   0039 ;     or for inserting a placeholder for a command that will be added later.
0499F9                   0040 ; inputs: none
0499F9                   0041 ; outputs: an empty byte somewhere in VDU
0499F9                   0042 ; destroys: a
0499F9                   0043 vdu_null:
0499F9 AF                0044     xor a
0499FA 5B D7             0045 	rst.lil $10
0499FC C9                0046 	ret
0499FD                   0047 
0499FD                   0048 ; VDU 1: Send next character to printer (if printer is enabled) 
0499FD                   0049 ;     Ensures that the next character received by the VDP is sent through to
0499FD                   0050 ;     the printer, and not to the screen. This is useful for sending control
0499FD                   0051 ;     codes to the printer, or for sending data to the printer that is not
0499FD                   0052 ;     intended to be displayed on the screen. It allows characters that would
0499FD                   0053 ;     not otherwise normally be sent through to the printer to be sent.
0499FD                   0054 ;     If the printer has not been enabled then this command will just discard
0499FD                   0055 ;     the next byte sent to the VDP.
0499FD                   0056 ; inputs: a is the ascii code of the character to send
0499FD                   0057 ; prerequisites: "printer" must first be activated with VDU 2 (see below)
0499FD                   0058 ; outputs: a character on the serial terminal connected to the USB port
0499FD                   0059 ;           and the same character on the screen at the current text cursor location
0499FD                   0060 ; QUESTION: does it also advance the text cursor?
0499FD                   0061 ; destroys: hl, bc
0499FD                   0062 vdu_char_to_printer:
0499FD 32 0D 9A 04       0063 	ld (@arg),a
049A01 21 0C 9A 04       0064 	ld hl,@cmd
049A05 01 02 00 00       0065 	ld bc,@end-@cmd
049A09 5B DF             0066 	rst.lil $18
049A0B C9                0067 	ret
049A0C 01                0068 @cmd: db 1
049A0D 00                0069 @arg: db 0
049A0E                   0070 @end:
049A0E                   0071 
049A0E                   0072 ; VDU 2: Enable printer 
049A0E                   0073 ;     Enables the printer.
049A0E                   0074 ;     In the context of the Agon platform, the printer is a serial
049A0E                   0075 ;     terminal that is connected to the VDPs USB port. Typically
049A0E                   0076 ;     this port is used for power, but it can also be used to send and
049A0E                   0077 ;     receive data to and from the VDP.
049A0E                   0078 ;     When the printer is enabled, the VDP will send characters it receives
049A0E                   0079 ;     to the printer as well as to the screen. It will additionally send
049A0E                   0080 ;     through control codes 8-13. To send other control codes to the printer,
049A0E                   0081 ;     use the VDU 1 command.
049A0E                   0082 ;     The VDP will not send through other control codes to the printer,
049A0E                   0083 ;     and will will not send through data it receives as part of other commands.
049A0E                   0084 vdu_enable_printer:
049A0E 3E 02             0085     ld a,2
049A10 5B D7             0086 	rst.lil $10
049A12 C9                0087 	ret
049A13                   0088 
049A13                   0089 ; VDU 3: Disable printer 
049A13                   0090 ; inputs: none
049A13                   0091 ; outputs: a USB port bereft of communication with the VDP
049A13                   0092 ; destroys: a
049A13                   0093 vdu_disable_printer:
049A13 3E 03             0094     ld a,3
049A15 5B D7             0095 	rst.lil $10
049A17 C9                0096 	ret
049A18                   0097 
049A18                   0098 ; VDU 4: Write text at text cursor
049A18                   0099 ;     This causes text to be written at the current text cursor position.
049A18                   0100 ;     This is the default mode for text display.
049A18                   0101 ;     Text is written using the current text foreground and background colours.
049A18                   0102 ; inputs: a is the character to write to the screen
049A18                   0103 ; prerequisites: the text cursor at the intended position on screen
049A18                   0104 ; outputs: prints the character and moves text cursor right one position
049A18                   0105 ; destroys: a, hl, bc
049A18                   0106 vdu_char_to_text_cursor:
049A18 32 28 9A 04       0107 	ld (@arg),a
049A1C 21 27 9A 04       0108 	ld hl,@cmd
049A20 01 02 00 00       0109 	ld bc,@end-@cmd
049A24 5B DF             0110 	rst.lil $18
049A26 C9                0111 	ret
049A27 04                0112 @cmd: db 4
049A28 00                0113 @arg: db 0
049A29                   0114 @end:
049A29                   0115 
049A29                   0116 ; VDU 5: Write text at graphics cursor
049A29                   0117 ;     This causes text to be written at the current graphics cursor position.
049A29                   0118 ;     Using this, characters may be positioned at any graphics coordinate within
049A29                   0119 ;     the graphics viewport. This is useful for positioning text over graphics,
049A29                   0120 ;     or for positioning text at a specific location on the screen.
049A29                   0121 ;     Characters are plotted using the current graphics foreground colour,
049A29                   0122 ;     using the current graphics foreground plotting mode (see VDU 18).
049A29                   0123 ;     The character background is transparent, and will not overwrite any
049A29                   0124 ;     graphics that are already present at the characters location.
049A29                   0125 ;     The exception to this is VDU 27, the delete character, which backspaces
049A29                   0126 ;     and deletes as per its usual behaviour, but will erase using the current
049A29                   0127 ;     graphics background colour.
049A29                   0128 ; inputs: a is the character to write to the screen
049A29                   0129 ; prerequisites: the graphics cursor at the intended position on screen
049A29                   0130 ; outputs: see the name of the function
049A29                   0131 ; destroys: a, hl, bc
049A29                   0132 vdu_char_to_gfx_cursor:
049A29 32 39 9A 04       0133 	ld (@arg),a
049A2D 21 38 9A 04       0134 	ld hl,@cmd
049A31 01 02 00 00       0135 	ld bc,@end-@cmd
049A35 5B DF             0136 	rst.lil $18
049A37 C9                0137 	ret
049A38 05                0138 @cmd: db 5
049A39 00                0139 @arg: db 0
049A3A                   0140 @end:
049A3A                   0141 
049A3A                   0142 ; VDU 6: Enable screen (opposite of VDU 21) 
049A3A                   0143 ;     This enables the screen, and re-enables VDU command processing,
049A3A                   0144 ;     reversing the effect of VDU 21.
049A3A                   0145 ; inputs: none
049A3A                   0146 ; outputs: a functioning screen and VDU
049A3A                   0147 ; destroys: a
049A3A                   0148 vdu_enable_screen:
049A3A 3E 06             0149     ld a,6
049A3C 5B D7             0150 	rst.lil $10
049A3E C9                0151 	ret
049A3F                   0152 
049A3F                   0153 ; PASSES
049A3F                   0154 ; VDU 7: Make a short beep (BEL)
049A3F                   0155 ;     Plays a short beep sound on audio channel 0. If the audio channel
049A3F                   0156 ;     is already in use, or has been disabled, then this command will have no effect.
049A3F                   0157 ; inputs: none
049A3F                   0158 ; outputs: an unpleasant but thankfully short-lived audio tone
049A3F                   0159 ; destroys: a
049A3F                   0160 vdu_beep:
049A3F 3E 07             0161     ld a,7
049A41 5B D7             0162 	rst.lil $10
049A43 C9                0163 	ret
049A44                   0164 
049A44                   0165 ; VDU 8: Move cursor back one character
049A44                   0166 ;     Moves the text cursor one character in the negative X direction.
049A44                   0167 ;     By default, when at the start of a line it will move to the end of
049A44                   0168 ;     the previous line (as defined by the current text viewport).
049A44                   0169 ;     If the cursor is also at the top of the screen then the viewport will scroll down.
049A44                   0170 ;     The cursor remains constrained to the current text viewport.
049A44                   0171 ;     When in VDU 5 mode and the graphics cursor is active, the viewport will not scroll.
049A44                   0172 ;     The cursor is just moved left by one character width.
049A44                   0173 ;     Further behaviour of the cursor can be controlled using the VDU 23,16 command.
049A44                   0174 ;     It should be noted that as of Console8 VDP 2.5.0, the cursor system does not
049A44                   0175 ;     support adjusting the direction of the cursors X axis, so this command
049A44                   0176 ;     will move the cursor to the left. This is likely to change in the future.
049A44                   0177 vdu_cursor_back:
049A44 3E 08             0178     ld a,8
049A46 5B D7             0179 	rst.lil $10
049A48 C9                0180 	ret
049A49                   0181 
049A49                   0182 ; VDU 9: Move cursor forward one character
049A49                   0183 vdu_cursor_forward:
049A49 3E 09             0184     ld a,9
049A4B 5B D7             0185 	rst.lil $10
049A4D C9                0186 	ret
049A4E                   0187 
049A4E                   0188 ; VDU 10: Move cursor down one line
049A4E                   0189 vdu_cursor_down:
049A4E 3E 0A             0190     ld a,10
049A50 5B D7             0191 	rst.lil $10
049A52 C9                0192 	ret
049A53                   0193 
049A53                   0194 ; VDU 11: Move cursor up one line
049A53                   0195 vdu_cursor_up:
049A53 3E 0B             0196     ld a,11
049A55 5B D7             0197 	rst.lil $10
049A57 C9                0198 	ret
049A58                   0199 
049A58                   0200 ; VDU 12: Clear text area (CLS)
049A58                   0201 vdu_cls:
049A58 3E 0C             0202     ld a,12
049A5A 5B D7             0203 	rst.lil $10
049A5C C9                0204 	ret
049A5D                   0205 
049A5D                   0206 ; VDU 13: Carriage return
049A5D                   0207 vdu_cr:
049A5D 3E 0D             0208     ld a,13
049A5F 5B D7             0209 	rst.lil $10
049A61 C9                0210 	ret
049A62                   0211 
049A62                   0212 ; VDU 14: Page mode On *
049A62                   0213 vdu_page_on:
049A62 3E 0E             0214     ld a,14
049A64 5B D7             0215 	rst.lil $10
049A66 C9                0216 	ret
049A67                   0217 
049A67                   0218 ; VDU 15: Page mode Off *
049A67                   0219 vdu_page_off:
049A67 3E 0F             0220     ld a,15
049A69 5B D7             0221 	rst.lil $10
049A6B C9                0222 	ret
049A6C                   0223 
049A6C                   0224 ; VDU 16: Clear graphics area (CLG)
049A6C                   0225 vdu_clg:
049A6C 3E 10             0226     ld a,16
049A6E 5B D7             0227 	rst.lil $10
049A70 C9                0228 	ret
049A71                   0229 
049A71                   0230 ; VDU 17, colour: Define text colour (COLOUR)
049A71                   0231 vdu_colour_text:
049A71 32 81 9A 04       0232 	ld (@arg),a
049A75 21 80 9A 04       0233 	ld hl,@cmd
049A79 01 02 00 00       0234 	ld bc,@end-@cmd
049A7D 5B DF             0235 	rst.lil $18
049A7F C9                0236 	ret
049A80 11                0237 @cmd: db 17
049A81 00                0238 @arg: db 0
049A82                   0239 @end:
049A82                   0240 
049A82                   0241 ; VDU 18, mode, colour: Set graphics colour (GCOL mode, colour)
049A82                   0242 ; inputs: a is the plotting mode, c is the colour
049A82                   0243 ; outputs: a VDU set to put pixels on the screen with the selected mode/colour
049A82                   0244 vdu_gcol_fg:
049A82                   0245 ; This command will set both the current graphics colour,
049A82                   0246 ; and the current graphics plotting mode.
049A82                   0247 ; As with VDU 17 the colour number will set the foreground colour
049A82                   0248 ; if it is in the range 0-127, or the background colour if it is
049A82                   0249 ; in the range 128-255, and will be interpreted in the same manner.
049A82                   0250 ; Support for different plotting modes on Agon is currently very limited.
049A82                   0251 ; The only fully supported mode is mode 0, which is the default mode.
049A82                   0252 ; This mode will plot the given colour at the given graphics coordinate,
049A82                   0253 ; and will overwrite any existing graphics at that coordinate. There is
049A82                   0254 ; very limited support for mode 4, which will invert the colour of any
049A82                   0255 ; existing graphics at the given coordinate, but this is not fully supported
049A82                   0256 ; and may not work as expected.
049A82                   0257 ; Support for other plotting modes, matching those provided by Acorns
049A82                   0258 ; original VDU system, may be added in the future.
049A82                   0259 ; This command is identical to the BASIC GCOL keyword.
049A82 32 97 9A 04       0260 	ld (@mode),a
049A86 79                0261     ld a,c
049A87 32 98 9A 04       0262     ld (@col),a
049A8B 21 96 9A 04       0263 	ld hl,@cmd
049A8F 01 03 00 00       0264 	ld bc,@end-@cmd
049A93 5B DF             0265 	rst.lil $18
049A95 C9                0266 	ret
049A96 12                0267 @cmd: db 18
049A97 00                0268 @mode: db 0
049A98 00                0269 @col: db 0
049A99                   0270 @end:
049A99                   0271 
049A99                   0272 vdu_gcol_bg:
049A99 32 B0 9A 04       0273 	ld (@mode),a
049A9D 79                0274     ld a,c
049A9E C6 80             0275     add a,128
049AA0 32 B1 9A 04       0276     ld (@col),a
049AA4 21 AF 9A 04       0277 	ld hl,@cmd
049AA8 01 03 00 00       0278 	ld bc,@end-@cmd
049AAC 5B DF             0279 	rst.lil $18
049AAE C9                0280 	ret
049AAF 12                0281 @cmd:  db 18
049AB0 00                0282 @mode: db 0
049AB1 00                0283 @col:  db 0
049AB2                   0284 @end:
049AB2                   0285 
049AB2                   0286 ; VDU 19, l, p, r, g, b: Define logical colour (COLOUR l, p / COLOUR l, r, g, b)
049AB2                   0287 ;     This command sets the colour palette, by mapping a logical colour
049AB2                   0288 ;     to a physical colour. This is useful for defining custom colours,
049AB2                   0289 ;     or for redefining the default colours.
049AB2                   0290 ;     If the physical colour number is given as 255 then the colour will
049AB2                   0291 ;     be defined using the red, green, and blue values given. If the physical
049AB2                   0292 ;     colour number is given as any other value then the colour will be defined
049AB2                   0293 ;     using the colour palette entry given by that number, up to colour number 63.
049AB2                   0294 ;     If the physical colour is not 255 then the red, green, and blue values
049AB2                   0295 ;     must still be provided, but will be ignored.
049AB2                   0296 ;     The values for red, green and blue must be given in the range 0-255.
049AB2                   0297 ;     You should note that the physical Agon hardware only supports 64 colours,
049AB2                   0298 ;     so the actual colour displayed may not be exactly the same as the colour
049AB2                   0299 ;     requested. The nearest colour will be chosen.
049AB2                   0300 ;     This command is equivalent to the BASIC COLOUR keyword.
049AB2                   0301 ; inputs: a=physcial colour, b=logical colour, chl=r,g,b
049AB2                   0302 vdu_def_log_colour:
049AB2 32 D7 9A 04       0303 	ld (@physical),a
049AB6 47                0304     ld b,a
049AB7 32 D6 9A 04       0305     ld (@logical),a
049ABB 79                0306     ld a,c
049ABC 32 D8 9A 04       0307     ld (@red),a
049AC0 7C                0308     ld a,h
049AC1 32 D9 9A 04       0309     ld (@green),a
049AC5 7D                0310     ld a,l
049AC6 32 DA 9A 04       0311     ld (@blue),a
049ACA 21 D5 9A 04       0312 	ld hl,@cmd
049ACE 01 06 00 00       0313 	ld bc,@end-@cmd
049AD2 5B DF             0314 	rst.lil $18
049AD4 C9                0315 	ret
049AD5 13                0316 @cmd: db 19
049AD6 00                0317 @logical: db 0
049AD7 00                0318 @physical: db 0
049AD8 00                0319 @red: db 0
049AD9 00                0320 @green: db 0
049ADA 00                0321 @blue: db 0
049ADB                   0322 @end:
049ADB                   0323 
049ADB                   0324 ; VDU 20: Reset palette and text/graphics colours and drawing modes 
049ADB                   0325 vdu_reset_gfx:
049ADB 3E 14             0326     ld a,20
049ADD 5B D7             0327 	rst.lil $10
049ADF C9                0328 	ret
049AE0                   0329 
049AE0                   0330 ; VDU 21: Disable screen (turns off VDU command processing,
049AE0                   0331 ; except for VDU 1 and VDU 6) 
049AE0                   0332 vdu_disable_screen:
049AE0 3E 15             0333     ld a,21
049AE2 5B D7             0334 	rst.lil $10
049AE4 C9                0335 	ret
049AE5                   0336 
049AE5                   0337 ; VDU 22, n: Select screen mode (MODE n)
049AE5                   0338 ; Inputs: a, screen mode (8-bit unsigned integer), in the following list:
049AE5                   0339 ; https://agonconsole8.github.io/agon-docs/VDP---Screen-Modes.html
049AE5                   0340 ; Screen modes
049AE5                   0341 ; Modes over 128 are double-buffered
049AE5                   0342 ; From Version 1.04 or greater
049AE5                   0343 ; Mode 	Horz 	Vert 	Cols 	Refresh
049AE5                   0344 ; 0 	640 	480 	16 	    60hz
049AE5                   0345 ; * 1 	640 	480 	4 	    60hz
049AE5                   0346 ; 2 	640 	480 	2 	    60hz
049AE5                   0347 ; 3 	640 	240 	64 	    60hz
049AE5                   0348 ; 4 	640 	240 	16 	    60hz
049AE5                   0349 ; 5 	640 	240 	4 	    60hz
049AE5                   0350 ; 6 	640 	240 	2 	    60hz
049AE5                   0351 ; ** 7 	n/a 	n/a 	16 	    60hz
049AE5                   0352 ; 8 	320 	240 	64 	    60hz
049AE5                   0353 ; 9 	320 	240 	16 	    60hz
049AE5                   0354 ; 10 	320 	240 	4 	    60hz
049AE5                   0355 ; 11 	320 	240 	2 	    60hz
049AE5                   0356 ; 12 	320 	200 	64 	    70hz
049AE5                   0357 ; 13 	320 	200 	16 	    70hz
049AE5                   0358 ; 14 	320 	200 	4 	    70hz
049AE5                   0359 ; 15 	320 	200 	2 	    70hz
049AE5                   0360 ; 16 	800 	600 	4 	    60hz
049AE5                   0361 ; 17 	800 	600 	2 	    60hz
049AE5                   0362 ; 18 	1024 	768 	2 	    60hz
049AE5                   0363 ; 129 	640 	480 	4 	    60hz
049AE5                   0364 ; 130 	640 	480 	2 	    60hz
049AE5                   0365 ; 132 	640 	240 	16 	    60hz
049AE5                   0366 ; 133 	640 	240 	4 	    60hz
049AE5                   0367 ; 134 	640 	240 	2 	    60hz
049AE5                   0368 ; 136 	320 	240 	64 	    60hz
049AE5                   0369 ; 137 	320 	240 	16 	    60hz
049AE5                   0370 ; 138 	320 	240 	4 	    60hz
049AE5                   0371 ; 139 	320 	240 	2 	    60hz
049AE5                   0372 ; 140 	320 	200 	64 	    70hz
049AE5                   0373 ; 141 	320 	200 	16 	    70hz
049AE5                   0374 ; 142 	320 	200 	4 	    70hz
049AE5                   0375 ; 143 	320 	200 	2 	    70hz
049AE5                   0376 ; * Mode 1 is the default mode, and is the mode that the system will use on startup.
049AE5                   0377 ; It is also the mode that the system will fall back to use if it was not possible to
049AE5                   0378 ; change to the requested mode.
049AE5                   0379 ; ** Mode 7 is the Teletext mode, and essentially works in a very similar manner to
049AE5                   0380 ; the BBC Micros Teletext mode, which was also mode 7.
049AE5                   0381 vdu_set_screen_mode:
049AE5 32 F5 9A 04       0382 	ld (@arg),a
049AE9 21 F4 9A 04       0383 	ld hl,@cmd
049AED 01 02 00 00       0384 	ld bc,@end-@cmd
049AF1 5B DF             0385 	rst.lil $18
049AF3 C9                0386 	ret
049AF4 16                0387 @cmd: db 22 ; set screen mode
049AF5 00                0388 @arg: db 0  ; screen mode parameter
049AF6                   0389 @end:
049AF6                   0390 
049AF6                   0391 ; VDU 23, n: Re-program display character / System Commands
049AF6                   0392 ; inputs: a, ascii code; hl, pointer to bitmask data
049AF6                   0393 vdu_define_character:
049AF6 32 12 9B 04       0394 	ld (@ascii),a
049AFA 11 13 9B 04       0395 	ld de,@data
049AFE 06 08             0396 	ld b,8 ; loop counter for 8 bytes of data
049B00                   0397 @loop:
049B00 7E                0398 	ld a,(hl)
049B01 12                0399 	ld (de),a
049B02 23                0400 	inc hl
049B03 13                0401 	inc de
049B04 10 FA             0402 	djnz @loop
049B06 21 11 9B 04       0403 	ld hl,@cmd
049B0A 01 0A 00 00       0404 	ld bc,@end-@cmd
049B0E 5B DF             0405 	rst.lil $18
049B10 C9                0406 	ret
049B11 17                0407 @cmd:   db 23
049B12 00                0408 @ascii: db 0
049B13 00 00 00 00 00 00 0409 @data:  ds 8
       00 00             
049B1B                   0410 @end:
049B1B                   0411 
049B1B                   0412 ; VDU 24, left; bottom; right; top;: Set graphics viewport
049B1B                   0413 ; NOTE: the order of the y-coordinate parameters are inverted
049B1B                   0414 ; 	because we have turned off logical screen scaling
049B1B                   0415 ; inputs: bc=x0,de=y0,ix=x1,iy=y1
049B1B                   0416 ; outputs; nothing
049B1B                   0417 ; destroys: a might make it out alive
049B1B                   0418 vdu_set_gfx_viewport:
049B1B ED 43 3B 9B 04    0419     ld (@x0),bc
049B20 FD 22 3D 9B 04    0420     ld (@y1),iy
049B25 DD 22 3F 9B 04    0421 	ld (@x1),ix
049B2A ED 53 41 9B 04    0422 	ld (@y0),de
049B2F 21 3A 9B 04       0423 	ld hl,@cmd
049B33 01 09 00 00       0424 	ld bc,@end-@cmd
049B37 5B DF             0425 	rst.lil $18
049B39 C9                0426 	ret
049B3A 18                0427 @cmd:   db 24 ; set graphics viewport command
049B3B 00 00             0428 @x0: 	dw 0x0000 ; set by bc
049B3D 00 00             0429 @y1: 	dw 0x0000 ; set by iy
049B3F 00 00             0430 @x1: 	dw 0x0000 ; set by ix
049B41 00 00             0431 @y0: 	dw 0x0000 ; set by de
049B43 00                0432 @end:   db 0x00	  ; padding
049B44                   0433 
049B44                   0434 ; VDU 25, mode, x; y;: PLOT command
049B44                   0435 ; Implemented in vdu_plot.asm
049B44                   0436 
049B44                   0437 ; VDU 26: Reset graphics and text viewports **
049B44                   0438 vdu_reset_txt_gfx_view:
049B44 3E 1A             0439     ld a,26
049B46 5B D7             0440 	rst.lil $10
049B48 C9                0441 	ret
049B49                   0442 
049B49                   0443 ; PASSES
049B49                   0444 ; VDU 27, char: Output character to screen 
049B49                   0445 ; inputs: a is the ascii code of the character to draw
049B49                   0446 vdu_draw_char:
049B49 32 59 9B 04       0447 	ld (@arg),a
049B4D 21 58 9B 04       0448 	ld hl,@cmd
049B51 01 02 00 00       0449 	ld bc,@end-@cmd
049B55 5B DF             0450 	rst.lil $18
049B57 C9                0451 	ret
049B58 1B                0452 @cmd: db 27
049B59 00                0453 @arg: db 0  ; ascii code of character to draw
049B5A                   0454 @end:
049B5A                   0455 
049B5A                   0456 ; VDU 28, left, bottom, right, top: Set text viewport **
049B5A                   0457 ; MIND THE LITTLE-ENDIANESS
049B5A                   0458 ; inputs: c=left,b=bottom,e=right,d=top
049B5A                   0459 ; outputs; nothing
049B5A                   0460 ; destroys: a might make it out alive
049B5A                   0461 vdu_set_txt_viewport:
049B5A ED 43 70 9B 04    0462     ld (@lb),bc
049B5F ED 53 72 9B 04    0463 	ld (@rt),de
049B64 21 6F 9B 04       0464 	ld hl,@cmd
049B68 01 05 00 00       0465 	ld bc,@end-@cmd
049B6C 5B DF             0466 	rst.lil $18
049B6E C9                0467 	ret
049B6F 1C                0468 @cmd:   db 28 ; set text viewport command
049B70 00 00             0469 @lb: 	dw 0x0000 ; set by bc
049B72 00 00             0470 @rt: 	dw 0x0000 ; set by de
049B74 00                0471 @end:   db 0x00	  ; padding
049B75                   0472 
049B75                   0473 ; PASSES
049B75                   0474 ; VDU 29, x; y;: Set graphics origin
049B75                   0475 ; inputs: bc,de x,y coordinates
049B75                   0476 vdu_set_gfx_origin:
049B75 ED 43 8B 9B 04    0477     ld (@x0),bc
049B7A ED 53 8D 9B 04    0478     ld (@y0),de
049B7F 21 8A 9B 04       0479 	ld hl,@cmd
049B83 01 05 00 00       0480 	ld bc,@end-@cmd
049B87 5B DF             0481 	rst.lil $18
049B89 C9                0482 	ret
049B8A 1D                0483 @cmd:	db 29
049B8B 00 00             0484 @x0: 	dw 0
049B8D 00 00             0485 @y0: 	dw 0
049B8F 00                0486 @end: 	db 0 ; padding
049B90                   0487 
049B90                   0488 ; PASSES
049B90                   0489 ; VDU 30: Home cursor
049B90                   0490 vdu_home_cursor:
049B90 3E 1E             0491     ld a,30
049B92 5B D7             0492 	rst.lil $10
049B94 C9                0493 	ret
049B95                   0494 
049B95                   0495 ; PASSES
049B95                   0496 ; VDU 31, x, y: Move text cursor to x, y text position (TAB(x, y))
049B95                   0497 ; inputs: c=x, b=y 8-bit unsigned integers
049B95                   0498 vdu_move_cursor:
049B95 ED 43 A6 9B 04    0499     ld (@x0),bc
049B9A 21 A5 9B 04       0500 	ld hl,@cmd
049B9E 01 03 00 00       0501 	ld bc,@end-@cmd
049BA2 5B DF             0502 	rst.lil $18
049BA4 C9                0503 	ret
049BA5 1F                0504 @cmd: 	db 31
049BA6 00                0505 @x0:	db 0
049BA7 00                0506 @y0: 	db 0
049BA8 00                0507 @end: 	db 0 ; padding
049BA9                   0508 
049BA9                   0509 
049BA9                   0510 ; VDU 127: Backspace
049BA9                   0511 vdu_bksp:
049BA9 3E 7F             0512     ld a,127
049BAB 5B D7             0513 	rst.lil $10
049BAD C9                0514 	ret
049BAE                   0515 
049BAE                   0516 ; activate a bitmap in preparation to draw it
049BAE                   0517 ; inputs: a holding the bitmap index
049BAE                   0518 vdu_bmp_select:
049BAE 32 C0 9B 04       0519 	ld (@bmp),a
049BB2 21 BD 9B 04       0520 	ld hl,@cmd
049BB6 01 04 00 00       0521 	ld bc,@end-@cmd
049BBA 5B DF             0522 	rst.lil $18
049BBC C9                0523 	ret
049BBD 17 1B 00          0524 @cmd: db 23,27,0
049BC0 00                0525 @bmp: db 0
049BC1                   0526 @end:
049BC1                   0527 
049BC1                   0528 ; VDU 23, 27, &20, bufferId; : Select bitmap (using a buffer ID)
049BC1                   0529 ; inputs: hl=bufferId
049BC1                   0530 vdu_buff_select:
049BC1 22 D3 9B 04       0531 	ld (@bufferId),hl
049BC5 21 D0 9B 04       0532 	ld hl,@cmd
049BC9 01 05 00 00       0533 	ld bc,@end-@cmd
049BCD 5B DF             0534 	rst.lil $18
049BCF C9                0535 	ret
049BD0 17 1B 20          0536 @cmd: db 23,27,0x20
049BD3 00 00             0537 @bufferId: dw 0x0000
049BD5 00                0538 @end: db 0x00 ; padding
049BD6                   0539 
049BD6                   0540 ; VDU 23, 27, &21, w; h; format: Create bitmap from selected buffer
049BD6                   0541 ; inputs: a=format; bc=width; de=height
049BD6                   0542 ; prerequisites: buffer selected by vdu_bmp_select or vdu_buff_select
049BD6                   0543 ; formats: https://agonconsole8.github.io/agon-docs/VDP---Bitmaps-API.html
049BD6                   0544 ; 0 	RGBA8888 (4-bytes per pixel)
049BD6                   0545 ; 1 	RGBA2222 (1-bytes per pixel)
049BD6                   0546 ; 2 	Mono/Mask (1-bit per pixel)
049BD6                   0547 ; 3 	Reserved for internal use by VDP (native format)
049BD6                   0548 vdu_bmp_create:
049BD6 ED 43 F2 9B 04    0549     ld (@width),bc
049BDB ED 53 F4 9B 04    0550     ld (@height),de
049BE0 32 F6 9B 04       0551     ld (@fmt),a
049BE4 21 EF 9B 04       0552 	ld hl,@cmd
049BE8 01 08 00 00       0553 	ld bc,@end-@cmd
049BEC 5B DF             0554 	rst.lil $18
049BEE C9                0555 	ret
049BEF 17 1B 21          0556 @cmd:       db 23,27,0x21
049BF2 00 00             0557 @width:     dw 0x0000
049BF4 00 00             0558 @height:    dw 0x0000
049BF6 00                0559 @fmt:       db 0x00
049BF7                   0560 @end:
049BF7                   0561 
049BF7                   0562 ; Draw a bitmap on the screen
049BF7                   0563 ; inputs: bc, x-coordinate; de, y-coordinate
049BF7                   0564 ; prerequisite: bitmap index set by e.g. vdu_bmp_select
049BF7                   0565 vdu_bmp_draw:
049BF7 ED 43 0F 9C 04    0566     ld (@x0),bc
049BFC ED 53 11 9C 04    0567     ld (@y0),de
049C01 21 0C 9C 04       0568 	ld hl,@cmd
049C05 01 07 00 00       0569 	ld bc,@end-@cmd
049C09 5B DF             0570 	rst.lil $18
049C0B C9                0571 	ret
049C0C 17 1B 03          0572 @cmd: db 23,27,3
049C0F 00 00             0573 @x0:  dw 0x0000
049C11 00 00             0574 @y0:  dw 0x0000
049C13 00                0575 @end: db 0x00 ; padding
049C14                   0576 
049C14                   0577 ; VDU 23, 0, &C0, n: Turn logical screen scaling on and off *
049C14                   0578 ; inputs: a is scaling mode, 1=on, 0=off
049C14                   0579 ; note: default setting on boot is scaling ON
049C14                   0580 vdu_set_scaling:
049C14 32 26 9C 04       0581 	ld (@arg),a
049C18 21 23 9C 04       0582 	ld hl,@cmd
049C1C 01 04 00 00       0583 	ld bc,@end-@cmd
049C20 5B DF             0584 	rst.lil $18
049C22 C9                0585 	ret
049C23 17 00 C0          0586 @cmd: db 23,0,0xC0
049C26 00                0587 @arg: db 0  ; scaling on/off
049C27                   0588 @end:
049C27                   0589 
049C27                   0590 ; VDU 23, 0, &C3: Swap the screen buffer and/or wait for VSYNC **
049C27                   0591 ; 	Swap the screen buffer (double-buffered modes only) or wait for VSYNC
049C27                   0592 ; 	(all modes).
049C27                   0593 
049C27                   0594 ; 	This command will swap the screen buffer, if the current screen mode
049C27                   0595 ; 	is double-buffered, doing so at the next VSYNC. If the current screen
049C27                   0596 ; 	mode is not double-buffered then this command will wait for the next
049C27                   0597 ; 	VSYNC signal before returning. This can be used to synchronise the
049C27                   0598 ; 	screen with the vertical refresh rate of the monitor.
049C27                   0599 
049C27                   0600 ; 	Waiting for VSYNC can be useful for ensuring smooth graphical animation,
049C27                   0601 ; 	as it will prevent tearing of the screen.
049C27                   0602 ; inputs: none
049C27                   0603 ; outputs: none
049C27                   0604 ; destroys: hl, bc
049C27                   0605 vdu_flip:
049C27 21 32 9C 04       0606 	ld hl,@cmd
049C2B 01 03 00 00       0607 	ld bc,@end-@cmd
049C2F 5B DF             0608 	rst.lil $18
049C31 C9                0609 	ret
049C32 17 00 C3          0610 @cmd: db 23,0,0xC3
049C35                   0611 @end:
049C35                   0612 
049C35                   0613 ; Command 64: Compress a buffer
049C35                   0614 ; VDU 23, 0, &A0, targetBufferId; 64, sourceBufferId;
049C35                   0615 ; This command will compress the contents of a buffer, replacing the target buffer with the compressed data. Unless the target buffer is the same as the source, the source buffer will be left unchanged.
049C35                   0616 
049C35                   0617 
049C35                   0618 ; Command 65: Decompress a buffer
049C35                   0619 ; VDU 23, 0, &A0, targetBufferId; 65, sourceBufferId;
049C35                   0620 ; This command will decompress the contents of a buffer, replacing the target buffer with the decompressed data. Unless the target buffer is the same as the source, the source buffer will be left unchanged.
049C35                   0621 ; inputs: hl=sourceBufferId/targetBufferId
049C35                   0622 vdu_decompress_buffer:
049C35 22 51 9C 04       0623 	ld (@targetBufferId),hl
049C39 22 54 9C 04       0624 	ld (@sourceBufferId),hl
049C3D 3E 41             0625 	ld a,65
049C3F 32 53 9C 04       0626 	ld (@cmd1),a ; restore the part of command that got stomped on
049C43 21 4E 9C 04       0627 	ld hl,@cmd
049C47 01 08 00 00       0628 	ld bc,@end-@cmd
049C4B 5B DF             0629 	rst.lil $18
049C4D C9                0630 	ret
049C4E 17 00 A0          0631 @cmd: 	db 23,0,0xA0
049C51 00 00             0632 @targetBufferId: dw 0x0000
049C53 41                0633 @cmd1:	db 65
049C54 00 00             0634 @sourceBufferId: dw 0x0000
049C56 00                0635 @end: 	db 0x00 ; padding
049C57                   0636 
049C57                   0637 ; Command 65: Decompress a buffer
049C57                   0638 ; VDU 23, 0, &A0, targetBufferId; 65, sourceBufferId;
049C57                   0639 ; This command will decompress the contents of a buffer, replacing the target buffer with the decompressed data. Unless the target buffer is the same as the source, the source buffer will be left unchanged.
049C57                   0640 ; inputs: hl=sourceBufferId/targetBufferId
049C57                   0641 ; 0x7FFF for the source buffer is just an easy-to remember aribtrary value
049C57                   0642 vdu_decompress_buffer_different:
049C57 22 77 9C 04       0643 	ld (@targetBufferId),hl
049C5B 21 FF 7F 00       0644     ld hl,0x7FFF
049C5F 22 7A 9C 04       0645 	ld (@sourceBufferId),hl
049C63 3E 41             0646 	ld a,65
049C65 32 79 9C 04       0647 	ld (@cmd1),a ; restore the part of command that got stomped on
049C69 21 74 9C 04       0648 	ld hl,@cmd
049C6D 01 08 00 00       0649 	ld bc,@end-@cmd
049C71 5B DF             0650 	rst.lil $18
049C73 C9                0651 	ret
049C74 17 00 A0          0652 @cmd: 	db 23,0,0xA0
049C77 00 00             0653 @targetBufferId: dw 0x0000
049C79 41                0654 @cmd1:	db 65
049C7A 00 00             0655 @sourceBufferId: dw 0x0000
049C7C 00                0656 @end: 	db 0x00 ; padding
049C7D                   0657 
049C7D                   0658 ; #### from vdp.asm ####
049C7D                   0659 
049C7D                   0660 ; https://github.com/breakintoprogram/agon-docs/wiki/VDP
049C7D                   0661 ; VDU 23, 7: Scrolling
049C7D                   0662 ;     VDU 23, 7, extent, direction, speed: Scroll the screen
049C7D                   0663 ; inputs: a, extent; l, direction; h; speed
049C7D                   0664 vdu_scroll_down:
049C7D 32 92 9C 04       0665 	ld (@extent),a
049C81 22 93 9C 04       0666 	ld (@dir),hl ; implicitly populates @speed
049C85 21 90 9C 04       0667 	ld hl,@cmd
049C89 01 05 00 00       0668 	ld bc,@end-@cmd
049C8D 5B DF             0669 	rst.lil $18     ;; Sending command to VDP
049C8F C9                0670 	ret
049C90 17 07             0671 @cmd:       db 23,7
049C92 00                0672 @extent:    db 0x00 ; 0 current text window, 1 entire screen, 2 curr gfx viewport
049C93 00                0673 @dir:       db 0x00 ; 0 right, 1 left, 2 down, 3 up
049C94 00                0674 @speed:     db 0x00 ; pixels
049C95 00                0675 @end:		db 0x00 ; padding
049C96                   0676 
049C96                   0677 cursor_on:
049C96 21 A1 9C 04       0678 	ld hl,@cmd
049C9A 01 03 00 00       0679 	ld bc,@end-@cmd
049C9E 5B DF             0680 	rst.lil $18
049CA0 C9                0681 	ret
049CA1                   0682 @cmd:
049CA1 17 01 01          0683 	db 23,1,1
049CA4                   0684 @end:
049CA4                   0685 
049CA4                   0686 cursor_off:
049CA4 21 AF 9C 04       0687 	ld hl,@cmd
049CA8 01 03 00 00       0688 	ld bc,@end-@cmd
049CAC 5B DF             0689 	rst.lil $18
049CAE C9                0690 	ret
049CAF                   0691 @cmd:
049CAF 17 01 00          0692 	db 23,1,0
049CB2                   0693 @end:
049CB2                   0694 
049CB2 DD E5             0695 vdu_vblank:		PUSH 	IX			; Wait for VBLANK interrupt
049CB4                   0696 			MOSCALL	mos_sysvars		; Fetch pointer to system variables
049CB4 3E 08             0696 			LD	A, function
049CB6 5B CF             0696 			RST.LIL	08h
049CB8 DD 7E 00          0697 			LD	A, (IX + sysvar_time + 0)
049CBB DD BE 00          0698 @wait:			CP 	A, (IX + sysvar_time + 0)
049CBE 28 FB             0699 			JR	Z, @wait
049CC0 DD E1             0700 			POP	IX
049CC2 C9                0701 			RET
049CC3                   0702 
049CC3                   0703 ; #### from vdu_bmp.asm ####
049CC3                   0704 ; =========================================================================
049CC3                   0705 ; Bitmaps
049CC3                   0706 ; -------------------------------------------------------------------------
049CC3                   0707 ; VDU 23, 27, 0, n: Select bitmap n
049CC3                   0708 ; VDU 23, 27, &20, bufferId;: Select bitmap using a 16-bit buffer ID *
049CC3                   0709 ; VDU 23, 27, 1, w; h; b1, b2 ... bn: Load colour bitmap data into current bitmap
049CC3                   0710 
049CC3                   0711 ; VDU 23, 27, 1, n, 0, 0;: Capture screen data into bitmap n *
049CC3                   0712 ; VDU 23, 27, &21, bitmapId; 0; : same, but to 16-bit buffer ID *
049CC3                   0713 ; Any PLOT, or VDU 25, style command will push the graphics cursor position -
049CC3                   0714 ; typically "move" style plot commands are used to define the rectangle.
049CC3                   0715 ; To be clear, this command should be performed after two "move" style PLOT commands.
049CC3                   0716 ; inputs: hl; target bufferId
049CC3                   0717 ; all the following are in 16.8 fixed point format
049CC3                   0718 ;   ub.c; top-left x coordinate
049CC3                   0719 ;   ud.e; top-left y coordinate
049CC3                   0720 ;   ui.x; width
049CC3                   0721 ;   ui.y; height
049CC3                   0722 vdu_buff_screen_capture168:
049CC3 ED 53 FA 9C 04    0723         ld (@y0-1),de
049CC8 ED 43 F8 9C 04    0724         ld (@x0-1),bc
049CCD 3E 44             0725         ld a,0x44 ; plot_pt+mv_abs
049CCF 32 F8 9C 04       0726         ld (@x0-1),a
049CD3                   0727 
049CD3 DD 22 FF 9C 04    0728         ld (@x1),ix
049CD8 FD 22 01 9D 04    0729         ld (@y1),iy
049CDD 3E 17             0730         ld a,23
049CDF 32 03 9D 04       0731         ld (@y1+2),a
049CE3                   0732 
049CE3 22 06 9D 04       0733         ld (@bufId),hl
049CE7 AF                0734         xor a
049CE8 32 08 9D 04       0735         ld (@bufId+2),a
049CEC                   0736 
049CEC 21 F7 9C 04       0737         ld hl,@begin
049CF0 01 13 00 00       0738         ld bc,@end-@begin
049CF4 5B DF             0739         rst.lil $18
049CF6 C9                0740         ret
049CF7                   0741 @begin:
049CF7                   0742 ; absolute move gfx cursor to top-left screen coordinate
049CF7                   0743 ; VDU 25, mode, x; y;: PLOT command
049CF7 19 44             0744         db 25,0x44 ; plot_pt+mv_abs
049CF9 40 00             0745 @x0: 	dw 64
049CFB 40 00             0746 @y0: 	dw 64
049CFD                   0747 ; relative move gfx cursor to bottom-right screen coordinate
049CFD                   0748 ; VDU 25, mode, x; y;: PLOT command
049CFD 19 40             0749         db 25,0x40 ; plot_pt+mv_rel
049CFF 0F 00             0750 @x1: 	dw 15
049D01 0F 00             0751 @y1: 	dw 15
049D03                   0752 ; now the main event
049D03                   0753 ; VDU 23, 27, &21, bitmapId; 0;
049D03 17 1B 21          0754         db 23,27,0x21
049D06 00 20 00 00       0755 @bufId: dw 0x2000,0x0000
049D0A                   0756 @end: ; no padding required
049D0A                   0757 
049D0A                   0758 vdu_buff_screen_capture_full:
049D0A 21 15 9D 04       0759         ld hl,@begin
049D0E 01 13 00 00       0760         ld bc,@end-@begin
049D12 5B DF             0761         rst.lil $18
049D14 C9                0762         ret
049D15                   0763 @begin:
049D15                   0764 ; absolute move gfx cursor to top-left screen coordinate
049D15                   0765 ; VDU 25, mode, x; y;: PLOT command
049D15 19 44             0766         db 25,0x44 ; plot_pt+mv_abs
049D17 00 00             0767 @x0: 	dw 0
049D19 00 00             0768 @y0: 	dw 0
049D1B                   0769 ; relative move gfx cursor to bottom-right screen coordinate
049D1B                   0770 ; VDU 25, mode, x; y;: PLOT command
049D1B 19 40             0771         db 25,0x40 ; plot_pt+mv_rel
049D1D 3F 01             0772 @x1: 	dw 319
049D1F EF 00             0773 @y1: 	dw 239
049D21                   0774 ; now the main event
049D21                   0775 ; VDU 23, 27, &21, bitmapId; 0;
049D21 17 1B 21          0776         db 23,27,0x21
049D24 00 20 00 00       0777 @bufId: dw 0x2000,0x0000
049D28                   0778 @end: ; no padding required
049D28                   0779 
049D28                   0780 vdu_buff_screen_paste_full:
049D28 21 33 9D 04       0781         ld hl,@begin
049D2C 01 0B 00 00       0782         ld bc,@end-@begin
049D30 5B DF             0783         rst.lil $18
049D32 C9                0784         ret
049D33                   0785 ; VDU 23, 27, &20, bufferId; : Select bitmap (using a buffer ID)
049D33 17 1B 20          0786 @begin:    db 23,27,0x20
049D36 00 20             0787 @bufferId: dw 0x2000
049D38                   0788 ; VDU 25, mode, x; y;: PLOT command
049D38 19 ED             0789            db 25,0xED ; plot_bmp+dr_abs_fg
049D3A 00 00 00 00       0790            dw 0x0000,0x0000
049D3E                   0791 @end: ; no padding required
049D3E                   0792 
049D3E                   0793 vdu_buff_screen_capture_tiles:
049D3E 21 49 9D 04       0794         ld hl,@begin
049D42 01 13 00 00       0795         ld bc,@end-@begin
049D46 5B DF             0796         rst.lil $18
049D48 C9                0797         ret
049D49                   0798 @begin:
049D49                   0799 ; absolute move gfx cursor to top-left screen coordinate
049D49                   0800 ; VDU 25, mode, x; y;: PLOT command
049D49 19 44             0801         db 25,0x44 ; plot_pt+mv_abs
049D4B 00 00             0802 @x0: 	dw 0
049D4D 00 00             0803 @y0: 	dw 0
049D4F                   0804 ; relative move gfx cursor to bottom-right screen coordinate
049D4F                   0805 ; VDU 25, mode, x; y;: PLOT command
049D4F 19 40             0806         db 25,0x40 ; plot_pt+mv_rel
049D51 FF 00             0807 @x1: 	dw 319-64
049D53 EF 00             0808 @y1: 	dw 239
049D55                   0809 ; now the main event
049D55                   0810 ; VDU 23, 27, &21, bitmapId; 0;
049D55 17 1B 21          0811         db 23,27,0x21
049D58 00 20 00 00       0812 @bufId: dw 0x2000,0x0000
049D5C                   0813 @end: ; no padding required
049D5C                   0814 
049D5C                   0815 vdu_buff_screen_paste_tiles:
049D5C 21 67 9D 04       0816         ld hl,@begin
049D60 01 0B 00 00       0817         ld bc,@end-@begin
049D64 5B DF             0818         rst.lil $18
049D66 C9                0819         ret
049D67                   0820 ; VDU 23, 27, &20, bufferId; : Select bitmap (using a buffer ID)
049D67 17 1B 20          0821 @begin:    db 23,27,0x20
049D6A 00 20             0822 @bufferId: dw 0x2000
049D6C                   0823 ; VDU 25, mode, x; y;: PLOT command
049D6C 19 ED             0824            db 25,0xED ; plot_bmp+dr_abs_fg
049D6E 00 00 01 00       0825            dw 0x0000,0x0001
049D72                   0826 @end: ; no padding required
049D72                   0827 
049D72                   0828 ; VDU 23, 27, 2, w; h; col1; col2;: Create a solid colour rectangular bitmap
049D72                   0829 ; VDU 23, 27, 3, x; y;: Draw current bitmap on screen at pixel position x, y
049D72                   0830 ; VDU 23, 27, &21, w; h; format: Create bitmap from selected buffer *
049D72                   0831 ; Value	Meaning
049D72                   0832 ; 0	RGBA8888 (4-bytes per pixel)
049D72                   0833 ; 1	RGBA2222 (1-bytes per pixel)
049D72                   0834 ; 2	Mono/Mask (1-bit per pixel)
049D72                   0835 ; 3	Reserved for internal use by VDP ("native" format)VDP.
049D72                   0836 ;     They have some significant limitations, and are not intended for general use.
049D72                   0837 
049D72                   0838 ; =========================================================================
049D72                   0839 ; Sprites
049D72                   0840 ; -------------------------------------------------------------------------
049D72                   0841 ; VDU 23, 27, 4, n: Select sprite n
049D72                   0842 ; VDU 23, 27, 5: Clear frames in current sprite
049D72                   0843 ; VDU 23, 27, 6, n: Add bitmap n as a frame to current sprite (where bitmap's buffer ID is 64000+n)
049D72                   0844 ; VDU 23, 27, &26, n;: Add bitmap n as a frame to current sprite using a 16-bit buffer ID
049D72                   0845 ; VDU 23, 27, 7, n: Activate n sprites
049D72                   0846 ; VDU 23, 27, 8: Select next frame of current sprite
049D72                   0847 ; VDU 23, 27, 9: Select previous frame of current sprite
049D72                   0848 ; VDU 23, 27, 10, n: Select the nth frame of current sprite
049D72                   0849 ; VDU 23, 27, 11: Show current sprite
049D72                   0850 ; VDU 23, 27, 12: Hide current sprite
049D72                   0851 ; VDU 23, 27, 13, x; y;: Move current sprite to pixel position x, y
049D72                   0852 ; VDU 23, 27, 14, x; y;: Move current sprite by x, y pixels
049D72                   0853 ; VDU 23, 27, 15: Update the sprites in the GPU
049D72                   0854 ; VDU 23, 27, 16: Reset bitmaps and sprites and clear all data
049D72                   0855 ; VDU 23, 27, 17: Reset sprites (only) and clear all data
049D72                   0856 ; VDU 23, 27, 18, n: Set the current sprite GCOL paint mode to n **
049D72                   0857 
049D72                   0858 ; =========================================================================
049D72                   0859 ; Mouse cursor
049D72                   0860 ; -------------------------------------------------------------------------
049D72                   0861 ; VDU 23, 27, &40, hotX, hotY: Setup a mouse cursor with a hot spot at hotX, hotY
049D72                   0862 
049D72                   0863 ; #### from vdu_plot.asm ####
049D72                   0864 ; https://agonconsole8.github.io/agon-docs/VDP---PLOT-Commands.html
049D72                   0865 ; PLOT code 	(Decimal) 	Effect
049D72                   0866 ; &00-&07 	0-7 	Solid line, includes both ends
049D72                   0867 plot_sl_both: equ 0x00
049D72                   0868 
049D72                   0869 ; &08-&0F 	8-15 	Solid line, final point omitted
049D72                   0870 plot_sl_first: equ 0x08
049D72                   0871 
049D72                   0872 ; &10-&17 	16-23 	Not supported (Dot-dash line, includes both ends, pattern restarted)
049D72                   0873 ; &18-&1F 	24-31 	Not supported (Dot-dash line, first point omitted, pattern restarted)
049D72                   0874 
049D72                   0875 ; &20-&27 	32-39 	Solid line, first point omitted
049D72                   0876 plot_sl_last: equ 0x20
049D72                   0877 
049D72                   0878 ; &28-&2F 	40-47 	Solid line, both points omitted
049D72                   0879 plot_sl_none: equ 0x28
049D72                   0880 
049D72                   0881 ; &30-&37 	48-55 	Not supported (Dot-dash line, first point omitted, pattern continued)
049D72                   0882 ; &38-&3F 	56-63 	Not supported (Dot-dash line, both points omitted, pattern continued)
049D72                   0883 
049D72                   0884 ; &40-&47 	64-71 	Point plot
049D72                   0885 plot_pt: equ 0x40
049D72                   0886 
049D72                   0887 ; &48-&4F 	72-79 	Line fill left and right to non-background 
049D72                   0888 plot_lf_lr_non_bg: equ 0x48
049D72                   0889 
049D72                   0890 ; &50-&57 	80-87 	Triangle fill
049D72                   0891 plot_tf: equ 0x50
049D72                   0892 
049D72                   0893 ; &58-&5F 	88-95 	Line fill right to background 
049D72                   0894 plot_lf_r_bg: equ 0x58
049D72                   0895 
049D72                   0896 ; &60-&67 	96-103 	Rectangle fill
049D72                   0897 plot_rf: equ 0x60
049D72                   0898 
049D72                   0899 ; &68-&6F 	104-111 	Line fill left and right to foreground 
049D72                   0900 plot_lf_lr_fg: equ 0x60
049D72                   0901 
049D72                   0902 ; &70-&77 	112-119 	Parallelogram fill
049D72                   0903 plot_pf: equ 0x70
049D72                   0904 
049D72                   0905 ; &78-&7F 	120-127 	Line fill right to non-foreground 
049D72                   0906 plot_lf_r_non_fg: equ 0x78
049D72                   0907 
049D72                   0908 ; &80-&87 	128-135 	Not supported (Flood until non-background)
049D72                   0909 ; &88-&8F 	136-143 	Not supported (Flood until foreground)
049D72                   0910 
049D72                   0911 ; &90-&97 	144-151 	Circle outline
049D72                   0912 plot_co: equ 0x90
049D72                   0913 
049D72                   0914 ; &98-&9F 	152-159 	Circle fill
049D72                   0915 plot_cf: equ 0x98
049D72                   0916 
049D72                   0917 ; &A0-&A7 	160-167 	Not supported (Circular arc)
049D72                   0918 ; &A8-&AF 	168-175 	Not supported (Circular segment)
049D72                   0919 ; &B0-&B7 	176-183 	Not supported (Circular sector)
049D72                   0920 
049D72                   0921 ; &B8-&BF 	184-191 	Rectangle copy/move
049D72                   0922 plot_rcm: equ 0xB8
049D72                   0923 
049D72                   0924 ; &C0-&C7 	192-199 	Not supported (Ellipse outline)
049D72                   0925 ; &C8-&CF 	200-207 	Not supported (Ellipse fill)
049D72                   0926 ; &D0-&D7 	208-215 	Not defined
049D72                   0927 ; &D8-&DF 	216-223 	Not defined
049D72                   0928 ; &E0-&E7 	224-231 	Not defined
049D72                   0929 
049D72                   0930 ; &E8-&EF 	232-239 	Bitmap plot 
049D72                   0931 plot_bmp: equ 0xE8
049D72                   0932 
049D72                   0933 ; &F0-&F7 	240-247 	Not defined
049D72                   0934 ; &F8-&FF 	248-255 	Not defined
049D72                   0935 
049D72                   0936 ;  Support added in Agon Console8 VDP 2.1.0  Support added in
049D72                   0937 ; Agon Console8 VDP 2.2.0
049D72                   0938 
049D72                   0939 ; Within each group of eight plot codes, the effects are as follows:
049D72                   0940 ; Plot code 	Effect
049D72                   0941 ; 0 	Move relative
049D72                   0942 mv_rel: equ 0
049D72                   0943 
049D72                   0944 ; 1 	Plot relative in current foreground colour
049D72                   0945 dr_rel_fg: equ 1
049D72                   0946 
049D72                   0947 ; 2 	Not supported (Plot relative in logical inverse colour)
049D72                   0948 ; 3 	Plot relative in current background colour
049D72                   0949 dr_rel_bg: equ 3
049D72                   0950 
049D72                   0951 ; 4 	Move absolute
049D72                   0952 mv_abs: equ 4
049D72                   0953 
049D72                   0954 ; 5 	Plot absolute in current foreground colour
049D72                   0955 dr_abs_fg: equ 5
049D72                   0956 
049D72                   0957 ; 6 	Not supported (Plot absolute in logical inverse colour)
049D72                   0958 ; 7 	Plot absolute in current background colour
049D72                   0959 dr_abs_bg: equ 7
049D72                   0960 
049D72                   0961 ; Codes 0-3 use the position data provided as part of the command
049D72                   0962 ; as a relative position, adding the position given to the current
049D72                   0963 ; graphical cursor position. Codes 4-7 use the position data provided
049D72                   0964 ; as part of the command as an absolute position, setting the current
049D72                   0965 ; graphical cursor position to the position given.
049D72                   0966 
049D72                   0967 ; Codes 2 and 6 on Acorn systems plot using a logical inverse of the
049D72                   0968 ; current pixel colour. These operations cannot currently be supported
049D72                   0969 ; by the graphics system the Agon VDP uses, so these codes are not
049D72                   0970 ; supported. Support for these codes may be added in a future version
049D72                   0971 ; of the VDP firmware.
049D72                   0972 
049D72                   0973 ; 16 colour palette constants
049D72                   0974 c_black: equ 0
049D72                   0975 c_red_dk: equ 1
049D72                   0976 c_green_dk: equ 2
049D72                   0977 c_yellow_dk: equ 3
049D72                   0978 c_blue_dk: equ 4
049D72                   0979 c_magenta_dk: equ 5
049D72                   0980 c_cyan_dk: equ 6
049D72                   0981 c_grey: equ 7
049D72                   0982 c_grey_dk: equ 8
049D72                   0983 c_red: equ 9
049D72                   0984 c_green: equ 10
049D72                   0985 c_yellow: equ 11
049D72                   0986 c_blue: equ 12
049D72                   0987 c_magenta: equ 13
049D72                   0988 c_cyan: equ 14
049D72                   0989 c_white: equ 15
049D72                   0990 
049D72                   0991 ; VDU 25, mode, x; y;: PLOT command
049D72                   0992 ; inputs: a=mode, bc=x0, de=y0
049D72                   0993 vdu_plot:
049D72 32 8C 9D 04       0994     ld (@mode),a
049D76 ED 43 8D 9D 04    0995     ld (@x0),bc
049D7B ED 53 8F 9D 04    0996     ld (@y0),de
049D80 21 8B 9D 04       0997 	ld hl,@cmd
049D84 01 06 00 00       0998 	ld bc,@end-@cmd
049D88 5B DF             0999 	rst.lil $18
049D8A C9                1000 	ret
049D8B 19                1001 @cmd:   db 25
049D8C 00                1002 @mode:  db 0
049D8D 00 00             1003 @x0: 	dw 0
049D8F 00 00             1004 @y0: 	dw 0
049D91 00                1005 @end:   db 0 ; extra byte to soak up deu
049D92                   1006 
049D92                   1007 ; https://agonconsole8.github.io/agon-docs/VDP---PLOT-Commands.html
049D92                   1008 ; &E8-&EF 	232-239 	Bitmap plot 
049D92                   1009 ; VDU 25, mode, x; y;: PLOT command
049D92                   1010 ; inputs: bc=x0, de=y0
049D92                   1011 ; prerequisites: vdu_buff_select
049D92                   1012 vdu_plot_bmp:
049D92 ED 43 A9 9D 04    1013     ld (@x0),bc
049D97 ED 53 AB 9D 04    1014     ld (@y0),de
049D9C 21 A7 9D 04       1015 	ld hl,@cmd
049DA0 01 06 00 00       1016 	ld bc,@end-@cmd
049DA4 5B DF             1017 	rst.lil $18
049DA6 C9                1018 	ret
049DA7 19                1019 @cmd:   db 25
049DA8 ED                1020 @mode:  db plot_bmp+dr_abs_fg ; 0xED
049DA9 00 00             1021 @x0: 	dw 0x0000
049DAB 00 00             1022 @y0: 	dw 0x0000
049DAD 00                1023 @end:   db 0x00 ; padding
049DAE                   1024 
049DAE                   1025 ; https://agonconsole8.github.io/agon-docs/VDP---PLOT-Commands.html
049DAE                   1026 ; &E8-&EF 	232-239 	Bitmap plot 
049DAE                   1027 ; VDU 25, mode, x; y;: PLOT command
049DAE                   1028 ; inputs: bc=x0, de=y0
049DAE                   1029 ; USING 16.8 FIXED POINT COORDINATES
049DAE                   1030 ; inputs: ub.c is x coordinate, ud.e is y coordinate
049DAE                   1031 ;   the fractional portiion of the inputs are truncated
049DAE                   1032 ;   leaving only the 16-bit integer portion
049DAE                   1033 ; prerequisites: vdu_buff_select
049DAE                   1034 vdu_plot_bmp168:
049DAE                   1035 ; populate in the reverse of normal to keep the
049DAE                   1036 ; inputs from stomping on each other
049DAE ED 53 CC 9D 04    1037     ld (@y0-1),de
049DB3 ED 43 CA 9D 04    1038     ld (@x0-1),bc
049DB8 3E ED             1039     ld a,plot_bmp+dr_abs_fg ; 0xED
049DBA 32 CA 9D 04       1040     ld (@mode),a ; restore the mode byte that got stomped on by bcu
049DBE 21 C9 9D 04       1041 	ld hl,@cmd
049DC2 01 06 00 00       1042 	ld bc,@end-@cmd
049DC6 5B DF             1043 	rst.lil $18
049DC8 C9                1044 	ret
049DC9 19                1045 @cmd:   db 25
049DCA ED                1046 @mode:  db plot_bmp+dr_abs_fg ; 0xED
049DCB 00 00             1047 @x0: 	dw 0x0000
049DCD 00 00             1048 @y0: 	dw 0x0000
049DCF                   1049 @end:  ; no padding required b/c we shifted de right
049DCF                   1050 
049DCF                   1051 ; draw a filled rectangle
049DCF                   1052 vdu_plot_rf:
049DCF ED 43 F6 9D 04    1053     ld (@x0),bc
049DD4 ED 53 F8 9D 04    1054     ld (@y0),de
049DD9 DD 22 FC 9D 04    1055     ld (@x1),ix
049DDE FD 22 FE 9D 04    1056     ld (@y1),iy
049DE3 3E 19             1057     ld a,25 ; we have to reload the 2nd plot command
049DE5 32 FA 9D 04       1058     ld (@cmd1),a ; because the 24-bit y0 load stomped on it
049DE9 21 F4 9D 04       1059 	ld hl,@cmd0
049DED 01 0C 00 00       1060 	ld bc,@end-@cmd0
049DF1 5B DF             1061 	rst.lil $18
049DF3 C9                1062     ret
049DF4 19                1063 @cmd0:  db 25 ; plot
049DF5 04                1064 @arg0:  db plot_sl_both+mv_abs
049DF6 00 00             1065 @x0:    dw 0x0000
049DF8 00 00             1066 @y0:    dw 0x0000
049DFA 19                1067 @cmd1:  db 25 ; plot
049DFB 65                1068 @arg1:  db plot_rf+dr_abs_fg
049DFC 00 00             1069 @x1:    dw 0x0000
049DFE 00 00             1070 @y1:    dw 0x0000
049E00 00                1071 @end:   db 0x00 ; padding
049E01                   1072 
049E01                   1073 ; draw a filled circle
049E01                   1074 vdu_plot_cf:
049E01 ED 43 28 9E 04    1075     ld (@x0),bc
049E06 ED 53 2A 9E 04    1076     ld (@y0),de
049E0B DD 22 2E 9E 04    1077     ld (@x1),ix
049E10 FD 22 30 9E 04    1078     ld (@y1),iy
049E15 3E 19             1079     ld a,25 ; we have to reload the 2nd plot command
049E17 32 2C 9E 04       1080     ld (@cmd1),a ; because the 24-bit y0 load stomped on it
049E1B 21 26 9E 04       1081 	ld hl,@cmd0
049E1F 01 0C 00 00       1082 	ld bc,@end-@cmd0
049E23 5B DF             1083 	rst.lil $18
049E25 C9                1084     ret
049E26 19                1085 @cmd0:  db 25 ; plot
049E27 04                1086 @arg0:  db plot_sl_both+mv_abs
049E28 00 00             1087 @x0:    dw 0x0000
049E2A 00 00             1088 @y0:    dw 0x0000
049E2C 19                1089 @cmd1:  db 25 ; plot
049E2D 9D                1090 @arg1:  db plot_cf+dr_abs_fg
049E2E 00 00             1091 @x1:    dw 0x0000
049E30 00 00             1092 @y1:    dw 0x0000
049E32 00                1093 @end:   db 0x00 ; padding
049E33                   1094 
049E33                   1095 ; #### from vdu_sprites.asm ####
049E33                   1096 ; ; https://github.com/AgonConsole8/agon-docs/blob/main/VDP---Bitmaps-API.md
049E33                   1097 ; the VDP can support up to 256 sprites. They must be defined
049E33                   1098 ; contiguously, and so the first sprite is sprite 0.
049E33                   1099 ; (In contrast, bitmaps can have any ID from 0 to 65534.)
049E33                   1100 ; Once a selection of sprites have been defined, you can activate
049E33                   1101 ; them using the VDU 23, 27, 7, n command, where n is the number
049E33                   1102 ; of sprites to activate. This will activate the first n sprites,
049E33                   1103 ; starting with sprite 0. All sprites from 0 to n-1 must be defined.
049E33                   1104 
049E33                   1105 ; A single sprite can have multiple "frames", referring to
049E33                   1106 ; different bitmaps.
049E33                   1107 ; (These bitmaps do not need to be the same size.)
049E33                   1108 ; This allows a sprite to include an animation sequence,
049E33                   1109 ; which can be stepped through one frame at a time, or picked
049E33                   1110 ; in any order.
049E33                   1111 
049E33                   1112 ; Any format of bitmap can be used as a sprite frame. It should
049E33                   1113 ; be noted however that "native" format bitmaps are not
049E33                   1114 ; recommended for use as sprite frames, as they cannot get
049E33                   1115 ; erased from the screen. (As noted above, the "native" bitmap
049E33                   1116 ; format is not really intended for general use.) This is part
049E33                   1117 ; of why from Agon Console8 VDP 2.6.0 bitmaps captured from the
049E33                   1118 ; screen are now stored in RGBA2222 format.
049E33                   1119 
049E33                   1120 ; An "active" sprite can be hidden, so it will stop being drawn,
049E33                   1121 ; and then later shown again.
049E33                   1122 
049E33                   1123 ; Moving sprites around the screen is done by changing the
049E33                   1124 ; position of the sprite. This can be done either by setting
049E33                   1125 ; the absolute position of the sprite, or by moving the sprite
049E33                   1126 ; by a given number of pixels. (Sprites are positioned using
049E33                   1127 ; pixel coordinates, and not by the logical OS coordinate system.)
049E33                   1128 ; In the current sprite system, sprites will not update their
049E33                   1129 ; position on-screen until either another drawing operation is
049E33                   1130 ; performed or an explicit VDU 23, 27, 15 command is performed.
049E33                   1131 
049E33                   1132 ; Here are the sprite commands:
049E33                   1133 ;
049E33                   1134 ; VDU 23, 27, 4,  n: Select sprite n
049E33                   1135 ; inputs: a is the 8-bit sprite id
049E33                   1136 ; vdu_sprite_select:
049E33                   1137 
049E33                   1138 ; VDU 23, 27, 5:  Clear frames in current sprite
049E33                   1139 ; inputs: none
049E33                   1140 ; prerequisites: vdu_sprite_select
049E33                   1141 ; vdu_sprite_clear_frames:
049E33                   1142 
049E33                   1143 ; VDU 23, 27, 6,  n: Add bitmap n as a frame to current sprite (where bitmap's buffer ID is 64000+n)
049E33                   1144 ; inputs: a is the 8-bit bitmap number
049E33                   1145 ; prerequisites: vdu_sprite_select
049E33                   1146 ; vdu_sprite_add_bmp:
049E33                   1147 
049E33                   1148 ; VDU 23, 27, 7,  n: Activate n sprites
049E33                   1149 ; inputs: a is the number of sprites to activate
049E33                   1150 ; vdu_sprite_activate:
049E33                   1151 
049E33                   1152 ; VDU 23, 27, 8:  Select next frame of current sprite
049E33                   1153 ; inputs: none
049E33                   1154 ; prerequisites: vdu_sprite_select
049E33                   1155 ; vdu_sprite_next_frame:
049E33                   1156 
049E33                   1157 ; VDU 23, 27, 9:  Select previous frame of current sprite
049E33                   1158 ; inputs: none
049E33                   1159 ; prerequisites: vdu_sprite_select
049E33                   1160 ; vdu_sprite_prev_frame:
049E33                   1161 
049E33                   1162 ; VDU 23, 27, 10, n: Select the nth frame of current sprite
049E33                   1163 ; inputs: a is frame number to select
049E33                   1164 ; prerequisites: vdu_sprite_select
049E33                   1165 ; vdu_sprite_select_frame:
049E33                   1166 
049E33                   1167 ; VDU 23, 27, 11: Show current sprite
049E33                   1168 ; inputs: none
049E33                   1169 ; prerequisites: vdu_sprite_select
049E33                   1170 ; vdu_sprite_show:
049E33                   1171 
049E33                   1172 ; VDU 23, 27, 12: Hide current sprite
049E33                   1173 ; inputs: none
049E33                   1174 ; prerequisites: vdu_sprite_select
049E33                   1175 ; vdu_sprite_hide:
049E33                   1176 
049E33                   1177 ; VDU 23, 27, 13, x; y;: Move current sprite to pixel position x, y
049E33                   1178 ; inputs: bc is x coordinate, de is y coordinate
049E33                   1179 ; prerequisites: vdu_sprite_select
049E33                   1180 ; vdu_sprite_move_abs:
049E33                   1181 ;
049E33                   1182 ; USING 16.8 FIXED POINT COORDINATES
049E33                   1183 ; inputs: ub.c is x coordinate, ud.e is y coordinate
049E33                   1184 ;   the fractional portiion of the inputs are truncated
049E33                   1185 ;   leaving only the 16-bit integer portion
049E33                   1186 ; prerequisites: vdu_sprite_select
049E33                   1187 ; vdu_sprite_move_abs168:
049E33                   1188 
049E33                   1189 ; VDU 23, 27, 14, x; y;: Move current sprite by x, y pixels
049E33                   1190 ; inputs: bc is x coordinate, de is y coordinate
049E33                   1191 ; prerequisites: vdu_sprite_select
049E33                   1192 ; vdu_sprite_move_rel:
049E33                   1193 ;
049E33                   1194 ; USING 16.8 FIXED POINT COORDINATES
049E33                   1195 ; inputs: ub.c is dx, ud.e is dy
049E33                   1196 ;   the fractional portiion of the inputs are truncated
049E33                   1197 ;   leaving only the 16-bit integer portion
049E33                   1198 ; prerequisites: vdu_sprite_select
049E33                   1199 ; vdu_sprite_move_rel168:
049E33                   1200 
049E33                   1201 ; VDU 23, 27, 15: Update the sprites in the GPU
049E33                   1202 ; inputs: none
049E33                   1203 ; vdu_sprite_update:
049E33                   1204 
049E33                   1205 ; VDU 23, 27, 16: Reset bitmaps and sprites and clear all data
049E33                   1206 ; inputs: none
049E33                   1207 ; vdu_sprite_bmp_reset:
049E33                   1208 
049E33                   1209 ; VDU 23, 27, 17: Reset sprites (only) and clear all data
049E33                   1210 ; inputs: none
049E33                   1211 ; vdu_sprite_reset:
049E33                   1212 
049E33                   1213 ; VDU 23, 27, 18, n: Set the current sprite GCOL paint mode to n **
049E33                   1214 ; inputs: a is the GCOL paint mode
049E33                   1215 ; prerequisites: vdu_sprite_select
049E33                   1216 ; vdu_sprite_set_gcol:
049E33                   1217 
049E33                   1218 ; VDU 23, 27, &26, n;: Add bitmap n as a frame to current sprite using a 16-bit buffer ID
049E33                   1219 ; inputs: hl=bufferId
049E33                   1220 ; prerequisites: vdu_sprite_select
049E33                   1221 ; vdu_sprite_add_buff:
049E33                   1222 
049E33                   1223 @dummy_label: ; dummy label to serve as a break from the above comments and the below code
049E33                   1224 
049E33                   1225 ; VDU 23, 27, 4, n: Select sprite n
049E33                   1226 ; inputs: a is the 8-bit sprite id
049E33                   1227 vdu_sprite_select:
049E33 32 45 9E 04       1228     ld (@sprite),a
049E37 21 42 9E 04       1229     ld hl,@cmd
049E3B 01 04 00 00       1230     ld bc,@end-@cmd
049E3F 5B DF             1231     rst.lil $18
049E41 C9                1232     ret
049E42 17 1B 04          1233 @cmd:    db 23,27,4
049E45 00                1234 @sprite: db 0x00
049E46                   1235 @end:
049E46                   1236 
049E46                   1237 ; VDU 23, 27, 5: Clear frames in current sprite
049E46                   1238 ; inputs: none
049E46                   1239 ; prerequisites: vdu_sprite_select
049E46                   1240 vdu_sprite_clear_frames:
049E46 21 51 9E 04       1241     ld hl,@cmd
049E4A 01 03 00 00       1242     ld bc,@end-@cmd
049E4E 5B DF             1243     rst.lil $18
049E50 C9                1244     ret
049E51 17 1B 05          1245 @cmd: db 23,27,5
049E54                   1246 @end:
049E54                   1247 
049E54                   1248 ; VDU 23, 27, 6, n: Add bitmap n as a frame to current sprite (where bitmap's buffer ID is 64000+n)
049E54                   1249 ; inputs: a is the 8-bit bitmap number
049E54                   1250 ; prerequisites: vdu_sprite_select
049E54                   1251 vdu_sprite_add_bmp:
049E54 32 66 9E 04       1252     ld (@bmp),a
049E58 21 63 9E 04       1253     ld hl,@cmd
049E5C 01 04 00 00       1254     ld bc,@end-@cmd
049E60 5B DF             1255     rst.lil $18
049E62 C9                1256     ret
049E63 17 1B 06          1257 @cmd: db 23,27,6
049E66 00                1258 @bmp: db 0x00
049E67                   1259 @end:
049E67                   1260 
049E67                   1261 ; VDU 23, 27, 7, n: Activate n sprites
049E67                   1262 ; inputs: a is the number of sprites to activate
049E67                   1263 vdu_sprite_activate:
049E67 32 79 9E 04       1264     ld (@num),a
049E6B 21 76 9E 04       1265     ld hl,@cmd
049E6F 01 04 00 00       1266     ld bc,@end-@cmd
049E73 5B DF             1267     rst.lil $18
049E75 C9                1268     ret
049E76 17 1B 07          1269 @cmd: db 23,27,7
049E79 00                1270 @num: db 0x00
049E7A                   1271 @end:
049E7A                   1272 
049E7A                   1273 ; VDU 23, 27, 8: Select next frame of current sprite
049E7A                   1274 ; inputs: none
049E7A                   1275 ; prerequisites: vdu_sprite_select
049E7A                   1276 vdu_sprite_next_frame:
049E7A 21 85 9E 04       1277     ld hl,@cmd
049E7E 01 03 00 00       1278     ld bc,@end-@cmd
049E82 5B DF             1279     rst.lil $18
049E84 C9                1280     ret
049E85 17 1B 08          1281 @cmd: db 23,27,8
049E88                   1282 @end:
049E88                   1283 
049E88                   1284 ; VDU 23, 27, 9: Select previous frame of current sprite
049E88                   1285 ; inputs: none
049E88                   1286 ; prerequisites: vdu_sprite_select
049E88                   1287 vdu_sprite_prev_frame:
049E88 21 93 9E 04       1288     ld hl,@cmd
049E8C 01 03 00 00       1289     ld bc,@end-@cmd
049E90 5B DF             1290     rst.lil $18
049E92 C9                1291     ret
049E93 17 1B 09          1292 @cmd: db 23,27,9
049E96                   1293 @end:
049E96                   1294 
049E96                   1295 ; VDU 23, 27, 10, n: Select the nth frame of current sprite
049E96                   1296 ; inputs: a is frame number to select
049E96                   1297 ; prerequisites: vdu_sprite_select
049E96                   1298 vdu_sprite_select_frame:
049E96 32 A8 9E 04       1299     ld (@frame),a
049E9A 21 A5 9E 04       1300     ld hl,@cmd
049E9E 01 04 00 00       1301     ld bc,@end-@cmd
049EA2 5B DF             1302     rst.lil $18
049EA4 C9                1303     ret
049EA5 17 1B 0A          1304 @cmd:    db 23,27,10
049EA8 00                1305 @frame:  db 0x00
049EA9                   1306 @end:
049EA9                   1307 
049EA9                   1308 ; VDU 23, 27, 11: Show current sprite
049EA9                   1309 ; inputs: none
049EA9                   1310 ; prerequisites: vdu_sprite_select
049EA9                   1311 vdu_sprite_show:
049EA9 21 B4 9E 04       1312     ld hl,@cmd
049EAD 01 03 00 00       1313     ld bc,@end-@cmd
049EB1 5B DF             1314     rst.lil $18
049EB3 C9                1315     ret
049EB4 17 1B 0B          1316 @cmd: db 23,27,11
049EB7                   1317 @end:
049EB7                   1318 
049EB7                   1319 ; VDU 23, 27, 12: Hide current sprite
049EB7                   1320 ; inputs: none
049EB7                   1321 ; prerequisites: vdu_sprite_select
049EB7                   1322 vdu_sprite_hide:
049EB7 21 C2 9E 04       1323     ld hl,@cmd
049EBB 01 03 00 00       1324     ld bc,@end-@cmd
049EBF 5B DF             1325     rst.lil $18
049EC1 C9                1326     ret
049EC2 17 1B 0C          1327 @cmd: db 23,27,12
049EC5                   1328 @end:
049EC5                   1329 
049EC5                   1330 ; VDU 23, 27, 13, x; y;: Move current sprite to pixel position x, y
049EC5                   1331 ; inputs: bc is x coordinate, de is y coordinate
049EC5                   1332 ; prerequisites: vdu_sprite_select
049EC5                   1333 vdu_sprite_move_abs:
049EC5 ED 43 DD 9E 04    1334     ld (@xpos),bc
049ECA ED 53 DF 9E 04    1335     ld (@ypos),de
049ECF 21 DA 9E 04       1336     ld hl,@cmd
049ED3 01 07 00 00       1337     ld bc,@end-@cmd
049ED7 5B DF             1338     rst.lil $18
049ED9 C9                1339     ret
049EDA 17 1B 0D          1340 @cmd:  db 23,27,13
049EDD 00 00             1341 @xpos: dw 0x0000
049EDF 00 00             1342 @ypos: dw 0x0000
049EE1 00                1343 @end:  db 0x00 ; padding
049EE2                   1344 
049EE2                   1345 ; VDU 23, 27, 14, x; y;: Move current sprite by x, y pixels
049EE2                   1346 ; inputs: bc is x coordinate, de is y coordinate
049EE2                   1347 ; prerequisites: vdu_sprite_select
049EE2                   1348 vdu_sprite_move_rel:
049EE2 ED 43 FA 9E 04    1349     ld (@dx),bc
049EE7 ED 53 FC 9E 04    1350     ld (@dy),de
049EEC 21 F7 9E 04       1351     ld hl,@cmd
049EF0 01 07 00 00       1352     ld bc,@end-@cmd
049EF4 5B DF             1353     rst.lil $18
049EF6 C9                1354     ret
049EF7 17 1B 0E          1355 @cmd: db 23,27,14
049EFA 00 00             1356 @dx:  dw 0x0000
049EFC 00 00             1357 @dy:  dw 0x0000
049EFE 00                1358 @end: db 0x00 ; padding
049EFF                   1359 
049EFF                   1360 ; VDU 23, 27, 13, x; y;: Move current sprite to pixel position x, y
049EFF                   1361 ; USING 16.8 FIXED POINT COORDINATES
049EFF                   1362 ; inputs: ub.c is x coordinate, ud.e is y coordinate
049EFF                   1363 ;   the fractional portiion of the inputs are truncated
049EFF                   1364 ;   leaving only the 16-bit integer portion
049EFF                   1365 ; prerequisites: vdu_sprite_select
049EFF                   1366 vdu_sprite_move_abs168:
049EFF                   1367 ; populate in the reverse of normal to keep the
049EFF                   1368 ; inputs from stomping on each other
049EFF ED 53 1E 9F 04    1369     ld (@ypos-1),de
049F04 ED 43 1C 9F 04    1370     ld (@xpos-1),bc
049F09 3E 0D             1371     ld a,13       ; restore the final byte of the command
049F0B 32 1C 9F 04       1372     ld (@cmd+2),a ; string that got stomped on by bcu
049F0F 21 1A 9F 04       1373     ld hl,@cmd
049F13 01 07 00 00       1374     ld bc,@end-@cmd
049F17 5B DF             1375     rst.lil $18
049F19 C9                1376     ret
049F1A 17 1B 0D          1377 @cmd:  db 23,27,13
049F1D 00 00             1378 @xpos: dw 0x0000
049F1F 00 00             1379 @ypos: dw 0x0000
049F21                   1380 @end:  ; no padding required b/c we shifted de right
049F21                   1381 
049F21                   1382 ; VDU 23, 27, 14, x; y;: Move current sprite by x, y pixels
049F21                   1383 ; USING 16.8 FIXED POINT COORDINATES
049F21                   1384 ; inputs: ub.c is dx, ud.e is dy
049F21                   1385 ;   the fractional portiion of the inputs are truncated
049F21                   1386 ;   leaving only the 16-bit integer portion
049F21                   1387 ; prerequisites: vdu_sprite_select
049F21                   1388 vdu_sprite_move_rel168:
049F21                   1389 ; populate in the reverse of normal to keep the
049F21                   1390 ; inputs from stomping on each other
049F21 ED 53 40 9F 04    1391     ld (@dy-1),de
049F26 ED 43 3E 9F 04    1392     ld (@dx-1),bc
049F2B 3E 0E             1393     ld a,14       ; restore the final byte of the command
049F2D 32 3E 9F 04       1394     ld (@cmd+2),a ; string that got stomped on by bcu
049F31 21 3C 9F 04       1395     ld hl,@cmd
049F35 01 07 00 00       1396     ld bc,@end-@cmd
049F39 5B DF             1397     rst.lil $18
049F3B C9                1398     ret
049F3C 17 1B 0E          1399 @cmd:  db 23,27,14
049F3F 00 00             1400 @dx: dw 0x0000
049F41 00 00             1401 @dy: dw 0x0000
049F43                   1402 @end:  ; no padding required b/c we shifted de right
049F43                   1403 
049F43                   1404 ; VDU 23, 27, 15: Update the sprites in the GPU
049F43                   1405 ; inputs: none
049F43                   1406 vdu_sprite_update:
049F43 21 4E 9F 04       1407     ld hl,@cmd
049F47 01 03 00 00       1408     ld bc,@end-@cmd
049F4B 5B DF             1409     rst.lil $18
049F4D C9                1410     ret
049F4E 17 1B 0F          1411 @cmd: db 23,27,15
049F51                   1412 @end:
049F51                   1413 
049F51                   1414 ; VDU 23, 27, 16: Reset bitmaps and sprites and clear all data
049F51                   1415 ; inputs: none
049F51                   1416 vdu_sprite_bmp_reset:
049F51 21 5C 9F 04       1417     ld hl,@cmd
049F55 01 03 00 00       1418     ld bc,@end-@cmd
049F59 5B DF             1419     rst.lil $18
049F5B C9                1420     ret
049F5C 17 1B 10          1421 @cmd: db 23,27,16
049F5F                   1422 @end:
049F5F                   1423 
049F5F                   1424 ; VDU 23, 27, 17: Reset sprites (only) and clear all data
049F5F                   1425 ; inputs: none
049F5F                   1426 vdu_sprite_reset:
049F5F 21 6A 9F 04       1427     ld hl,@cmd
049F63 01 03 00 00       1428     ld bc,@end-@cmd
049F67 5B DF             1429     rst.lil $18
049F69 C9                1430     ret
049F6A 17 1B 11          1431 @cmd: db 23,27,17
049F6D                   1432 @end:
049F6D                   1433 
049F6D                   1434 ; VDU 23, 27, 18, n: Set the current sprite GCOL paint mode to n **
049F6D                   1435 ; inputs: a is the GCOL paint mode
049F6D                   1436 ; prerequisites: vdu_sprite_select
049F6D                   1437 vdu_sprite_set_gcol:
049F6D 32 7F 9F 04       1438     ld (@mode),a
049F71 21 7C 9F 04       1439     ld hl,@cmd
049F75 01 04 00 00       1440     ld bc,@end-@cmd
049F79 5B DF             1441     rst.lil $18
049F7B C9                1442     ret
049F7C 17 1B 12          1443 @cmd:  db 23,27,18
049F7F 00                1444 @mode: db 0x00
049F80                   1445 @end:
049F80                   1446 
049F80                   1447 ; VDU 23, 27, &26, n;: Add bitmap bufferId
049F80                   1448 ;     as a frame to current sprite using a 16-bit buffer ID
049F80                   1449 ; inputs: hl=bufferId
049F80                   1450 ; prerequisites: vdu_sprite_select
049F80                   1451 vdu_sprite_add_buff:
049F80 22 92 9F 04       1452     ld (@bufferId),hl
049F84 21 8F 9F 04       1453     ld hl,@cmd
049F88 01 05 00 00       1454     ld bc,@end-@cmd
049F8C 5B DF             1455     rst.lil $18
049F8E C9                1456     ret
049F8F 17 1B 26          1457 @cmd:      db 23,27,0x26
049F92 00 00             1458 @bufferId: dw 0x0000
049F94 00                1459 @end:      db 0x00 ; padding
049F95                   0031     include "src/asm/functions.asm"
049F95                   0001 ; https://github.com/envenomator/Agon/blob/master/ez80asm%20examples%20(annotated)/functions.s
049F95                   0002 ; Print a zero-terminated string
049F95                   0003 ; HL: Pointer to string
049F95                   0004 printString:
049F95 C5                0005 	PUSH	BC
049F96 01 00 00 00       0006 	LD		BC,0
049F9A 3E 00             0007 	LD 	 	A,0
049F9C 5B DF             0008 	RST.LIL 18h
049F9E C1                0009 	POP		BC
049F9F C9                0010 	RET
049FA0                   0011 ; print a VDU sequence
049FA0                   0012 ; HL: Pointer to VDU sequence - <1 byte length> <data>
049FA0                   0013 sendVDUsequence:
049FA0 C5                0014 	PUSH	BC
049FA1 01 00 00 00       0015 	LD		BC, 0
049FA5 4E                0016 	LD		C, (HL)
049FA6 5B DF             0017 	RST.LIL	18h
049FA8 C1                0018 	POP		BC
049FA9 C9                0019 	RET
049FAA                   0020 ; Print Newline sequence to VDP
049FAA                   0021 printNewline:
049FAA 3E 0D             0022 	LD	A, '\r'
049FAC 5B D7             0023 	RST.LIL 10h
049FAE 3E 0A             0024 	LD	A, '\n'
049FB0 5B D7             0025 	RST.LIL 10h
049FB2 C9                0026 	RET
049FB3                   0027 ; Print a 24-bit HEX number
049FB3                   0028 ; HLU: Number to print
049FB3                   0029 printHex24:
049FB3 E5                0030 	PUSH	HL
049FB4 21 02 00 00       0031 	LD		HL, 2
049FB8 39                0032 	ADD		HL, SP
049FB9 7E                0033 	LD		A, (HL)
049FBA E1                0034 	POP		HL
049FBB CD C5 9F 04       0035 	CALL	printHex8
049FBF                   0036 ; Print a 16-bit HEX number
049FBF                   0037 ; HL: Number to print
049FBF                   0038 printHex16:
049FBF 7C                0039 	LD		A,H
049FC0 CD C5 9F 04       0040 	CALL	printHex8
049FC4 7D                0041 	LD		A,L
049FC5                   0042 ; Print an 8-bit HEX number
049FC5                   0043 ; A: Number to print
049FC5                   0044 printHex8:
049FC5 4F                0045 	LD		C,A
049FC6 1F                0046 	RRA
049FC7 1F                0047 	RRA
049FC8 1F                0048 	RRA
049FC9 1F                0049 	RRA
049FCA CD CF 9F 04       0050 	CALL	@F
049FCE 79                0051 	LD		A,C
049FCF                   0052 @@:
049FCF E6 0F             0053 	AND		0Fh
049FD1 C6 90             0054 	ADD		A,90h
049FD3 27                0055 	DAA
049FD4 CE 40             0056 	ADC		A,40h
049FD6 27                0057 	DAA
049FD7 5B D7             0058 	RST.LIL	10h
049FD9 C9                0059 	RET
049FDA                   0060 
049FDA                   0061 ; Print a 0x HEX prefix
049FDA                   0062 DisplayHexPrefix:
049FDA 3E 30             0063 	LD	A, '0'
049FDC 5B D7             0064 	RST.LIL 10h
049FDE 3E 78             0065 	LD	A, 'x'
049FE0 5B D7             0066 	RST.LIL 10h
049FE2 C9                0067 	RET
049FE3                   0068 
049FE3                   0069 ; Prints the decimal value in HL without leading zeroes
049FE3                   0070 ; HL : Value to print
049FE3                   0071 printDec:
049FE3 11 F4 9F 04       0072 	LD	 DE, _printDecBuffer
049FE7 CD FD 9F 04       0073 	CALL Num2String
049FEB 21 F4 9F 04       0074 	LD	 HL, _printDecBuffer
049FEF CD 95 9F 04       0075 	CALL printString
049FF3 C9                0076 	RET
049FF4                   0077 _printDecBuffer:
049FF4 00 00 00 00 00 00 0078 	DS 9
       00 00 00          
049FFD                   0079 ; This routine converts the value from HL into it's ASCII representation,
049FFD                   0080 ; starting to memory location pointing by DE, in decimal form and with trailing zeroes
049FFD                   0081 ; so it will allways be 5 characters length
049FFD                   0082 ; HL : Value to convert to string
049FFD                   0083 ; DE : pointer to buffer, at least 8 byte + 0
049FFD                   0084 Num2String:
049FFD D5                0085 	PUSH DE
049FFE CD 1C A0 04       0086 	CALL Num2String_worker
04A002 3E 00             0087 	LD	 A, 0
04A004 12                0088 	LD	 (DE), A	; terminate string
04A005 D1                0089 	POP  DE
04A006 D5                0090 	PUSH DE
04A007                   0091 @findfirstzero:
04A007 1A                0092 	LD	 A, (DE)
04A008 FE 30             0093 	CP	 '0'
04A00A 20 03             0094 	JR	 NZ, @done
04A00C 13                0095 	INC  DE
04A00D 18 F8             0096 	JR	 @findfirstzero
04A00F                   0097 @done:
04A00F B7                0098 	OR	 A	; end-of-string reached / was the value 0?
04A010 20 01             0099 	JR	 NZ, @removezeroes
04A012 1B                0100 	DEC  DE
04A013                   0101 @removezeroes:
04A013 E1                0102 	POP	 HL	; start of string, DE == start of first number
04A014                   0103 @copydigit:
04A014 1A                0104 	LD	A, (DE)
04A015 77                0105 	LD	(HL), A
04A016 B7                0106 	OR  A
04A017 C8                0107 	RET	Z
04A018 23                0108 	INC	HL
04A019 13                0109 	INC DE
04A01A 18 F8             0110 	JR	@copydigit
04A01C                   0111 
04A01C                   0112 Num2String_worker:
04A01C 01 80 69 67       0113 	LD	 BC,-10000000
04A020 CD 53 A0 04       0114 	CALL OneDigit
04A024 01 C0 BD F0       0115 	LD	 BC,-1000000
04A028 CD 53 A0 04       0116 	CALL OneDigit
04A02C 01 60 79 FE       0117 	LD	 BC,-100000
04A030 CD 53 A0 04       0118 	CALL OneDigit
04A034 01 F0 D8 FF       0119 	LD   BC,-10000
04A038 CD 53 A0 04       0120 	CALL OneDigit
04A03C 01 18 FC FF       0121 	LD   BC,-1000
04A040 CD 53 A0 04       0122 	CALL OneDigit
04A044 01 9C FF FF       0123 	LD   BC,-100
04A048 CD 53 A0 04       0124 	CALL OneDigit
04A04C 0E F6             0125 	LD   C,-10
04A04E CD 53 A0 04       0126 	CALL OneDigit
04A052 48                0127 	LD   C,B
04A053                   0128 OneDigit:
04A053 3E 2F             0129 	LD   A,'0'-1
04A055                   0130 DivideMe:
04A055 3C                0131 	INC  A
04A056 09                0132 	ADD  HL,BC
04A057 38 FC             0133 	JR   C,DivideMe
04A059 ED 42             0134 	SBC  HL,BC
04A05B 12                0135 	LD   (DE),A
04A05C 13                0136 	INC  DE
04A05D C9                0137 	RET
04A05E                   0138 
04A05E                   0139 
04A05E                   0140 ; #### new functions added by Brandon R. Gates ####
04A05E                   0141 
04A05E                   0142 ; print the binary representation of the 8-bit value in a
04A05E                   0143 ; destroys a, hl, bc
04A05E                   0144 printBin8:
04A05E 06 08             0145     ld b,8      ; loop counter for 8 bits
04A060 21 7B A0 04       0146     ld hl,@cmd  ; set hl to the low byte of the output string
04A064                   0147                 ; (which will be the high bit of the value in a)
04A064                   0148 @loop:
04A064 07                0149     rlca ; put the next highest bit into carry
04A065 38 04             0150     jr c,@one
04A067 36 30             0151     ld (hl),'0'
04A069 18 02             0152     jr @next_bit
04A06B                   0153 @one:
04A06B 36 31             0154     ld (hl),'1'
04A06D                   0155 @next_bit:
04A06D 23                0156     inc hl
04A06E 10 F4             0157     djnz @loop
04A070                   0158 ; print it
04A070 21 7B A0 04       0159 	ld hl,@cmd
04A074 01 08 00 00       0160 	ld bc,@end-@cmd
04A078 5B DF             0161 	rst.lil $18
04A07A C9                0162 	ret
04A07B 00 00 00 00 00 00 0163 @cmd: ds 8 ; eight bytes for eight bits
       00 00             
04A083                   0164 @end:
04A083                   0165 
04A083                   0166 ; print registers to screen in hexidecimal format
04A083                   0167 ; inputs: none
04A083                   0168 ; outputs: values of every register printed to screen
04A083                   0169 ;    values of each register in global scratch memory
04A083                   0170 ; destroys: nothing
04A083                   0171 stepRegistersHex:
04A083                   0172 ; store everything in scratch
04A083 22 86 A2 04       0173     ld (uhl),hl
04A087 ED 43 89 A2 04    0174     ld (ubc),bc
04A08C ED 53 8C A2 04    0175     ld (ude),de
04A091 DD 22 8F A2 04    0176     ld (uix),ix
04A096 FD 22 92 A2 04    0177     ld (uiy),iy
04A09B F5                0178     push af ; fml
04A09C E1                0179     pop hl  ; thanks, zilog
04A09D 22 83 A2 04       0180     ld (uaf),hl
04A0A1 F5                0181     push af ; dammit
04A0A2                   0182 
04A0A2                   0183 ; home the cursor
04A0A2 CD 90 9B 04       0184     call vdu_home_cursor
04A0A6                   0185 
04A0A6                   0186 ; print each register
04A0A6 21 0F A2 04       0187     ld hl,str_afu
04A0AA CD 95 9F 04       0188     call printString
04A0AE 2A 83 A2 04       0189     ld hl,(uaf)
04A0B2 CD B3 9F 04       0190     call printHex24
04A0B6 CD AA 9F 04       0191     call printNewline
04A0BA                   0192 
04A0BA 21 13 A2 04       0193     ld hl,str_hlu
04A0BE CD 95 9F 04       0194     call printString
04A0C2 2A 86 A2 04       0195     ld hl,(uhl)
04A0C6 CD B3 9F 04       0196     call printHex24
04A0CA CD AA 9F 04       0197     call printNewline
04A0CE                   0198 
04A0CE 21 17 A2 04       0199     ld hl,str_bcu
04A0D2 CD 95 9F 04       0200     call printString
04A0D6 2A 89 A2 04       0201     ld hl,(ubc)
04A0DA CD B3 9F 04       0202     call printHex24
04A0DE CD AA 9F 04       0203     call printNewline
04A0E2                   0204 
04A0E2 21 1B A2 04       0205     ld hl,str_deu
04A0E6 CD 95 9F 04       0206     call printString
04A0EA 2A 8C A2 04       0207     ld hl,(ude)
04A0EE CD B3 9F 04       0208     call printHex24
04A0F2 CD AA 9F 04       0209     call printNewline
04A0F6                   0210 
04A0F6 21 1F A2 04       0211     ld hl,str_ixu
04A0FA CD 95 9F 04       0212     call printString
04A0FE 2A 8F A2 04       0213     ld hl,(uix)
04A102 CD B3 9F 04       0214     call printHex24
04A106 CD AA 9F 04       0215     call printNewline
04A10A                   0216 
04A10A 21 23 A2 04       0217     ld hl,str_iyu
04A10E CD 95 9F 04       0218     call printString
04A112 2A 92 A2 04       0219     ld hl,(uiy)
04A116 CD B3 9F 04       0220     call printHex24
04A11A CD AA 9F 04       0221     call printNewline
04A11E                   0222 
04A11E                   0223     ; call vsync
04A11E                   0224 
04A11E CD AA 9F 04       0225     call printNewline
04A122                   0226 
04A122                   0227 ; check for escape key and quit if pressed
04A122                   0228 	MOSCALL mos_getkbmap
04A122 3E 1E             0228 			LD	A, function
04A124 5B CF             0228 			RST.LIL	08h
04A126                   0229 @stayhere:
04A126                   0230 ; 113 Escape
04A126 DD CB 0E 46       0231     bit 0,(ix+14)
04A12A 20 02             0232     jr nz,@Escape
04A12C 18 F8             0233 	jr @stayhere
04A12E                   0234 @Escape:
04A12E DD CB 0E 86       0235     res 0,(ix+14) ; debounce the key (hopefully)
04A132 3E 80             0236     ld a,%10000000
04A134 CD FC A2 04       0237     call multiPurposeDelay
04A138                   0238 
04A138                   0239 ; restore everything
04A138 2A 86 A2 04       0240     ld hl, (uhl)
04A13C ED 4B 89 A2 04    0241     ld bc, (ubc)
04A141 ED 5B 8C A2 04    0242     ld de, (ude)
04A146 DD 2A 8F A2 04    0243     ld ix, (uix)
04A14B FD 2A 92 A2 04    0244     ld iy, (uiy)
04A150 F1                0245     pop af
04A151                   0246 ; all done
04A151 C9                0247     ret
04A152                   0248 
04A152                   0249 ; print registers to screen in hexidecimal format
04A152                   0250 ; inputs: none
04A152                   0251 ; outputs: values of every register printed to screen
04A152                   0252 ;    values of each register in global scratch memory
04A152                   0253 ; destroys: nothing
04A152                   0254 dumpRegistersHex:
04A152                   0255 ; store everything in scratch
04A152 22 86 A2 04       0256     ld (uhl),hl
04A156 ED 43 89 A2 04    0257     ld (ubc),bc
04A15B ED 53 8C A2 04    0258     ld (ude),de
04A160 DD 22 8F A2 04    0259     ld (uix),ix
04A165 FD 22 92 A2 04    0260     ld (uiy),iy
04A16A F5                0261     push af ; fml
04A16B E1                0262     pop hl  ; thanks, zilog
04A16C 22 83 A2 04       0263     ld (uaf),hl
04A170 F5                0264     push af ; dammit
04A171                   0265 
04A171                   0266 ; home the cursor
04A171 CD 90 9B 04       0267     call vdu_home_cursor
04A175                   0268 
04A175                   0269 ; print each register
04A175 21 0F A2 04       0270     ld hl,str_afu
04A179 CD 95 9F 04       0271     call printString
04A17D 2A 83 A2 04       0272     ld hl,(uaf)
04A181 CD B3 9F 04       0273     call printHex24
04A185 CD AA 9F 04       0274     call printNewline
04A189                   0275 
04A189 21 13 A2 04       0276     ld hl,str_hlu
04A18D CD 95 9F 04       0277     call printString
04A191 2A 86 A2 04       0278     ld hl,(uhl)
04A195 CD B3 9F 04       0279     call printHex24
04A199 CD AA 9F 04       0280     call printNewline
04A19D                   0281 
04A19D 21 17 A2 04       0282     ld hl,str_bcu
04A1A1 CD 95 9F 04       0283     call printString
04A1A5 2A 89 A2 04       0284     ld hl,(ubc)
04A1A9 CD B3 9F 04       0285     call printHex24
04A1AD CD AA 9F 04       0286     call printNewline
04A1B1                   0287 
04A1B1 21 1B A2 04       0288     ld hl,str_deu
04A1B5 CD 95 9F 04       0289     call printString
04A1B9 2A 8C A2 04       0290     ld hl,(ude)
04A1BD CD B3 9F 04       0291     call printHex24
04A1C1 CD AA 9F 04       0292     call printNewline
04A1C5                   0293 
04A1C5 21 1F A2 04       0294     ld hl,str_ixu
04A1C9 CD 95 9F 04       0295     call printString
04A1CD 2A 8F A2 04       0296     ld hl,(uix)
04A1D1 CD B3 9F 04       0297     call printHex24
04A1D5 CD AA 9F 04       0298     call printNewline
04A1D9                   0299 
04A1D9 21 23 A2 04       0300     ld hl,str_iyu
04A1DD CD 95 9F 04       0301     call printString
04A1E1 2A 92 A2 04       0302     ld hl,(uiy)
04A1E5 CD B3 9F 04       0303     call printHex24
04A1E9 CD AA 9F 04       0304     call printNewline
04A1ED                   0305 
04A1ED CD B2 9C 04       0306     call vdu_vblank
04A1F1                   0307 
04A1F1 CD AA 9F 04       0308     call printNewline
04A1F5                   0309 ; restore everything
04A1F5 2A 86 A2 04       0310     ld hl, (uhl)
04A1F9 ED 4B 89 A2 04    0311     ld bc, (ubc)
04A1FE ED 5B 8C A2 04    0312     ld de, (ude)
04A203 DD 2A 8F A2 04    0313     ld ix, (uix)
04A208 FD 2A 92 A2 04    0314     ld iy, (uiy)
04A20D F1                0315     pop af
04A20E                   0316 ; all done
04A20E C9                0317     ret
04A20F                   0318 
04A20F 61 66 3D 00       0319 str_afu: db "af=",0
04A213 68 6C 3D 00       0320 str_hlu: db "hl=",0
04A217 62 63 3D 00       0321 str_bcu: db "bc=",0
04A21B 64 65 3D 00       0322 str_deu: db "de=",0
04A21F 69 78 3D 00       0323 str_ixu: db "ix=",0
04A223 69 79 3D 00       0324 str_iyu: db "iy=",0
04A227                   0325 
04A227                   0326 ; print udeuhl to screen in hexidecimal format
04A227                   0327 ; inputs: none
04A227                   0328 ; outputs: concatenated hexidecimal udeuhl
04A227                   0329 ; destroys: nothing
04A227                   0330 dumpUDEUHLHex:
04A227                   0331 ; store everything in scratch
04A227 22 86 A2 04       0332     ld (uhl),hl
04A22B ED 43 89 A2 04    0333     ld (ubc),bc
04A230 ED 53 8C A2 04    0334     ld (ude),de
04A235 DD 22 8F A2 04    0335     ld (uix),ix
04A23A FD 22 92 A2 04    0336     ld (uiy),iy
04A23F F5                0337     push af
04A240                   0338 
04A240                   0339 ; print each register
04A240                   0340 
04A240 21 7A A2 04       0341     ld hl,str_udeuhl
04A244 CD 95 9F 04       0342     call printString
04A248 2A 8C A2 04       0343     ld hl,(ude)
04A24C CD B3 9F 04       0344     call printHex24
04A250 3E 2E             0345 	ld a,'.'	; print a dot to separate the values
04A252 5B D7             0346 	rst.lil 10h
04A254 2A 86 A2 04       0347     ld hl,(uhl)
04A258 CD B3 9F 04       0348     call printHex24
04A25C CD AA 9F 04       0349     call printNewline
04A260                   0350 
04A260                   0351 ; restore everything
04A260 2A 86 A2 04       0352     ld hl, (uhl)
04A264 ED 4B 89 A2 04    0353     ld bc, (ubc)
04A269 ED 5B 8C A2 04    0354     ld de, (ude)
04A26E DD 2A 8F A2 04    0355     ld ix, (uix)
04A273 FD 2A 92 A2 04    0356     ld iy, (uiy)
04A278 F1                0357     pop af
04A279                   0358 ; all done
04A279 C9                0359     ret
04A27A                   0360 
04A27A 75 64 65 2E 75 68 0361 str_udeuhl: db "ude.uhl=",0
       6C 3D 00          
04A283                   0362 
04A283                   0363 ; global scratch memory for registers
04A283 00 00 00          0364 uaf: dl 0
04A286 00 00 00          0365 uhl: dl 0
04A289 00 00 00          0366 ubc: dl 0
04A28C 00 00 00          0367 ude: dl 0
04A28F 00 00 00          0368 uix: dl 0
04A292 00 00 00          0369 uiy: dl 0
04A295 00 00 00          0370 usp: dl 0
04A298 00 00 00          0371 upc: dl 0
04A29B                   0372 
04A29B                   0373 ; inputs: whatever is in the flags register
04A29B                   0374 ; outputs: binary representation of flags
04A29B                   0375 ;          with a header so we know which is what
04A29B                   0376 ; destroys: hl
04A29B                   0377 ; preserves: af
04A29B                   0378 dumpFlags:
04A29B                   0379 ; first we curse zilog for not giving direct access to flags
04A29B F5                0380     push af ; this is so we can send it back unharmed
04A29C F5                0381     push af ; this is so we can pop it to hl
04A29D                   0382 ; store everything in scratch
04A29D 22 86 A2 04       0383     ld (uhl),hl
04A2A1 ED 43 89 A2 04    0384     ld (ubc),bc
04A2A6 ED 53 8C A2 04    0385     ld (ude),de
04A2AB DD 22 8F A2 04    0386     ld (uix),ix
04A2B0 FD 22 92 A2 04    0387     ld (uiy),iy
04A2B5                   0388 ; next we print the header
04A2B5 21 E1 A2 04       0389     ld hl,@header
04A2B9 CD 95 9F 04       0390     call printString
04A2BD E1                0391     pop hl ; flags are now in l
04A2BE 7D                0392     ld a,l ; flags are now in a
04A2BF CD 5E A0 04       0393     call printBin8
04A2C3 CD AA 9F 04       0394 	call printNewline
04A2C7                   0395 ; restore everything
04A2C7 2A 86 A2 04       0396     ld hl, (uhl)
04A2CB ED 4B 89 A2 04    0397     ld bc, (ubc)
04A2D0 ED 5B 8C A2 04    0398     ld de, (ude)
04A2D5 DD 2A 8F A2 04    0399     ld ix, (uix)
04A2DA FD 2A 92 A2 04    0400     ld iy, (uiy)
04A2DF F1                0401     pop af ; send her home the way she came
04A2E0 C9                0402     ret
04A2E1                   0403 ; Bit 7 (S): Sign flag
04A2E1                   0404 ; Bit 6 (Z): Zero flag
04A2E1                   0405 ; Bit 5 (5): Reserved (copy of bit 5 of the result)
04A2E1                   0406 ; Bit 4 (H): Half Carry flag
04A2E1                   0407 ; Bit 3 (3): Reserved (copy of bit 3 of the result)
04A2E1                   0408 ; Bit 2 (PV): Parity/Overflow flag
04A2E1                   0409 ; Bit 1 (N): Subtract flag
04A2E1                   0410 ; Bit 0 (C): Carry flag
04A2E1 53 5A 78 48 78 50 0411 @header: db "SZxHxPNC\r\n",0 ; cr/lf and 0 terminator
       4E 43 0D 0A 00    
04A2EC                   0412 
04A2EC                   0413 ; set all the bits in the flag register
04A2EC                   0414 ; more of an academic exercise than anything useful
04A2EC                   0415 ; inputs; none
04A2EC                   0416 ; outputs; a=0,f=255
04A2EC                   0417 ; destroys: flags, hl
04A2EC                   0418 ; preserves: a, because why not
04A2EC                   0419 setAllFlags:
04A2EC 21 FF 00 00       0420     ld hl,255
04A2F0 67                0421     ld h,a ; four cycles to preserve a is cheap
04A2F1 E5                0422     push hl
04A2F2 F1                0423     pop af
04A2F3 C9                0424     ret
04A2F4                   0425 
04A2F4                   0426 ; reset all the bits in the flag register
04A2F4                   0427 ; unlike its inverse counterpart, this may actually be useful
04A2F4                   0428 ; inputs; none
04A2F4                   0429 ; outputs; a=0,f=0
04A2F4                   0430 ; destroys: flags, hl
04A2F4                   0431 ; preserves: a, because why not
04A2F4                   0432 resetAllFlags:
04A2F4 21 00 00 00       0433     ld hl,0
04A2F8 67                0434     ld h,a ; four cycles to preserve a is cheap
04A2F9 E5                0435     push hl
04A2FA F1                0436     pop af
04A2FB C9                0437     ret
04A2FC                   0438 
04A2FC                   0439 ; ------------------
04A2FC                   0440 ; delay routine
04A2FC                   0441 ; Author: Richard Turrnidge
04A2FC                   0442 ; https://github.com/richardturnnidge/lessons/blob/main/slowdown.asm
04A2FC                   0443 ; routine waits a fixed time, then returns
04A2FC                   0444 ; arrive with A =  the delay byte. One bit to be set only.
04A2FC                   0445 ; eg. ld A, 00000100b
04A2FC                   0446 
04A2FC                   0447 multiPurposeDelay:
04A2FC F5                0448     push af
04A2FD C5                0449     push bc
04A2FE DD E5             0450     push ix
04A300 47                0451     ld b, a
04A301 3E 08             0452     ld a,$08
04A303 5B CF             0453     RST.LIL	08h                 ; get IX pointer to sysvars
04A305                   0454 
04A305                   0455 waitLoop:
04A305                   0456 
04A305 DD 7E 00          0457     ld a, (ix + 0)              ; ix+0h is lowest byte of clock timer
04A308                   0458 
04A308                   0459                                 ;   we check if bit set is same as last time we checked.
04A308                   0460                                 ;   bit 0 - don't use
04A308                   0461                                 ;   bit 1 - changes 64 times per second
04A308                   0462                                 ;   bit 2 - changes 32 times per second
04A308                   0463                                 ;   bit 3 - changes 16 times per second
04A308                   0464 
04A308                   0465                                 ;   bit 4 - changes 8 times per second
04A308                   0466                                 ;   bit 5 - changes 4 times per second
04A308                   0467                                 ;   bit 6 - changes 2 times per second
04A308                   0468                                 ;   bit 7 - changes 1 times per second
04A308 A0                0469     and b
04A309 4F                0470     ld c,a
04A30A 3A 1B A3 04       0471     ld a, (oldTimeStamp)
04A30E B9                0472     cp c                        ; is A same as last value?
04A30F 28 F4             0473     jr z, waitLoop              ; loop here if it is
04A311 79                0474     ld a, c
04A312 32 1B A3 04       0475     ld (oldTimeStamp), a        ; set new value
04A316                   0476 
04A316 DD E1             0477     pop ix
04A318 C1                0478     pop bc
04A319 F1                0479     pop af
04A31A C9                0480     ret
04A31B                   0481 
04A31B 00                0482 oldTimeStamp:   .db 00h
04A31C                   0032 	include "src/asm/player.asm"
04A31C                   0001 ; ######## GAME STATE VARIABLES #######
04A31C                   0002 ; THESE MUST BE IN THIS ORDER FOR new_game TO WORK PROPERLY
04A31C 00 00 00          0003 player_score: db 0x00,#00,#00 ; bcd
04A31F                   0004 ; player current healths,binary
04A31F                   0005 ; when < 0 player splodes
04A31F                   0006 ; restores to player_max_healths when new ship spawns
04A31F 10                0007 player_healths: db 16 ; binary
04A320                   0008 ; max player healths,binary
04A320                   0009 ; can increase with power-ups (todo)
04A320 10                0010 player_max_healths: db 16 ; binary
04A321                   0011 ; when reaches zero,game ends
04A321                   0012 ; can increase based on TODO
04A321 03                0013 player_ships: db 0x03 ; binary
04A322                   0014 
04A322                   0015 ; ######### Player Variables ##########
04A322                   0016 ; player position on the map and orientation
04A322 00                0017 cur_floor: db 0x00 ; 0-255, corresponds to floor_num in build scripts
04A323 00                0018 cur_room: db 0x00 ; 0-9, corresponds to room_id in build scripts
04A324 00                0019 cur_cell: db 0x00 ; 0-255, corresponds to cell_id in build scripts
04A325 00                0020 from_floor: db 0x00 ; 0-255, corresponds to floor_num in build scripts
04A326 00                0021 from_room: db 0x00 ; 0-9, corresponds to room_id in build scripts
04A327 00                0022 orientation: db 0x00 ; 0-3 north,east,south,west
04A328 00                0023 cur_x: db 0x00
04A329 00                0024 cur_y: db 0x00
04A32A 00                0025        db 0x00 ; padding so we can read/write 24-bit registers
04A32B 00                0026 xvel:  db 0x00
04A32C 00                0027 yvel:  db 0x00
04A32D 00                0028        db 0x00 ; padding
04A32E 00                0029 dy:    db 0x00
04A32F 00                0030 dx:    db 0x00
04A330 00                0031        db 0x00 ; padding
04A331                   0032 
04A331                   0033 ; ######### PLAYER CONSTANTS ##########
04A331                   0034 speed_player: equ 0x01 ; 1 map grid unit per movement tick
04A331                   0035 move_timer_reset: equ 8 ; 4 ticks per secoond at 32 frames per second
04A331                   0036 
04A331                   0037 ; ######### PLAYER SPRITE PARAMETERS ##########
04A331                   0038 ; uses the same offsets from its table base as the main sprite table:
04A331                   0039 player_start_variables: ; label marking beginning of table
04A331 40                0040 player_id:               db table_max_records
04A332 00                0041 player_type:             db     0x00 ; 1 bytes currently not used
04A333 00 00 00          0042 player_base_bufferId:    dl 0x000000 ; 3 bytes bitmap bufferId
04A336 00 00 00          0043 player_move_program:     dl 0x000000 ; 3 bytes not currently used
04A339 00                0044 player_collisions:       db     0x00 ; 1 bytes bit 0 set=alive, otherwise dead, bit 1 set=just died
04A33A 00                0045 player_dim_x:            db     0x00 ; 1 bytes sprite width in pixels
04A33B 00                0046 player_dim_y:            db     0x00 ; 1 bytes sprite height in pixels
04A33C 00 00 00          0047 player_x:                dl 0x000000 ; 3 bytes 16.8 fractional x position in pixels
04A33F 00 00 00          0048 player_y:                dl 0x000000 ; 3 bytes 16.8 fractional y position in pixels
04A342 00 00 00          0049 player_xvel:             dl 0x000000 ; 3 bytes x-component velocity, 16.8 fixed, pixels
04A345 00 00 00          0050 player_yvel:             dl 0x000000 ; 3 bytes y-component velocity, 16.8 fixed, pixels
04A348 00 00 00          0051 player_vel:              dl 0x000000 ; 3 bytes velocity px/frame (16.8 fixed)
04A34B 00 00 00          0052 player_heading:          dl 0x000000 ; 3 bytes sprite movement direction deg256 16.8 fixed
04A34E 00 00 00          0053 player_orientation:      dl 0x000000 ; 3 bytes not currently used
04A351 00                0054 player_animation:        db     0x00 ; 1 bytes not currently used
04A352 00                0055 player_animation_timer:  db     0x00 ; 1 bytes not currently used
04A353 00                0056 player_move_timer:       db     0x00 ; 1 bytes not currently used
04A354 00                0057 player_move_step:        db     0x00 ; 1 bytes not currently used
04A355 00                0058 player_points:           db     0x00 ; 1 bytes not currently used
04A356 00                0059 player_health_damage:    db     0x00 ; 1 bytes not currently used
04A357                   0060 player_end_variables: ; for when we want to traverse this table in reverse
04A357                   0061 
04A357                   0062 ; set initial player position
04A357                   0063 ; inputs: none,everything is hardcoded
04A357                   0064 ; outputs: player set to the first valid position on the map
04A357                   0065 ; destroys: a
04A357                   0066 player_init:
04A357 CD EE 64 04       0067     call get_start_pos ; a = cell_id, d = map_y, e = map_x
04A35B 32 24 A3 04       0068     ld (cur_cell),a
04A35F ED 53 28 A3 04    0069     ld (cur_x),de ; implicitly populates cur_y
04A364 AF                0070     xor a ; north is default orientation
04A365 32 27 A3 04       0071     ld (orientation),a
04A369 3E 08             0072     ld a,move_timer_reset
04A36B 32 53 A3 04       0073     ld (player_move_timer),a
04A36F C9                0074     ret
04A370                   0075 
04A370                   0076 ; process player keyboard input
04A370                   0077 ; Inputs: player_x/y set at desired position
04A370                   0078 ; Returns: player position updated
04A370                   0079 ; Destroys: probably everything except maybe iy
04A370                   0080 player_input:
04A370                   0081 ; first check player_move_timer for zero
04A370 3A 53 A3 04       0082     ld a,(player_move_timer)
04A374 A7                0083     and a ; if zero we can move so get keyboard move input
04A375 28 06             0084     jr z,@get_kb
04A377 3D                0085     dec a ; otherwise decrement timer and return
04A378 32 53 A3 04       0086     ld (player_move_timer),a
04A37C C9                0087     ret
04A37D                   0088 @get_kb:
04A37D                   0089 ; reset player component velocities to zero as the default
04A37D 21 00 00 00       0090     ld hl,0
04A381 22 2B A3 04       0091     ld (xvel),hl ; implicitly sets yvel
04A385                   0092 ; we will set a to zero on a keypress, default of -1 will mean no keypress
04A385 3E FF             0093     ld a,-1
04A387                   0094 ; check for keypresses and branch accordingly
04A387                   0095 ; for how this works,see: https://github.com/breakintoprogram/agon-docs/wiki/MOS-API-%E2%80%90-Virtual-Keyboard
04A387                   0096     MOSCALL	mos_getkbmap ;ix = pointer to MOS virtual keys table
04A387 3E 1E             0096 			LD	A, function
04A389 5B CF             0096 			RST.LIL	08h
04A38B                   0097 ; we test all four arrow keys and add/subract velocities accordingly
04A38B                   0098 ; this handles the case where two opposing movement keys
04A38B                   0099 ; are down simultaneously (velocities will net to zero)
04A38B                   0100 ; and allows diagonal movement when a vertical and horizontal key are down
04A38B                   0101 ; it also allows movement and action keys to be detected simultaneously
04A38B                   0102 ; so we can walk and chew gum at the same time
04A38B                   0103 ;
04A38B                   0104 ; BEGIN CHECKING FOR KEY PRESSES
04A38B                   0105 ;
04A38B                   0106 ; 34 W player moves forward
04A38B DD CB 04 4E       0107     bit 1,(ix+4)
04A38F 28 07             0108     jr z,@W
04A391 3E 01             0109     ld a,speed_player ; this is *camera* relative, not map relative, so y-axis is NOT inverted!
04A393 32 2C A3 04       0110     ld (yvel),a
04A397 AF                0111     xor a
04A398                   0112 @W:
04A398                   0113 ; =====================
04A398                   0114 ; 82 S player moves backward
04A398 DD CB 0A 4E       0115     bit 1,(ix+10)
04A39C 28 0C             0116     jr z,@S
04A39E 16 FF             0117     ld d,-speed_player ; this is *camera* relative, not map relative, so y-axis is NOT inverted!
04A3A0 3A 2C A3 04       0118     ld a,(yvel)
04A3A4 82                0119     add a,d
04A3A5 32 2C A3 04       0120     ld (yvel),a
04A3A9 AF                0121     xor a
04A3AA                   0122 @S:
04A3AA                   0123 ; =====================
04A3AA                   0124 ; 66 A plyer moves left
04A3AA DD CB 08 4E       0125     bit 1,(ix+8)
04A3AE 28 07             0126     jr z,@A
04A3B0 3E FF             0127     ld a,-speed_player ; no funky axis conversion here
04A3B2 32 2B A3 04       0128     ld (xvel),a
04A3B6 AF                0129     xor a
04A3B7                   0130 @A:
04A3B7                   0131 ; =====================
04A3B7                   0132 ; 51 D player moves right
04A3B7 DD CB 06 56       0133     bit 2,(ix+6)
04A3BB 28 0C             0134     jr z,@D
04A3BD 16 01             0135     ld d,speed_player ; no funky axis conversion here
04A3BF 3A 2B A3 04       0136     ld a,(xvel)
04A3C3 82                0137     add a,d
04A3C4 32 2B A3 04       0138     ld (xvel),a
04A3C8 AF                0139     xor a
04A3C9                   0140 @D:
04A3C9                   0141 ; =====================
04A3C9                   0142 ; 26 Left player rotates anti-clockwise
04A3C9 DD CB 03 4E       0143     bit 1,(ix+3)
04A3CD 28 0C             0144     jr z,@Left
04A3CF 3A 27 A3 04       0145     ld a,(orientation)
04A3D3 3D                0146     dec a
04A3D4 E6 03             0147     and 0x03 ; modulo 4
04A3D6 32 27 A3 04       0148     ld (orientation),a
04A3DA AF                0149     xor a
04A3DB                   0150 @Left:
04A3DB                   0151 ; =====================
04A3DB                   0152 ; 122 Right player rotates clockwise
04A3DB DD CB 0F 4E       0153     bit 1,(ix+15)
04A3DF 28 0C             0154     jr z,@Right
04A3E1 3A 27 A3 04       0155     ld a,(orientation)
04A3E5 3C                0156     inc a
04A3E6 E6 03             0157     and 0x03 ; modulo 4
04A3E8 32 27 A3 04       0158     ld (orientation),a
04A3EC AF                0159     xor a
04A3ED                   0160 @Right:
04A3ED                   0161 ; =====================
04A3ED                   0162 ; 99 Space FIRE ZEE MISSILES!!!111
04A3ED                   0163 ; TODO: implement
04A3ED DD CB 0C 56       0164     bit 2,(ix+12)
04A3F1 28 01             0165     jr z,@Space
04A3F3 AF                0166     xor a
04A3F4                   0167 @Space:
04A3F4                   0168 ; =====================
04A3F4                   0169 ; check whether player pressed a key
04A3F4 A7                0170     and a ; this will be -1 if player didn't press a key
04A3F5 C0                0171     ret nz ; non zero so no key pressed
04A3F6                   0172 ; move player according to velocities set by keypresses
04A3F6                   0173 ; TODO: this finagling could go to a conveninece function
04A3F6 ED 5B 2B A3 04    0174     ld de,(xvel) ; d = yvel, e = xvel
04A3FB 3A 27 A3 04       0175     ld a,(orientation)
04A3FF CD 2B 64 04       0176     call trans_dx_dy ; d = dy, e = dx
04A403 ED 53 2F A3 04    0177     ld (dx),de
04A408 3A 28 A3 04       0178     ld a,(cur_x)
04A40C 83                0179     add a,e
04A40D 5F                0180     ld e,a
04A40E 3A 29 A3 04       0181     ld a,(cur_y)
04A412 82                0182     add a,d
04A413 57                0183     ld d,a
04A414 D5                0184     push de ; save y_vel,x_vel
04A415 CD C7 63 04       0185     call get_cell_from_coords ; ix points to cell defs/status, a is target cell current obj_id, bc is cell_id
04A419 D1                0186     pop de ; restore y_vel,x_vel
04A41A                   0187 ; read map type/status mask from target cell
04A41A DD 7E 00          0188     ld a,(ix+map_type_status)
04A41D 47                0189     ld b,a ; b = target cell type/status
04A41E                   0190 ; branch on the values in the bitmask
04A41E 3E 80             0191     ld a,cell_is_door
04A420 A0                0192     and b
04A421 20 06             0193     jr nz,@door
04A423 3E 40             0194     ld a,cell_is_wall
04A425 A0                0195     and b
04A426 C0                0196     ret nz ; can't move thru walls
04A427 18 2B             0197     jr @move_it ; if it wasn't a wall or door, move as normal
04A429                   0198 @door:
04A429 ED 5B 2F A3 04    0199     ld de,(dx) ; d = dy, e = dx
04A42E CD 19 64 04       0200     call get_dir_from_dy_dx ; a is direction of attempted movement
04A432 F5                0201     push af
04A433 16 02             0202     ld d,2 ; 1 past the door in the movement direction
04A435 5F                0203     ld e,a
04A436 CD EC 63 04       0204     call get_dx_dy
04A43A ED 53 2F A3 04    0205     ld (dx),de
04A43F F1                0206     pop af
04A440 5F                0207     ld e,a
04A441 16 02             0208     ld d,2
04A443 ED 4B 28 A3 04    0209     ld bc,(cur_x)
04A448 CD B9 63 04       0210     call get_neighbor ; ix points to cell defs/status, a is target cell current obj_id
04A44C DD 7E 00          0211     ld a,(ix+map_type_status)
04A44F 47                0212     ld b,a ; b = target cell type/status
04A450 3E 40             0213     ld a,cell_is_wall
04A452 A0                0214     and b
04A453 C0                0215     ret nz ; can't move thru walls
04A454                   0216     ; fall through to @move_it
04A454                   0217 @move_it:
04A454                   0218 ; we are cleared for movement so update player position
04A454 11 00 00 00       0219     ld de,0 ; make sure deu is zero
04A458 ED 4B 2F A3 04    0220     ld bc,(dx) ; b = dy, c = dx
04A45D 3A 28 A3 04       0221     ld a,(cur_x)
04A461 81                0222     add a,c
04A462 5F                0223     ld e,a
04A463 32 28 A3 04       0224     ld (cur_x),a
04A467 3A 29 A3 04       0225     ld a,(cur_y)
04A46B 80                0226     add a,b
04A46C 57                0227     ld d,a
04A46D 32 29 A3 04       0228     ld (cur_y),a
04A471                   0229 @reset_move_timer:
04A471 3E 08             0230     ld a,move_timer_reset
04A473 32 53 A3 04       0231     ld (player_move_timer),a
04A477 C9                0232     ret
04A478                   0033     ; include "src/asm/map00_0.asm" ; deprecated now that we load map binaries from files
04A478                   0034 
04A478                   0035 start:
04A478 F5                0036     push af
04A479 C5                0037     push bc
04A47A D5                0038     push de
04A47B DD E5             0039     push ix
04A47D FD E5             0040     push iy
04A47F                   0041 
04A47F                   0042 ; ###############################################
04A47F                   0043 ; ez80asmLinker.py loader code goes here if used.
04A47F                   0044 ; ###############################################
04A47F                   0045 
04A47F                   0046 ; ###############################################
04A47F CD EB A4 04       0047 	call init ; Initialization code
04A483 CD 84 A5 04       0048     call main ; Call the main function
04A487                   0049 ; ###############################################
04A487                   0050 
04A487                   0051 exit:
04A487                   0052 
04A487 FD E1             0053     pop iy                              ; Pop all registers back from the stack
04A489 DD E1             0054     pop ix
04A48B D1                0055     pop de
04A48C C1                0056     pop bc
04A48D F1                0057     pop af
04A48E 21 00 00 00       0058     ld hl,0                             ; Load the MOS API return code (0) for no errors.
04A492                   0059 
04A492 C9                0060     ret                                 ; Return MOS
04A493                   0061 
04A493 57 65 6C 63 6F 6D 0062 hello_world: defb "Welcome to Agon Wolf3D",0
       65 20 74 6F 20 41 
       67 6F 6E 20 57 6F 
       6C 66 33 44 00    
04A4AA 4C 6F 61 64 69 6E 0063 loading_panels: defb "Loading panels",0
       67 20 70 61 6E 65 
       6C 73 00          
04A4B9 4C 6F 61 64 69 6E 0064 loading_sprites: defb "Loading sprites",0
       67 20 73 70 72 69 
       74 65 73 00       
04A4C9 4C 6F 61 64 69 6E 0065 loading_dws: defb "Loading distance walls",0
       67 20 64 69 73 74 
       61 6E 63 65 20 77 
       61 6C 6C 73 00    
04A4E0 4C 6F 61 64 69 6E 0066 loading_ui: defb "Loading UI",0
       67 20 55 49 00    
04A4EB                   0067 
04A4EB                   0068 init:
04A4EB                   0069 ; set the cursor off
04A4EB CD A4 9C 04       0070 	call cursor_off
04A4EF                   0071 
04A4EF                   0072 ; print loading ui message
04A4EF 21 E0 A4 04       0073 	ld hl,loading_ui
04A4F3 CD 95 9F 04       0074 	call printString
04A4F7                   0075 
04A4F7                   0076 ; load fonts
04A4F7 CD 30 7C 04       0077 	call load_font_itc_honda
04A4FB CD 13 8D 04       0078 	call load_font_retro_computer
04A4FF                   0079 
04A4FF                   0080 ; load UI images
04A4FF CD 9C 95 04       0081 	call load_ui_images
04A503                   0082 
04A503                   0083 ; set up the display
04A503 3E 88             0084     ld a,8 + 128 ; 320x240x64 double-buffered
04A505 CD E5 9A 04       0085     call vdu_set_screen_mode
04A509 AF                0086     xor a
04A50A CD 14 9C 04       0087     call vdu_set_scaling
04A50E                   0088 
04A50E                   0089 ; set text background color
04A50E 3E 84             0090 	ld a,4 + 128
04A510 CD 71 9A 04       0091 	call vdu_colour_text
04A514                   0092 
04A514                   0093 ; set gfx bg color
04A514 AF                0094 	xor a ; plotting mode 0
04A515 0E 04             0095 	ld c,4 ; dark blue
04A517 CD 99 9A 04       0096 	call vdu_gcol_bg
04A51B CD 6C 9A 04       0097 	call vdu_clg
04A51F                   0098 
04A51F                   0099 ; VDU 28, left, bottom, right, top: Set text viewport **
04A51F                   0100 ; MIND THE LITTLE-ENDIANESS
04A51F                   0101 ; inputs: c=left,b=bottom,e=right,d=top
04A51F 0E 00             0102 	ld c,0 ; left
04A521 16 14             0103 	ld d,20 ; top
04A523 1E 27             0104 	ld e,39 ; right
04A525 06 1D             0105 	ld b,29; bottom
04A527 CD 5A 9B 04       0106 	call vdu_set_txt_viewport
04A52B                   0107 
04A52B                   0108 ; initialize image load routine
04A52B CD D9 A5 04       0109 	call img_load_init
04A52F                   0110 
04A52F                   0111 ; load panels
04A52F 01 13 01 00       0112 	ld bc,cube_num_panels
04A533 21 45 00 04       0113 	ld hl,cube_buffer_id_lut
04A537 22 D3 A5 04       0114 	ld (cur_buffer_id_lut),hl
04A53B 21 7E 03 04       0115 	ld hl,cube_load_panels_table
04A53F 22 D6 A5 04       0116 	ld (cur_load_jump_table),hl
04A543 CD 0E A6 04       0117 	call img_load_main
04A547                   0118 
04A547                   0119 ; load sprites
04A547 01 5A 00 00       0120 	ld bc,sprite_num_panels
04A54B 21 51 49 04       0121 	ld hl,sprite_buffer_id_lut
04A54F 22 D3 A5 04       0122 	ld (cur_buffer_id_lut),hl
04A553 21 5F 4A 04       0123 	ld hl,sprite_load_panels_table
04A557 22 D6 A5 04       0124 	ld (cur_load_jump_table),hl
04A55B CD 0E A6 04       0125 	call img_load_main
04A55F                   0126 
04A55F                   0127 ; load distance walls
04A55F 01 09 00 00       0128 	ld bc,dws_num_panels
04A563 21 39 61 04       0129 	ld hl,dws_buffer_id_lut
04A567 22 D3 A5 04       0130 	ld (cur_buffer_id_lut),hl
04A56B 21 54 61 04       0131 	ld hl,dws_load_panels_table
04A56F 22 D6 A5 04       0132 	ld (cur_load_jump_table),hl
04A573 CD 0E A6 04       0133 	call img_load_main
04A577                   0134 
04A577                   0135 ; clear the screen
04A577 CD 58 9A 04       0136 	call vdu_cls
04A57B CD 6C 9A 04       0137 	call vdu_clg
04A57F CD 27 9C 04       0138 	call vdu_flip
04A583                   0139 
04A583                   0140 ; initialization done
04A583 C9                0141 	ret
04A584                   0142 
04A584                   0143 main:
04A584                   0144 ; set map variables and load initial map file
04A584 CD 58 64 04       0145 	call map_init
04A588                   0146 
04A588                   0147 ; initialize player position
04A588 CD 57 A3 04       0148 	call player_init
04A58C                   0149 
04A58C                   0150 ; render initial scene
04A58C ED 5B 28 A3 04    0151 	ld de,(cur_x) ; implicitly loads cur_y
04A591 CD C7 63 04       0152 	call get_cell_from_coords ; ix points to cell defs/status, a is target cell current obj_id, bc is target cell_id
04A595 AF                0153 	xor a ; north orientation
04A596 32 27 A3 04       0154 	ld (orientation),a
04A59A CD 4B 66 04       0155 	call render_scene
04A59E CD 27 9C 04       0156 	call vdu_flip
04A5A2                   0157 
04A5A2                   0158 main_loop:
04A5A2                   0159 ; move enemies
04A5A2                   0160 	; call move_enemies
04A5A2                   0161 
04A5A2                   0162 ; get player input and update sprite position
04A5A2 CD 70 A3 04       0163 	call player_input ; ix points to cell defs/status, a is target cell current obj_id
04A5A6                   0164 
04A5A6                   0165 ; render the updated scene
04A5A6 CD 4B 66 04       0166 	call render_scene
04A5AA                   0167 ; flip the screen
04A5AA CD 27 9C 04       0168 	call vdu_flip
04A5AE                   0169 ; wait for the next VBLANK
04A5AE CD B2 9C 04       0170 	call vdu_vblank
04A5B2                   0171 
04A5B2                   0172 ; check for escape key and quit if pressed
04A5B2                   0173 	MOSCALL mos_getkbmap
04A5B2 3E 1E             0173 			LD	A, function
04A5B4 5B CF             0173 			RST.LIL	08h
04A5B6                   0174 ; 113 Escape
04A5B6 DD CB 0E 46       0175     bit 0,(ix+14)
04A5BA 28 02             0176     jr z,@Escape
04A5BC 18 02             0177 	jr main_end
04A5BE                   0178 @Escape:
04A5BE                   0179 
04A5BE                   0180 ; do it again, Sam
04A5BE 18 E2             0181     jr main_loop
04A5C0                   0182 
04A5C0                   0183 main_end:
04A5C0                   0184 	; call do_outro
04A5C0                   0185 ; restore screen to something normalish
04A5C0 AF                0186 	xor a
04A5C1 CD E5 9A 04       0187 	call vdu_set_screen_mode
04A5C5 CD 96 9C 04       0188 	call cursor_on
04A5C9 C9                0189 	ret
04A5CA                   0190 
04A5CA                   0191 
04A5CA                   0192 ; img_load.asm must go here so that filedata doesn't stomp on program data
04A5CA                   0193 	include "src/asm/img_load.asm"
04A5CA 00 00 00          0001 cur_file_idx: dl 0
04A5CD 00 00 00          0002 cur_filename: dl 0
04A5D0 00 00 00          0003 cur_buffer_id: dl 0
04A5D3 00 00 00          0004 cur_buffer_id_lut: dl 0
04A5D6 00 00 00          0005 cur_load_jump_table: dl 0
04A5D9                   0006 
04A5D9                   0007 img_load_init:
04A5D9                   0008 ; initialize bj's position parameters
04A5D9 21 00 00 00       0009 	ld hl,0
04A5DD 22 1D A7 04       0010 	ld (bj_y_vel),hl
04A5E1                   0011 
04A5E1 21 2D 00 00       0012     ld hl,45
04A5E5 22 20 A7 04       0013 	ld (bj_y_cur),hl
04A5E9 22 23 A7 04       0014 	ld (bj_y_min),hl
04A5ED 22 26 A7 04       0015     ld (bj_y_max),hl
04A5F1                   0016 
04A5F1 21 01 00 00       0017 	ld hl,1
04A5F5 22 11 A7 04       0018 	ld (bj_x_vel),hl
04A5F9                   0019 
04A5F9 21 0A 00 00       0020 	ld hl,10
04A5FD 22 14 A7 04       0021 	ld (bj_x_cur),hl
04A601 22 17 A7 04       0022 	ld (bj_x_min),hl
04A605                   0023 
04A605 21 C8 00 00       0024 	ld hl,320-120
04A609 22 1A A7 04       0025 	ld (bj_x_max),hl
04A60D                   0026 
04A60D C9                0027     ret
04A60E                   0028 
04A60E                   0029 ; inputs: bc is the number of images to load, cur_buffer_id_lut and cur_load_jump_table set to the address of the first entry in the respective lookup tables
04A60E                   0030 img_load_main:
04A60E 21 00 00 00       0031     ld hl,0
04A612 22 CA A5 04       0032     ld (cur_file_idx),hl
04A616                   0033 img_load_main_loop:
04A616                   0034 ; back up loop counter
04A616 C5                0035     push bc
04A617                   0036 ; load the next panel
04A617 CD 75 A6 04       0037     call load_next_panel
04A61B                   0038 ; draw all the things
04A61B CD 29 A7 04       0039     call tmp_draw_all_the_things
04A61F                   0040 ; draw the most recently loaded panel
04A61F 2A D0 A5 04       0041 	ld hl,(cur_buffer_id)
04A623 CD C1 9B 04       0042 	call vdu_buff_select
04A627 01 00 00 00       0043 	ld bc,0
04A62B 11 00 00 00       0044 	ld de,0
04A62F CD 92 9D 04       0045 	call vdu_plot_bmp
04A633                   0046 ; move bj
04A633 CD B1 A6 04       0047 	call move_bj
04A637                   0048 ; print welcome message
04A637 DD 21 0E 7A 04    0049 	ld ix,font_itc_honda
04A63C 21 93 A4 04       0050 	ld hl,hello_world
04A640 01 20 00 00       0051 	ld bc,32
04A644 11 02 00 00       0052 	ld de,2
04A648 CD A4 63 04       0053 	call font_bmp_print
04A64C                   0054 ; print current filename
04A64C CD 58 9A 04       0055 	call vdu_cls
04A650 2A CD A5 04       0056 	ld hl,(cur_filename)
04A654 CD 95 9F 04       0057 	call printString
04A658 CD AA 9F 04       0058 	call printNewline
04A65C                   0059 ; ; flip screen
04A65C                   0060 ;     call vdu_flip
04A65C                   0061 ; decrement loop counter
04A65C C1                0062     pop bc
04A65D 0B                0063 	dec bc
04A65E                   0064 ; DEBUG: DUMP REGISTERS
04A65E C5                0065 	push bc
04A65F CD 52 A1 04       0066 	call dumpRegistersHex
04A663 CD 27 9C 04       0067 	call vdu_flip
04A667 C1                0068 	pop bc
04A668                   0069 ; END DEBUG
04A668                   0070 
04A668 79                0071     ld a,c
04A669 B7                0072     or a
04A66A C2 16 A6 04       0073     jp nz,img_load_main_loop
04A66E 78                0074     ld a,b
04A66F B7                0075     or a
04A670 C2 16 A6 04       0076     jp nz,img_load_main_loop
04A674 C9                0077     ret
04A675                   0078 
04A675                   0079 load_next_panel:
04A675                   0080 ; look up the load routine for the current file index
04A675 2A CA A5 04       0081 	ld hl,(cur_file_idx)
04A679 29                0082 	add hl,hl ; multiply current index by 2 ...
04A67A ED 5B CA A5 04    0083 	ld de,(cur_file_idx)
04A67F 19                0084 	add hl,de ; ... now by 3
04A680 ED 5B D6 A5 04    0085 	ld de,(cur_load_jump_table) ; tack it on to the base address of the jump table
04A685 19                0086 	add hl,de
04A686 ED 27             0087 	ld hl,(hl) ; hl is pointing to load routine address
04A688 22 8D A6 04       0088 	ld (@jump_addr+1),hl ; self-modifying code ...
04A68C                   0089 @jump_addr:
04A68C CD 00 00 00       0090 	call 0 ; call the panel load routine
04A690                   0091 ; look up the buffer id for the current file
04A690 2A CA A5 04       0092 	ld hl,(cur_file_idx)
04A694 29                0093 	add hl,hl ; multiply current index by 2 ...
04A695 ED 5B CA A5 04    0094 	ld de,(cur_file_idx)
04A69A 19                0095 	add hl,de ; ... now by 3
04A69B ED 5B D3 A5 04    0096 	ld de,(cur_buffer_id_lut) ; tack it on to the base address of the lookup table
04A6A0 19                0097 	add hl,de
04A6A1 ED 27             0098 	ld hl,(hl)
04A6A3 22 D0 A5 04       0099 	ld (cur_buffer_id),hl
04A6A7                   0100 ; bump the current file index
04A6A7 2A CA A5 04       0101 	ld hl,(cur_file_idx)
04A6AB 23                0102 	inc hl
04A6AC 22 CA A5 04       0103 	ld (cur_file_idx),hl
04A6B0 C9                0104 	ret
04A6B1                   0105 
04A6B1                   0106 move_bj:
04A6B1                   0107 ; activate bj bitmap
04A6B1 21 00 20 00       0108 	ld hl, BUF_UI_BJ_120_120
04A6B5 CD C1 9B 04       0109 	call vdu_buff_select
04A6B9                   0110 ; update position based on velocity parameters
04A6B9 2A 14 A7 04       0111 	ld hl, (bj_x_cur)
04A6BD ED 5B 11 A7 04    0112 	ld de, (bj_x_vel)
04A6C2 19                0113 	add hl, de
04A6C3 22 14 A7 04       0114 	ld (bj_x_cur), hl
04A6C7 EB                0115 	ex de,hl ; store x_cur in de
04A6C8                   0116 ; check if we're < x_min
04A6C8 2A 17 A7 04       0117 	ld hl,(bj_x_min)
04A6CC AF                0118 	xor a ; clear carry
04A6CD ED 52             0119 	sbc hl,de ; x_min - x_cur
04A6CF F2 ED A6 04       0120 	jp p, move_bj_x_min
04A6D3                   0121 ; check if we're > x_max
04A6D3 2A 1A A7 04       0122 	ld hl,(bj_x_max)
04A6D7 AF                0123 	xor a ; clear carry
04A6D8 ED 52             0124 	sbc hl,de ; x_max - x_cur
04A6DA FA FF A6 04       0125 	jp m, move_bj_x_max
04A6DE                   0126 ; if not at either boundary, fall through to draw bj's
04A6DE                   0127 draw_bj:
04A6DE ED 4B 14 A7 04    0128 	ld bc,(bj_x_cur)
04A6E3 ED 5B 20 A7 04    0129 	ld de,(bj_y_cur)
04A6E8 CD 92 9D 04       0130 	call vdu_plot_bmp
04A6EC C9                0131 	ret
04A6ED                   0132 move_bj_x_min:
04A6ED 21 01 00 00       0133 	ld hl,1
04A6F1 22 11 A7 04       0134 	ld (bj_x_vel),hl
04A6F5 2A 17 A7 04       0135 	ld hl,(bj_x_min)
04A6F9 22 14 A7 04       0136 	ld (bj_x_cur),hl
04A6FD 18 DF             0137 	jr draw_bj
04A6FF                   0138 move_bj_x_max:
04A6FF 21 FF FF FF       0139 	ld hl,-1
04A703 22 11 A7 04       0140 	ld (bj_x_vel),hl
04A707 2A 1A A7 04       0141 	ld hl,(bj_x_max)
04A70B 22 14 A7 04       0142 	ld (bj_x_cur),hl
04A70F 18 CD             0143 	jr draw_bj
04A711 00 00 00          0144 bj_x_vel: dl 0
04A714 00 00 00          0145 bj_x_cur: dl 0
04A717 00 00 00          0146 bj_x_min: dl 0
04A71A 00 00 00          0147 bj_x_max: dl 0
04A71D                   0148 
04A71D 00 00 00          0149 bj_y_vel: dl 0
04A720 00 00 00          0150 bj_y_cur: dl 0
04A723 00 00 00          0151 bj_y_min: dl 0
04A726 00 00 00          0152 bj_y_max: dl 0
04A729                   0153 
04A729                   0154 tmp_draw_all_the_things:
04A729 21 02 20 00       0155     ld hl,BUF_UI_SPLASH
04A72D CD C1 9B 04       0156     call vdu_buff_select
04A731 01 00 00 00       0157     ld bc,0
04A735 11 00 00 00       0158     ld de,0
04A739 CD 92 9D 04       0159     call vdu_plot_bmp
04A73D C9                0160 	ret
04A73E                   0161 
04A73E                   0162 ; load an uncompressed rgba2222 image file to a buffer
04A73E                   0163 ; inputs: bc,de image width,height ; hl = bufferId ; ix = file size
04A73E                   0164 vdu_load_img:
04A73E                   0165 ; back up image dimension parameters
04A73E C5                0166 	push bc
04A73F D5                0167 	push de
04A740                   0168 ; load the image
04A740 CD 60 A7 04       0169 	call vdu_load_buffer_from_file
04A744                   0170 ; now make it a bitmap
04A744 D1                0171 	pop de
04A745 C1                0172 	pop bc
04A746 3E 01             0173 	ld a,1 ; the magic number for rgba2222
04A748 C3 D6 9B 04       0174 	jp vdu_bmp_create ; will return to caller from there
04A74C                   0175 
04A74C                   0176 ; load a compressed rgba2222 image file to a buffer
04A74C                   0177 ; inputs: bc,de image width,height ; hl = bufferId ; ix = file size
04A74C                   0178 vdu_load_img_cmp:
04A74C                   0179 ; back up image dimension parameters
04A74C C5                0180 	push bc
04A74D D5                0181 	push de
04A74E                   0182 ; back up the buffer id
04A74E E5                0183 	push hl
04A74F                   0184 ; load the image
04A74F CD 60 A7 04       0185 	call vdu_load_buffer_from_file
04A753                   0186 ; decompress the buffer
04A753 E1                0187 	pop hl ; bufferId
04A754 CD 35 9C 04       0188 	call vdu_decompress_buffer
04A758                   0189 ; now make it a bitmap
04A758 D1                0190 	pop de ; image height
04A759 C1                0191 	pop bc ; image width
04A75A 3E 01             0192 	ld a,1 ; the magic number for rgba2222
04A75C C3 D6 9B 04       0193 	jp vdu_bmp_create ; will return to caller from there
04A760                   0194 
04A760                   0195 ; WARNING: this routine must be the last one loaded in the main program so that filedata doesn't stomp on any program code
04A760                   0196 ; inputs: hl = bufferId, ix = file size
04A760                   0197 vdu_load_buffer_from_file:
04A760                   0198 		; load bitmap ids
04A760 22 9D A7 04       0199 		ld (@id0),hl
04A764 22 A3 A7 04       0200 		ld (@id1),hl
04A768 22 A8 A7 04       0201 		ld (@id2),hl
04A76C                   0202 	; clean up bytes that got stomped on by the ID loads
04A76C 3E 02             0203 		ld a,2
04A76E 32 9F A7 04       0204 		ld (@id0+2),a
04A772 3E 17             0205 		ld a,23
04A774 32 A5 A7 04       0206 		ld (@id1+2),a
04A778 AF                0207 		xor a
04A779 32 AA A7 04       0208 		ld (@id2+2),a
04A77D                   0209 	; read size from ix
04A77D DD 7D             0210 		ld a,ixl
04A77F 32 AB A7 04       0211 		ld (@size),a
04A783 DD 7C             0212 		ld a,ixh
04A785 32 AC A7 04       0213 		ld (@size+1),a
04A789                   0214 	; get all the ducks in a row for the vdu call
04A789 01 13 00 00       0215 		ld bc,filedata-@start
04A78D DD 09             0216 		add ix,bc
04A78F DD 44             0217 		ld b,ixh
04A791 DD 4D             0218 		ld c,ixl
04A793 21 9A A7 04       0219 		ld hl,@start
04A797                   0220 	; push the button
04A797 5B DF             0221 		rst.lil $18
04A799                   0222 	; back to caller
04A799 C9                0223 		ret
04A79A                   0224 ; vdp command string:
04A79A 17 00 A0          0225 @start: db 23,0,0xA0 ; Clear buffer
04A79D 00 00             0226 @id0:	dw 0x0000 ; bufferId
04A79F 02                0227 		db 2
04A7A0                   0228 	; select buffer VDU 23, 27, &20, bufferId;
04A7A0 17 1B 20          0229 		db 23,27,0x20
04A7A3 00 00             0230 @id1:	dw 0x0000 ; bufferId
04A7A5                   0231 	; Upload data :: VDU 23, 0 &A0, bufferId; 0, length; <buffer-data>
04A7A5 17 00 A0          0232 		db 23,0,0xA0
04A7A8 00 00             0233 @id2:	dw 0x0000 ; bufferId
04A7AA 00                0234 		db 0
04A7AB                   0235 		; CAUTION: the size argument is a 16-bit value, so the max number of bytes we can load in one chunk is 64KiB!! This corresponds to an rgba2 image size of 320x204.
04A7AB 00 00             0236 @size:	dw 0x0000 ;width * height ; length of data in bytes
04A7AD                   0237 filedata: ; no need to allocate space here if this is the final include of the application
04A7AD                   0238 	; ds 65536 ; placeholder for file data	DEBUG
04A7AD                   0194 	; include "src/asm/img_load_dif_buf.asm"
